
kernel.elf:     formato del fichero elf32-littleriscv


Desensamblado de la sección .text:

80000000 <_start>:
80000000:	00019197          	auipc	gp,0x19
80000004:	1a418193          	addi	gp,gp,420 # 800191a4 <__global_pointer$>
80000008:	80016137          	lui	sp,0x80016
8000000c:	00010113          	mv	sp,sp
80000010:	800002b7          	lui	t0,0x80000
80000014:	06028293          	addi	t0,t0,96 # 80000060 <isr_vector>
80000018:	30529073          	csrw	mtvec,t0
8000001c:	00017517          	auipc	a0,0x17
80000020:	9a450513          	addi	a0,a0,-1628 # 800169c0 <_exception_table>
80000024:	00017617          	auipc	a2,0x17
80000028:	1dc60613          	addi	a2,a2,476 # 80017200 <_end>
8000002c:	40a60633          	sub	a2,a2,a0
80000030:	00000593          	li	a1,0
80000034:	00008097          	auipc	ra,0x8
80000038:	240080e7          	jalr	576(ra) # 80008274 <memset>
8000003c:	061130ef          	jal	8001389c <start>
80000040:	00012503          	lw	a0,0(sp) # 80016000 <_exit>
80000044:	00410593          	addi	a1,sp,4
80000048:	00000613          	li	a2,0
8000004c:	00013097          	auipc	ra,0x13
80000050:	768080e7          	jalr	1896(ra) # 800137b4 <main>
80000054:	0000c317          	auipc	t1,0xc
80000058:	d6c30067          	jr	-660(t1) # 8000bdc0 <exit>

8000005c <_fini>:
8000005c:	00008067          	ret

80000060 <isr_vector>:
80000060:	f7410113          	addi	sp,sp,-140
80000064:	09f12423          	sw	t6,136(sp)
80000068:	09e12223          	sw	t5,132(sp)
8000006c:	09d12023          	sw	t4,128(sp)
80000070:	07c12e23          	sw	t3,124(sp)
80000074:	07b12c23          	sw	s11,120(sp)
80000078:	07a12a23          	sw	s10,116(sp)
8000007c:	07912823          	sw	s9,112(sp)
80000080:	07812623          	sw	s8,108(sp)
80000084:	07712423          	sw	s7,104(sp)
80000088:	07612223          	sw	s6,100(sp)
8000008c:	07512023          	sw	s5,96(sp)
80000090:	05412e23          	sw	s4,92(sp)
80000094:	05312c23          	sw	s3,88(sp)
80000098:	05212a23          	sw	s2,84(sp)
8000009c:	05112823          	sw	a7,80(sp)
800000a0:	05012623          	sw	a6,76(sp)
800000a4:	04f12423          	sw	a5,72(sp)
800000a8:	04e12223          	sw	a4,68(sp)
800000ac:	04d12023          	sw	a3,64(sp)
800000b0:	02c12e23          	sw	a2,60(sp)
800000b4:	02b12c23          	sw	a1,56(sp)
800000b8:	02a12a23          	sw	a0,52(sp)
800000bc:	02912823          	sw	s1,48(sp)
800000c0:	02812623          	sw	s0,44(sp)
800000c4:	02712423          	sw	t2,40(sp)
800000c8:	02612223          	sw	t1,36(sp)
800000cc:	02512023          	sw	t0,32(sp)
800000d0:	00412e23          	sw	tp,28(sp)
800000d4:	00312c23          	sw	gp,24(sp)
800000d8:	00212a23          	sw	sp,20(sp)
800000dc:	00112823          	sw	ra,16(sp)
800000e0:	34202473          	csrr	s0,mcause
800000e4:	00812423          	sw	s0,8(sp)
800000e8:	30002473          	csrr	s0,mstatus
800000ec:	00812223          	sw	s0,4(sp)
800000f0:	34102473          	csrr	s0,mepc
800000f4:	00812023          	sw	s0,0(sp)
800000f8:	00010513          	mv	a0,sp
800000fc:	30c000ef          	jal	80000408 <exception_handler>

80000100 <exception_return>:
80000100:	00050113          	mv	sp,a0
80000104:	00012403          	lw	s0,0(sp)
80000108:	34141073          	csrw	mepc,s0
8000010c:	00412403          	lw	s0,4(sp)
80000110:	30041073          	csrw	mstatus,s0
80000114:	01012083          	lw	ra,16(sp)
80000118:	01812183          	lw	gp,24(sp)
8000011c:	01c12203          	lw	tp,28(sp)
80000120:	02012283          	lw	t0,32(sp)
80000124:	02412303          	lw	t1,36(sp)
80000128:	02812383          	lw	t2,40(sp)
8000012c:	02c12403          	lw	s0,44(sp)
80000130:	03012483          	lw	s1,48(sp)
80000134:	03412503          	lw	a0,52(sp)
80000138:	03812583          	lw	a1,56(sp)
8000013c:	03c12603          	lw	a2,60(sp)
80000140:	04012683          	lw	a3,64(sp)
80000144:	04412703          	lw	a4,68(sp)
80000148:	04812783          	lw	a5,72(sp)
8000014c:	04c12803          	lw	a6,76(sp)
80000150:	05012883          	lw	a7,80(sp)
80000154:	05412903          	lw	s2,84(sp)
80000158:	05812983          	lw	s3,88(sp)
8000015c:	05c12a03          	lw	s4,92(sp)
80000160:	06012a83          	lw	s5,96(sp)
80000164:	06412b03          	lw	s6,100(sp)
80000168:	06812b83          	lw	s7,104(sp)
8000016c:	06c12c03          	lw	s8,108(sp)
80000170:	07012c83          	lw	s9,112(sp)
80000174:	07412d03          	lw	s10,116(sp)
80000178:	07812d83          	lw	s11,120(sp)
8000017c:	07c12e03          	lw	t3,124(sp)
80000180:	08012e83          	lw	t4,128(sp)
80000184:	08412f03          	lw	t5,132(sp)
80000188:	08812f83          	lw	t6,136(sp)
8000018c:	08c10113          	addi	sp,sp,140
80000190:	30200073          	mret

80000194 <exception_syscall>:
80000194:	00000073          	ecall
80000198:	00008067          	ret

8000019c <ctxsw>:
8000019c:	fa410113          	addi	sp,sp,-92
800001a0:	05112c23          	sw	a7,88(sp)
800001a4:	05012a23          	sw	a6,84(sp)
800001a8:	04f12823          	sw	a5,80(sp)
800001ac:	04e12623          	sw	a4,76(sp)
800001b0:	04d12423          	sw	a3,72(sp)
800001b4:	04c12223          	sw	a2,68(sp)
800001b8:	04b12023          	sw	a1,64(sp)
800001bc:	02a12e23          	sw	a0,60(sp)
800001c0:	03b12c23          	sw	s11,56(sp)
800001c4:	03a12a23          	sw	s10,52(sp)
800001c8:	03912823          	sw	s9,48(sp)
800001cc:	03812623          	sw	s8,44(sp)
800001d0:	03712423          	sw	s7,40(sp)
800001d4:	03612223          	sw	s6,36(sp)
800001d8:	03512023          	sw	s5,32(sp)
800001dc:	01412e23          	sw	s4,28(sp)
800001e0:	01312c23          	sw	s3,24(sp)
800001e4:	01212a23          	sw	s2,20(sp)
800001e8:	00912823          	sw	s1,16(sp)
800001ec:	00812623          	sw	s0,12(sp)
800001f0:	300023f3          	csrr	t2,mstatus
800001f4:	00712423          	sw	t2,8(sp)
800001f8:	00112223          	sw	ra,4(sp)
800001fc:	00112023          	sw	ra,0(sp)
80000200:	00252023          	sw	sp,0(a0)
80000204:	0005a103          	lw	sp,0(a1)
80000208:	00012283          	lw	t0,0(sp)
8000020c:	00412083          	lw	ra,4(sp)
80000210:	00812383          	lw	t2,8(sp)
80000214:	00c12403          	lw	s0,12(sp)
80000218:	01012483          	lw	s1,16(sp)
8000021c:	01412903          	lw	s2,20(sp)
80000220:	01812983          	lw	s3,24(sp)
80000224:	01c12a03          	lw	s4,28(sp)
80000228:	02012a83          	lw	s5,32(sp)
8000022c:	02412b03          	lw	s6,36(sp)
80000230:	02812b83          	lw	s7,40(sp)
80000234:	02c12c03          	lw	s8,44(sp)
80000238:	03012c83          	lw	s9,48(sp)
8000023c:	03412d03          	lw	s10,52(sp)
80000240:	03812d83          	lw	s11,56(sp)
80000244:	03c12503          	lw	a0,60(sp)
80000248:	04012583          	lw	a1,64(sp)
8000024c:	04412603          	lw	a2,68(sp)
80000250:	04812683          	lw	a3,72(sp)
80000254:	04c12703          	lw	a4,76(sp)
80000258:	05012783          	lw	a5,80(sp)
8000025c:	05412803          	lw	a6,84(sp)
80000260:	05812883          	lw	a7,88(sp)
80000264:	05c10113          	addi	sp,sp,92
80000268:	0083fe13          	andi	t3,t2,8
8000026c:	000e0a63          	beqz	t3,80000280 <end_ctxsw>
80000270:	ff73f393          	andi	t2,t2,-9
80000274:	300393f3          	csrrw	t2,mstatus,t2
80000278:	34129373          	csrrw	t1,mepc,t0
8000027c:	30200073          	mret

80000280 <end_ctxsw>:
80000280:	00028367          	jalr	t1,t0

80000284 <enable>:
80000284:	30046573          	csrrsi	a0,mstatus,8
80000288:	00008067          	ret

8000028c <disable>:
8000028c:	30047573          	csrrci	a0,mstatus,8
80000290:	00008067          	ret

80000294 <restore>:
80000294:	30051073          	csrw	mstatus,a0
80000298:	00008067          	ret

8000029c <enable_interrupt_status>:
8000029c:	00800293          	li	t0,8
800002a0:	3002a073          	csrs	mstatus,t0
800002a4:	00008067          	ret

800002a8 <enable_interrupt>:
800002a8:	00100293          	li	t0,1
800002ac:	00a292b3          	sll	t0,t0,a0
800002b0:	3042a073          	csrs	mie,t0
800002b4:	00008067          	ret

800002b8 <disable_interrupt_status>:
800002b8:	00800293          	li	t0,8
800002bc:	3002b073          	csrc	mstatus,t0
800002c0:	00008067          	ret

800002c4 <disable_interrupt>:
800002c4:	00100293          	li	t0,1
800002c8:	00a292b3          	sll	t0,t0,a0
800002cc:	3042b073          	csrc	mie,t0
800002d0:	00008067          	ret

800002d4 <clear_interrupts>:
800002d4:	00000293          	li	t0,0
800002d8:	34429073          	csrw	mip,t0
800002dc:	00008067          	ret

800002e0 <soft_trap>:
800002e0:	00800293          	li	t0,8
800002e4:	3442a073          	csrs	mip,t0
800002e8:	00008067          	ret

800002ec <context_irq_enable>:
800002ec:	fe010113          	addi	sp,sp,-32
800002f0:	00812e23          	sw	s0,28(sp)
800002f4:	02010413          	addi	s0,sp,32
800002f8:	fea42623          	sw	a0,-20(s0)
800002fc:	feb42423          	sw	a1,-24(s0)
80000300:	fec42783          	lw	a5,-20(s0)
80000304:	0047a783          	lw	a5,4(a5)
80000308:	f7f7f713          	andi	a4,a5,-129
8000030c:	fec42783          	lw	a5,-20(s0)
80000310:	00e7a223          	sw	a4,4(a5)
80000314:	fec42783          	lw	a5,-20(s0)
80000318:	0047a703          	lw	a4,4(a5)
8000031c:	fe842783          	lw	a5,-24(s0)
80000320:	00078663          	beqz	a5,8000032c <context_irq_enable+0x40>
80000324:	08000793          	li	a5,128
80000328:	0080006f          	j	80000330 <context_irq_enable+0x44>
8000032c:	00000793          	li	a5,0
80000330:	00e7e733          	or	a4,a5,a4
80000334:	fec42783          	lw	a5,-20(s0)
80000338:	00e7a223          	sw	a4,4(a5)
8000033c:	00000013          	nop
80000340:	01c12403          	lw	s0,28(sp)
80000344:	02010113          	addi	sp,sp,32
80000348:	00008067          	ret

8000034c <exception_set_irq_handler>:
8000034c:	fe010113          	addi	sp,sp,-32
80000350:	00812e23          	sw	s0,28(sp)
80000354:	02010413          	addi	s0,sp,32
80000358:	fea42623          	sw	a0,-20(s0)
8000035c:	800177b7          	lui	a5,0x80017
80000360:	fec42703          	lw	a4,-20(s0)
80000364:	a0e7a023          	sw	a4,-1536(a5) # 80016a00 <_irq_handler>
80000368:	00000013          	nop
8000036c:	01c12403          	lw	s0,28(sp)
80000370:	02010113          	addi	sp,sp,32
80000374:	00008067          	ret

80000378 <exception_set_syscall_handler>:
80000378:	fe010113          	addi	sp,sp,-32
8000037c:	00812e23          	sw	s0,28(sp)
80000380:	02010413          	addi	s0,sp,32
80000384:	fea42623          	sw	a0,-20(s0)
80000388:	800177b7          	lui	a5,0x80017
8000038c:	9c078793          	addi	a5,a5,-1600 # 800169c0 <_exception_table>
80000390:	fec42703          	lw	a4,-20(s0)
80000394:	02e7a023          	sw	a4,32(a5)
80000398:	800177b7          	lui	a5,0x80017
8000039c:	9c078793          	addi	a5,a5,-1600 # 800169c0 <_exception_table>
800003a0:	fec42703          	lw	a4,-20(s0)
800003a4:	02e7a223          	sw	a4,36(a5)
800003a8:	800177b7          	lui	a5,0x80017
800003ac:	9c078793          	addi	a5,a5,-1600 # 800169c0 <_exception_table>
800003b0:	fec42703          	lw	a4,-20(s0)
800003b4:	02e7a623          	sw	a4,44(a5)
800003b8:	00000013          	nop
800003bc:	01c12403          	lw	s0,28(sp)
800003c0:	02010113          	addi	sp,sp,32
800003c4:	00008067          	ret

800003c8 <exception_set_handler>:
800003c8:	fe010113          	addi	sp,sp,-32
800003cc:	00812e23          	sw	s0,28(sp)
800003d0:	02010413          	addi	s0,sp,32
800003d4:	fea42623          	sw	a0,-20(s0)
800003d8:	feb42423          	sw	a1,-24(s0)
800003dc:	800177b7          	lui	a5,0x80017
800003e0:	9c078713          	addi	a4,a5,-1600 # 800169c0 <_exception_table>
800003e4:	fec42783          	lw	a5,-20(s0)
800003e8:	00279793          	slli	a5,a5,0x2
800003ec:	00f707b3          	add	a5,a4,a5
800003f0:	fe842703          	lw	a4,-24(s0)
800003f4:	00e7a023          	sw	a4,0(a5)
800003f8:	00000013          	nop
800003fc:	01c12403          	lw	s0,28(sp)
80000400:	02010113          	addi	sp,sp,32
80000404:	00008067          	ret

80000408 <exception_handler>:
80000408:	fd010113          	addi	sp,sp,-48
8000040c:	02112623          	sw	ra,44(sp)
80000410:	02812423          	sw	s0,40(sp)
80000414:	03010413          	addi	s0,sp,48
80000418:	fca42e23          	sw	a0,-36(s0)
8000041c:	eb9ff0ef          	jal	800002d4 <clear_interrupts>
80000420:	fdc42783          	lw	a5,-36(s0)
80000424:	0087a783          	lw	a5,8(a5)
80000428:	0207dc63          	bgez	a5,80000460 <exception_handler+0x58>
8000042c:	800177b7          	lui	a5,0x80017
80000430:	a007a783          	lw	a5,-1536(a5) # 80016a00 <_irq_handler>
80000434:	00078e63          	beqz	a5,80000450 <exception_handler+0x48>
80000438:	800177b7          	lui	a5,0x80017
8000043c:	a007a783          	lw	a5,-1536(a5) # 80016a00 <_irq_handler>
80000440:	fdc42503          	lw	a0,-36(s0)
80000444:	000780e7          	jalr	a5
80000448:	fca42e23          	sw	a0,-36(s0)
8000044c:	1e80006f          	j	80000634 <exception_handler+0x22c>
80000450:	800147b7          	lui	a5,0x80014
80000454:	9ac78513          	addi	a0,a5,-1620 # 800139ac <start+0x110>
80000458:	2ec130ef          	jal	80013744 <kprintf>
8000045c:	1d80006f          	j	80000634 <exception_handler+0x22c>
80000460:	fdc42783          	lw	a5,-36(s0)
80000464:	0087a783          	lw	a5,8(a5)
80000468:	00900713          	li	a4,9
8000046c:	00f76863          	bltu	a4,a5,8000047c <exception_handler+0x74>
80000470:	00800713          	li	a4,8
80000474:	00e7f863          	bgeu	a5,a4,80000484 <exception_handler+0x7c>
80000478:	0240006f          	j	8000049c <exception_handler+0x94>
8000047c:	00b00713          	li	a4,11
80000480:	00e79e63          	bne	a5,a4,8000049c <exception_handler+0x94>
80000484:	fdc42783          	lw	a5,-36(s0)
80000488:	0007a783          	lw	a5,0(a5)
8000048c:	00478713          	addi	a4,a5,4
80000490:	fdc42783          	lw	a5,-36(s0)
80000494:	00e7a023          	sw	a4,0(a5)
80000498:	00000013          	nop
8000049c:	fdc42783          	lw	a5,-36(s0)
800004a0:	0087a703          	lw	a4,8(a5)
800004a4:	00f00793          	li	a5,15
800004a8:	04e7e863          	bltu	a5,a4,800004f8 <exception_handler+0xf0>
800004ac:	fdc42783          	lw	a5,-36(s0)
800004b0:	0087a783          	lw	a5,8(a5)
800004b4:	80017737          	lui	a4,0x80017
800004b8:	9c070713          	addi	a4,a4,-1600 # 800169c0 <_exception_table>
800004bc:	00279793          	slli	a5,a5,0x2
800004c0:	00f707b3          	add	a5,a4,a5
800004c4:	0007a783          	lw	a5,0(a5)
800004c8:	02078863          	beqz	a5,800004f8 <exception_handler+0xf0>
800004cc:	fdc42783          	lw	a5,-36(s0)
800004d0:	0087a783          	lw	a5,8(a5)
800004d4:	80017737          	lui	a4,0x80017
800004d8:	9c070713          	addi	a4,a4,-1600 # 800169c0 <_exception_table>
800004dc:	00279793          	slli	a5,a5,0x2
800004e0:	00f707b3          	add	a5,a4,a5
800004e4:	0007a783          	lw	a5,0(a5)
800004e8:	fdc42503          	lw	a0,-36(s0)
800004ec:	000780e7          	jalr	a5
800004f0:	fca42e23          	sw	a0,-36(s0)
800004f4:	1400006f          	j	80000634 <exception_handler+0x22c>
800004f8:	fdc42783          	lw	a5,-36(s0)
800004fc:	0087a703          	lw	a4,8(a5)
80000500:	00500793          	li	a5,5
80000504:	02f70a63          	beq	a4,a5,80000538 <exception_handler+0x130>
80000508:	fdc42783          	lw	a5,-36(s0)
8000050c:	0087a703          	lw	a4,8(a5)
80000510:	00700793          	li	a5,7
80000514:	02f70263          	beq	a4,a5,80000538 <exception_handler+0x130>
80000518:	fdc42783          	lw	a5,-36(s0)
8000051c:	0087a703          	lw	a4,8(a5)
80000520:	00400793          	li	a5,4
80000524:	00f70a63          	beq	a4,a5,80000538 <exception_handler+0x130>
80000528:	fdc42783          	lw	a5,-36(s0)
8000052c:	0087a703          	lw	a4,8(a5)
80000530:	00600793          	li	a5,6
80000534:	0cf71a63          	bne	a4,a5,80000608 <exception_handler+0x200>
80000538:	343027f3          	csrr	a5,mtval
8000053c:	fef42623          	sw	a5,-20(s0)
80000540:	fec42783          	lw	a5,-20(s0)
80000544:	fef42423          	sw	a5,-24(s0)
80000548:	fdc42783          	lw	a5,-36(s0)
8000054c:	0087a783          	lw	a5,8(a5)
80000550:	00700713          	li	a4,7
80000554:	0af76463          	bltu	a4,a5,800005fc <exception_handler+0x1f4>
80000558:	00279713          	slli	a4,a5,0x2
8000055c:	800147b7          	lui	a5,0x80014
80000560:	b4078793          	addi	a5,a5,-1216 # 80013b40 <start+0x2a4>
80000564:	00f707b3          	add	a5,a4,a5
80000568:	0007a783          	lw	a5,0(a5)
8000056c:	00078067          	jr	a5
80000570:	fe842583          	lw	a1,-24(s0)
80000574:	800147b7          	lui	a5,0x80014
80000578:	9bc78513          	addi	a0,a5,-1604 # 800139bc <start+0x120>
8000057c:	1c8130ef          	jal	80013744 <kprintf>
80000580:	07c0006f          	j	800005fc <exception_handler+0x1f4>
80000584:	fe842583          	lw	a1,-24(s0)
80000588:	800147b7          	lui	a5,0x80014
8000058c:	9ec78513          	addi	a0,a5,-1556 # 800139ec <start+0x150>
80000590:	1b4130ef          	jal	80013744 <kprintf>
80000594:	0680006f          	j	800005fc <exception_handler+0x1f4>
80000598:	fe842583          	lw	a1,-24(s0)
8000059c:	800147b7          	lui	a5,0x80014
800005a0:	a1c78513          	addi	a0,a5,-1508 # 80013a1c <start+0x180>
800005a4:	1a0130ef          	jal	80013744 <kprintf>
800005a8:	0540006f          	j	800005fc <exception_handler+0x1f4>
800005ac:	fe842583          	lw	a1,-24(s0)
800005b0:	800147b7          	lui	a5,0x80014
800005b4:	a5078513          	addi	a0,a5,-1456 # 80013a50 <start+0x1b4>
800005b8:	18c130ef          	jal	80013744 <kprintf>
800005bc:	0400006f          	j	800005fc <exception_handler+0x1f4>
800005c0:	fe842583          	lw	a1,-24(s0)
800005c4:	800147b7          	lui	a5,0x80014
800005c8:	a8478513          	addi	a0,a5,-1404 # 80013a84 <start+0x1e8>
800005cc:	178130ef          	jal	80013744 <kprintf>
800005d0:	02c0006f          	j	800005fc <exception_handler+0x1f4>
800005d4:	fe842583          	lw	a1,-24(s0)
800005d8:	800147b7          	lui	a5,0x80014
800005dc:	ab078513          	addi	a0,a5,-1360 # 80013ab0 <start+0x214>
800005e0:	164130ef          	jal	80013744 <kprintf>
800005e4:	0180006f          	j	800005fc <exception_handler+0x1f4>
800005e8:	fe842583          	lw	a1,-24(s0)
800005ec:	800147b7          	lui	a5,0x80014
800005f0:	ae478513          	addi	a0,a5,-1308 # 80013ae4 <start+0x248>
800005f4:	150130ef          	jal	80013744 <kprintf>
800005f8:	00000013          	nop
800005fc:	fdc42503          	lw	a0,-36(s0)
80000600:	04c000ef          	jal	8000064c <exception_dump_ctx>
80000604:	0300006f          	j	80000634 <exception_handler+0x22c>
80000608:	fdc42783          	lw	a5,-36(s0)
8000060c:	0007a703          	lw	a4,0(a5)
80000610:	fdc42783          	lw	a5,-36(s0)
80000614:	0087a783          	lw	a5,8(a5)
80000618:	00078613          	mv	a2,a5
8000061c:	00070593          	mv	a1,a4
80000620:	800147b7          	lui	a5,0x80014
80000624:	b1478513          	addi	a0,a5,-1260 # 80013b14 <start+0x278>
80000628:	11c130ef          	jal	80013744 <kprintf>
8000062c:	fdc42503          	lw	a0,-36(s0)
80000630:	01c000ef          	jal	8000064c <exception_dump_ctx>
80000634:	fdc42783          	lw	a5,-36(s0)
80000638:	00078513          	mv	a0,a5
8000063c:	02c12083          	lw	ra,44(sp)
80000640:	02812403          	lw	s0,40(sp)
80000644:	03010113          	addi	sp,sp,48
80000648:	00008067          	ret

8000064c <exception_dump_ctx>:
8000064c:	fd010113          	addi	sp,sp,-48
80000650:	02112623          	sw	ra,44(sp)
80000654:	02812423          	sw	s0,40(sp)
80000658:	03010413          	addi	s0,sp,48
8000065c:	fca42e23          	sw	a0,-36(s0)
80000660:	fdc42783          	lw	a5,-36(s0)
80000664:	0007a703          	lw	a4,0(a5)
80000668:	fdc42783          	lw	a5,-36(s0)
8000066c:	0087a603          	lw	a2,8(a5)
80000670:	fdc42783          	lw	a5,-36(s0)
80000674:	0047a783          	lw	a5,4(a5)
80000678:	00078693          	mv	a3,a5
8000067c:	00070593          	mv	a1,a4
80000680:	800147b7          	lui	a5,0x80014
80000684:	b6078513          	addi	a0,a5,-1184 # 80013b60 <start+0x2c4>
80000688:	0bc130ef          	jal	80013744 <kprintf>
8000068c:	fe042623          	sw	zero,-20(s0)
80000690:	0380006f          	j	800006c8 <exception_dump_ctx+0x7c>
80000694:	fdc42703          	lw	a4,-36(s0)
80000698:	fec42783          	lw	a5,-20(s0)
8000069c:	00279793          	slli	a5,a5,0x2
800006a0:	00f707b3          	add	a5,a4,a5
800006a4:	00c7a783          	lw	a5,12(a5)
800006a8:	00078613          	mv	a2,a5
800006ac:	fec42583          	lw	a1,-20(s0)
800006b0:	800147b7          	lui	a5,0x80014
800006b4:	b8c78513          	addi	a0,a5,-1140 # 80013b8c <start+0x2f0>
800006b8:	08c130ef          	jal	80013744 <kprintf>
800006bc:	fec42783          	lw	a5,-20(s0)
800006c0:	00178793          	addi	a5,a5,1
800006c4:	fef42623          	sw	a5,-20(s0)
800006c8:	fec42703          	lw	a4,-20(s0)
800006cc:	01f00793          	li	a5,31
800006d0:	fce7d2e3          	bge	a5,a4,80000694 <exception_dump_ctx+0x48>
800006d4:	000057b7          	lui	a5,0x5
800006d8:	55578793          	addi	a5,a5,1365 # 5555 <_start-0x7fffaaab>
800006dc:	fef42423          	sw	a5,-24(s0)
800006e0:	fe842783          	lw	a5,-24(s0)
800006e4:	111002b7          	lui	t0,0x11100
800006e8:	00f2a023          	sw	a5,0(t0) # 11100000 <_start-0x6ef00000>
800006ec:	0000006f          	j	800006ec <exception_dump_ctx+0xa0>

800006f0 <context_irq_enable>:
800006f0:	fe010113          	addi	sp,sp,-32
800006f4:	00812e23          	sw	s0,28(sp)
800006f8:	02010413          	addi	s0,sp,32
800006fc:	fea42623          	sw	a0,-20(s0)
80000700:	feb42423          	sw	a1,-24(s0)
80000704:	fec42783          	lw	a5,-20(s0)
80000708:	0047a783          	lw	a5,4(a5)
8000070c:	f7f7f713          	andi	a4,a5,-129
80000710:	fec42783          	lw	a5,-20(s0)
80000714:	00e7a223          	sw	a4,4(a5)
80000718:	fec42783          	lw	a5,-20(s0)
8000071c:	0047a703          	lw	a4,4(a5)
80000720:	fe842783          	lw	a5,-24(s0)
80000724:	00078663          	beqz	a5,80000730 <context_irq_enable+0x40>
80000728:	08000793          	li	a5,128
8000072c:	0080006f          	j	80000734 <context_irq_enable+0x44>
80000730:	00000793          	li	a5,0
80000734:	00e7e733          	or	a4,a5,a4
80000738:	fec42783          	lw	a5,-20(s0)
8000073c:	00e7a223          	sw	a4,4(a5)
80000740:	00000013          	nop
80000744:	01c12403          	lw	s0,28(sp)
80000748:	02010113          	addi	sp,sp,32
8000074c:	00008067          	ret

80000750 <syscall_init>:
80000750:	ff010113          	addi	sp,sp,-16
80000754:	00112623          	sw	ra,12(sp)
80000758:	00812423          	sw	s0,8(sp)
8000075c:	01010413          	addi	s0,sp,16
80000760:	8000e7b7          	lui	a5,0x8000e
80000764:	29078513          	addi	a0,a5,656 # 8000e290 <do_syscall>
80000768:	c11ff0ef          	jal	80000378 <exception_set_syscall_handler>
8000076c:	00000013          	nop
80000770:	00c12083          	lw	ra,12(sp)
80000774:	00812403          	lw	s0,8(sp)
80000778:	01010113          	addi	sp,sp,16
8000077c:	00008067          	ret

80000780 <context_irq_enable>:
80000780:	fe010113          	addi	sp,sp,-32
80000784:	00812e23          	sw	s0,28(sp)
80000788:	02010413          	addi	s0,sp,32
8000078c:	fea42623          	sw	a0,-20(s0)
80000790:	feb42423          	sw	a1,-24(s0)
80000794:	fec42783          	lw	a5,-20(s0)
80000798:	0047a783          	lw	a5,4(a5)
8000079c:	f7f7f713          	andi	a4,a5,-129
800007a0:	fec42783          	lw	a5,-20(s0)
800007a4:	00e7a223          	sw	a4,4(a5)
800007a8:	fec42783          	lw	a5,-20(s0)
800007ac:	0047a703          	lw	a4,4(a5)
800007b0:	fe842783          	lw	a5,-24(s0)
800007b4:	00078663          	beqz	a5,800007c0 <context_irq_enable+0x40>
800007b8:	08000793          	li	a5,128
800007bc:	0080006f          	j	800007c4 <context_irq_enable+0x44>
800007c0:	00000793          	li	a5,0
800007c4:	00e7e733          	or	a4,a5,a4
800007c8:	fec42783          	lw	a5,-20(s0)
800007cc:	00e7a223          	sw	a4,4(a5)
800007d0:	00000013          	nop
800007d4:	01c12403          	lw	s0,28(sp)
800007d8:	02010113          	addi	sp,sp,32
800007dc:	00008067          	ret

800007e0 <timer_diff>:
800007e0:	fe010113          	addi	sp,sp,-32
800007e4:	00812e23          	sw	s0,28(sp)
800007e8:	02010413          	addi	s0,sp,32
800007ec:	fea42623          	sw	a0,-20(s0)
800007f0:	feb42423          	sw	a1,-24(s0)
800007f4:	fec42703          	lw	a4,-20(s0)
800007f8:	fe842783          	lw	a5,-24(s0)
800007fc:	40f707b3          	sub	a5,a4,a5
80000800:	00078513          	mv	a0,a5
80000804:	01c12403          	lw	s0,28(sp)
80000808:	02010113          	addi	sp,sp,32
8000080c:	00008067          	ret

80000810 <init_timer>:
80000810:	fd010113          	addi	sp,sp,-48
80000814:	02812623          	sw	s0,44(sp)
80000818:	03010413          	addi	s0,sp,48
8000081c:	fca42c23          	sw	a0,-40(s0)
80000820:	fcb42e23          	sw	a1,-36(s0)
80000824:	800177b7          	lui	a5,0x80017
80000828:	9a87a783          	lw	a5,-1624(a5) # 800169a8 <mtime>
8000082c:	0007a703          	lw	a4,0(a5)
80000830:	0047a783          	lw	a5,4(a5)
80000834:	fee42423          	sw	a4,-24(s0)
80000838:	fef42623          	sw	a5,-20(s0)
8000083c:	800177b7          	lui	a5,0x80017
80000840:	9a47a803          	lw	a6,-1628(a5) # 800169a4 <mtimecmp>
80000844:	fe842703          	lw	a4,-24(s0)
80000848:	fec42783          	lw	a5,-20(s0)
8000084c:	fd842503          	lw	a0,-40(s0)
80000850:	fdc42583          	lw	a1,-36(s0)
80000854:	00a70633          	add	a2,a4,a0
80000858:	00060893          	mv	a7,a2
8000085c:	00e8b8b3          	sltu	a7,a7,a4
80000860:	00b786b3          	add	a3,a5,a1
80000864:	00d887b3          	add	a5,a7,a3
80000868:	00078693          	mv	a3,a5
8000086c:	00060713          	mv	a4,a2
80000870:	00068793          	mv	a5,a3
80000874:	00e82023          	sw	a4,0(a6)
80000878:	00f82223          	sw	a5,4(a6)
8000087c:	00000013          	nop
80000880:	02c12403          	lw	s0,44(sp)
80000884:	03010113          	addi	sp,sp,48
80000888:	00008067          	ret

8000088c <clkupdate>:
8000088c:	fe010113          	addi	sp,sp,-32
80000890:	00812e23          	sw	s0,28(sp)
80000894:	02010413          	addi	s0,sp,32
80000898:	fea42423          	sw	a0,-24(s0)
8000089c:	feb42623          	sw	a1,-20(s0)
800008a0:	800177b7          	lui	a5,0x80017
800008a4:	9a87a783          	lw	a5,-1624(a5) # 800169a8 <mtime>
800008a8:	0007a703          	lw	a4,0(a5)
800008ac:	0047a783          	lw	a5,4(a5)
800008b0:	800176b7          	lui	a3,0x80017
800008b4:	9a46a803          	lw	a6,-1628(a3) # 800169a4 <mtimecmp>
800008b8:	fe842503          	lw	a0,-24(s0)
800008bc:	fec42583          	lw	a1,-20(s0)
800008c0:	00a70633          	add	a2,a4,a0
800008c4:	00060893          	mv	a7,a2
800008c8:	00e8b8b3          	sltu	a7,a7,a4
800008cc:	00b786b3          	add	a3,a5,a1
800008d0:	00d887b3          	add	a5,a7,a3
800008d4:	00078693          	mv	a3,a5
800008d8:	00060713          	mv	a4,a2
800008dc:	00068793          	mv	a5,a3
800008e0:	00e82023          	sw	a4,0(a6)
800008e4:	00f82223          	sw	a5,4(a6)
800008e8:	00000013          	nop
800008ec:	01c12403          	lw	s0,28(sp)
800008f0:	02010113          	addi	sp,sp,32
800008f4:	00008067          	ret

800008f8 <cpu_timer_get_count>:
800008f8:	fe010113          	addi	sp,sp,-32
800008fc:	00812e23          	sw	s0,28(sp)
80000900:	02010413          	addi	s0,sp,32
80000904:	c01027f3          	rdtime	a5
80000908:	fef42623          	sw	a5,-20(s0)
8000090c:	fec42783          	lw	a5,-20(s0)
80000910:	00078513          	mv	a0,a5
80000914:	01c12403          	lw	s0,28(sp)
80000918:	02010113          	addi	sp,sp,32
8000091c:	00008067          	ret

80000920 <irq_handler>:
80000920:	fd010113          	addi	sp,sp,-48
80000924:	02112623          	sw	ra,44(sp)
80000928:	02812423          	sw	s0,40(sp)
8000092c:	03010413          	addi	s0,sp,48
80000930:	fca42e23          	sw	a0,-36(s0)
80000934:	fdc42783          	lw	a5,-36(s0)
80000938:	0087a703          	lw	a4,8(a5)
8000093c:	000017b7          	lui	a5,0x1
80000940:	fff78793          	addi	a5,a5,-1 # fff <_start-0x7ffff001>
80000944:	00f777b3          	and	a5,a4,a5
80000948:	fef42623          	sw	a5,-20(s0)
8000094c:	fec42703          	lw	a4,-20(s0)
80000950:	00b00793          	li	a5,11
80000954:	02f70863          	beq	a4,a5,80000984 <irq_handler+0x64>
80000958:	fec42703          	lw	a4,-20(s0)
8000095c:	00b00793          	li	a5,11
80000960:	02e7ea63          	bltu	a5,a4,80000994 <irq_handler+0x74>
80000964:	fec42703          	lw	a4,-20(s0)
80000968:	00300793          	li	a5,3
8000096c:	02f70c63          	beq	a4,a5,800009a4 <irq_handler+0x84>
80000970:	fec42703          	lw	a4,-20(s0)
80000974:	00700793          	li	a5,7
80000978:	00f71e63          	bne	a4,a5,80000994 <irq_handler+0x74>
8000097c:	6a9090ef          	jal	8000a824 <clkhandler>
80000980:	0280006f          	j	800009a8 <irq_handler+0x88>
80000984:	800147b7          	lui	a5,0x80014
80000988:	b9c78513          	addi	a0,a5,-1124 # 80013b9c <start+0x300>
8000098c:	5b9120ef          	jal	80013744 <kprintf>
80000990:	0180006f          	j	800009a8 <irq_handler+0x88>
80000994:	800147b7          	lui	a5,0x80014
80000998:	bb478513          	addi	a0,a5,-1100 # 80013bb4 <start+0x318>
8000099c:	5a9120ef          	jal	80013744 <kprintf>
800009a0:	0080006f          	j	800009a8 <irq_handler+0x88>
800009a4:	00000013          	nop
800009a8:	fdc42783          	lw	a5,-36(s0)
800009ac:	00078513          	mv	a0,a5
800009b0:	02c12083          	lw	ra,44(sp)
800009b4:	02812403          	lw	s0,40(sp)
800009b8:	03010113          	addi	sp,sp,48
800009bc:	00008067          	ret

800009c0 <timer_init>:
800009c0:	ff010113          	addi	sp,sp,-16
800009c4:	00112623          	sw	ra,12(sp)
800009c8:	00812423          	sw	s0,8(sp)
800009cc:	01010413          	addi	s0,sp,16
800009d0:	905ff0ef          	jal	800002d4 <clear_interrupts>
800009d4:	8c9ff0ef          	jal	8000029c <enable_interrupt_status>
800009d8:	00700513          	li	a0,7
800009dc:	8cdff0ef          	jal	800002a8 <enable_interrupt>
800009e0:	00300513          	li	a0,3
800009e4:	8c5ff0ef          	jal	800002a8 <enable_interrupt>
800009e8:	00b00513          	li	a0,11
800009ec:	8bdff0ef          	jal	800002a8 <enable_interrupt>
800009f0:	00a00513          	li	a0,10
800009f4:	00000593          	li	a1,0
800009f8:	e19ff0ef          	jal	80000810 <init_timer>
800009fc:	800017b7          	lui	a5,0x80001
80000a00:	92078513          	addi	a0,a5,-1760 # 80000920 <irq_handler>
80000a04:	949ff0ef          	jal	8000034c <exception_set_irq_handler>
80000a08:	00000013          	nop
80000a0c:	00c12083          	lw	ra,12(sp)
80000a10:	00812403          	lw	s0,8(sp)
80000a14:	01010113          	addi	sp,sp,16
80000a18:	00008067          	ret

80000a1c <timer_sleep>:
80000a1c:	fd010113          	addi	sp,sp,-48
80000a20:	02112623          	sw	ra,44(sp)
80000a24:	02812423          	sw	s0,40(sp)
80000a28:	03010413          	addi	s0,sp,48
80000a2c:	fca42e23          	sw	a0,-36(s0)
80000a30:	044000ef          	jal	80000a74 <timer_now>
80000a34:	fea42623          	sw	a0,-20(s0)
80000a38:	00000013          	nop
80000a3c:	038000ef          	jal	80000a74 <timer_now>
80000a40:	00050793          	mv	a5,a0
80000a44:	fec42583          	lw	a1,-20(s0)
80000a48:	00078513          	mv	a0,a5
80000a4c:	d95ff0ef          	jal	800007e0 <timer_diff>
80000a50:	00050713          	mv	a4,a0
80000a54:	fdc42783          	lw	a5,-36(s0)
80000a58:	fef742e3          	blt	a4,a5,80000a3c <timer_sleep+0x20>
80000a5c:	00000013          	nop
80000a60:	00000013          	nop
80000a64:	02c12083          	lw	ra,44(sp)
80000a68:	02812403          	lw	s0,40(sp)
80000a6c:	03010113          	addi	sp,sp,48
80000a70:	00008067          	ret

80000a74 <timer_now>:
80000a74:	ff010113          	addi	sp,sp,-16
80000a78:	00112623          	sw	ra,12(sp)
80000a7c:	00812423          	sw	s0,8(sp)
80000a80:	01010413          	addi	s0,sp,16
80000a84:	e75ff0ef          	jal	800008f8 <cpu_timer_get_count>
80000a88:	00050793          	mv	a5,a0
80000a8c:	00078513          	mv	a0,a5
80000a90:	00c12083          	lw	ra,12(sp)
80000a94:	00812403          	lw	s0,8(sp)
80000a98:	01010113          	addi	sp,sp,16
80000a9c:	00008067          	ret

80000aa0 <timer_set_mtimecmp>:
80000aa0:	fe010113          	addi	sp,sp,-32
80000aa4:	00812e23          	sw	s0,28(sp)
80000aa8:	02010413          	addi	s0,sp,32
80000aac:	fea42623          	sw	a0,-20(s0)
80000ab0:	fec42783          	lw	a5,-20(s0)
80000ab4:	7c079073          	csrw	0x7c0,a5
80000ab8:	00000013          	nop
80000abc:	01c12403          	lw	s0,28(sp)
80000ac0:	02010113          	addi	sp,sp,32
80000ac4:	00008067          	ret

80000ac8 <timer_get_mtime>:
80000ac8:	fe010113          	addi	sp,sp,-32
80000acc:	00812e23          	sw	s0,28(sp)
80000ad0:	02010413          	addi	s0,sp,32
80000ad4:	c00027f3          	rdcycle	a5
80000ad8:	fef42623          	sw	a5,-20(s0)
80000adc:	fec42783          	lw	a5,-20(s0)
80000ae0:	00078513          	mv	a0,a5
80000ae4:	01c12403          	lw	s0,28(sp)
80000ae8:	02010113          	addi	sp,sp,32
80000aec:	00008067          	ret

80000af0 <getSbox>:
80000af0:	fd010113          	addi	sp,sp,-48
80000af4:	02812623          	sw	s0,44(sp)
80000af8:	03010413          	addi	s0,sp,48
80000afc:	00050793          	mv	a5,a0
80000b00:	fcf40fa3          	sb	a5,-33(s0)
80000b04:	fdf44783          	lbu	a5,-33(s0)
80000b08:	0047d793          	srli	a5,a5,0x4
80000b0c:	0ff7f793          	zext.b	a5,a5
80000b10:	fef42623          	sw	a5,-20(s0)
80000b14:	fdf44783          	lbu	a5,-33(s0)
80000b18:	00f7f793          	andi	a5,a5,15
80000b1c:	fef42423          	sw	a5,-24(s0)
80000b20:	800167b7          	lui	a5,0x80016
80000b24:	02878713          	addi	a4,a5,40 # 80016028 <S_box>
80000b28:	fec42783          	lw	a5,-20(s0)
80000b2c:	00479793          	slli	a5,a5,0x4
80000b30:	00f70733          	add	a4,a4,a5
80000b34:	fe842783          	lw	a5,-24(s0)
80000b38:	00f707b3          	add	a5,a4,a5
80000b3c:	0007c783          	lbu	a5,0(a5)
80000b40:	00078513          	mv	a0,a5
80000b44:	02c12403          	lw	s0,44(sp)
80000b48:	03010113          	addi	sp,sp,48
80000b4c:	00008067          	ret

80000b50 <getinvSbox>:
80000b50:	fd010113          	addi	sp,sp,-48
80000b54:	02812623          	sw	s0,44(sp)
80000b58:	03010413          	addi	s0,sp,48
80000b5c:	00050793          	mv	a5,a0
80000b60:	fcf40fa3          	sb	a5,-33(s0)
80000b64:	fdf44783          	lbu	a5,-33(s0)
80000b68:	0047d793          	srli	a5,a5,0x4
80000b6c:	0ff7f793          	zext.b	a5,a5
80000b70:	fef42623          	sw	a5,-20(s0)
80000b74:	fdf44783          	lbu	a5,-33(s0)
80000b78:	00f7f793          	andi	a5,a5,15
80000b7c:	fef42423          	sw	a5,-24(s0)
80000b80:	800167b7          	lui	a5,0x80016
80000b84:	12878713          	addi	a4,a5,296 # 80016128 <invS_box>
80000b88:	fec42783          	lw	a5,-20(s0)
80000b8c:	00479793          	slli	a5,a5,0x4
80000b90:	00f70733          	add	a4,a4,a5
80000b94:	fe842783          	lw	a5,-24(s0)
80000b98:	00f707b3          	add	a5,a4,a5
80000b9c:	0007c783          	lbu	a5,0(a5)
80000ba0:	00078513          	mv	a0,a5
80000ba4:	02c12403          	lw	s0,44(sp)
80000ba8:	03010113          	addi	sp,sp,48
80000bac:	00008067          	ret

80000bb0 <key_schedule128>:
80000bb0:	fd010113          	addi	sp,sp,-48
80000bb4:	02112623          	sw	ra,44(sp)
80000bb8:	02812423          	sw	s0,40(sp)
80000bbc:	02912223          	sw	s1,36(sp)
80000bc0:	03010413          	addi	s0,sp,48
80000bc4:	fca42e23          	sw	a0,-36(s0)
80000bc8:	fe042623          	sw	zero,-20(s0)
80000bcc:	01000793          	li	a5,16
80000bd0:	fef42423          	sw	a5,-24(s0)
80000bd4:	3a40006f          	j	80000f78 <key_schedule128+0x3c8>
80000bd8:	fe842783          	lw	a5,-24(s0)
80000bdc:	41f7d713          	srai	a4,a5,0x1f
80000be0:	00377713          	andi	a4,a4,3
80000be4:	00f707b3          	add	a5,a4,a5
80000be8:	4027d793          	srai	a5,a5,0x2
80000bec:	0037f793          	andi	a5,a5,3
80000bf0:	26079463          	bnez	a5,80000e58 <key_schedule128+0x2a8>
80000bf4:	fe842783          	lw	a5,-24(s0)
80000bf8:	ffc78793          	addi	a5,a5,-4
80000bfc:	00078713          	mv	a4,a5
80000c00:	fdc42783          	lw	a5,-36(s0)
80000c04:	00e787b3          	add	a5,a5,a4
80000c08:	0007c783          	lbu	a5,0(a5)
80000c0c:	fef403a3          	sb	a5,-25(s0)
80000c10:	fe842783          	lw	a5,-24(s0)
80000c14:	ffd78793          	addi	a5,a5,-3
80000c18:	fdc42703          	lw	a4,-36(s0)
80000c1c:	00f70733          	add	a4,a4,a5
80000c20:	fe842783          	lw	a5,-24(s0)
80000c24:	fdc42683          	lw	a3,-36(s0)
80000c28:	00f687b3          	add	a5,a3,a5
80000c2c:	00074703          	lbu	a4,0(a4)
80000c30:	00e78023          	sb	a4,0(a5)
80000c34:	fe842783          	lw	a5,-24(s0)
80000c38:	ffe78793          	addi	a5,a5,-2
80000c3c:	fdc42703          	lw	a4,-36(s0)
80000c40:	00f70733          	add	a4,a4,a5
80000c44:	fe842783          	lw	a5,-24(s0)
80000c48:	00178793          	addi	a5,a5,1
80000c4c:	fdc42683          	lw	a3,-36(s0)
80000c50:	00f687b3          	add	a5,a3,a5
80000c54:	00074703          	lbu	a4,0(a4)
80000c58:	00e78023          	sb	a4,0(a5)
80000c5c:	fe842783          	lw	a5,-24(s0)
80000c60:	fff78793          	addi	a5,a5,-1
80000c64:	fdc42703          	lw	a4,-36(s0)
80000c68:	00f70733          	add	a4,a4,a5
80000c6c:	fe842783          	lw	a5,-24(s0)
80000c70:	00278793          	addi	a5,a5,2
80000c74:	fdc42683          	lw	a3,-36(s0)
80000c78:	00f687b3          	add	a5,a3,a5
80000c7c:	00074703          	lbu	a4,0(a4)
80000c80:	00e78023          	sb	a4,0(a5)
80000c84:	fe842783          	lw	a5,-24(s0)
80000c88:	00378793          	addi	a5,a5,3
80000c8c:	fdc42703          	lw	a4,-36(s0)
80000c90:	00f707b3          	add	a5,a4,a5
80000c94:	fe744703          	lbu	a4,-25(s0)
80000c98:	00e78023          	sb	a4,0(a5)
80000c9c:	fe842783          	lw	a5,-24(s0)
80000ca0:	ff078793          	addi	a5,a5,-16
80000ca4:	00078713          	mv	a4,a5
80000ca8:	fdc42783          	lw	a5,-36(s0)
80000cac:	00e787b3          	add	a5,a5,a4
80000cb0:	0007c483          	lbu	s1,0(a5)
80000cb4:	fe842783          	lw	a5,-24(s0)
80000cb8:	fdc42703          	lw	a4,-36(s0)
80000cbc:	00f707b3          	add	a5,a4,a5
80000cc0:	0007c783          	lbu	a5,0(a5)
80000cc4:	00078513          	mv	a0,a5
80000cc8:	e29ff0ef          	jal	80000af0 <getSbox>
80000ccc:	00050793          	mv	a5,a0
80000cd0:	00f4c7b3          	xor	a5,s1,a5
80000cd4:	0ff7f693          	zext.b	a3,a5
80000cd8:	800167b7          	lui	a5,0x80016
80000cdc:	22878713          	addi	a4,a5,552 # 80016228 <Rcon>
80000ce0:	fec42783          	lw	a5,-20(s0)
80000ce4:	00f707b3          	add	a5,a4,a5
80000ce8:	0007c703          	lbu	a4,0(a5)
80000cec:	fe842783          	lw	a5,-24(s0)
80000cf0:	fdc42603          	lw	a2,-36(s0)
80000cf4:	00f607b3          	add	a5,a2,a5
80000cf8:	00e6c733          	xor	a4,a3,a4
80000cfc:	0ff77713          	zext.b	a4,a4
80000d00:	00e78023          	sb	a4,0(a5)
80000d04:	fe842783          	lw	a5,-24(s0)
80000d08:	ff178793          	addi	a5,a5,-15
80000d0c:	fdc42703          	lw	a4,-36(s0)
80000d10:	00f707b3          	add	a5,a4,a5
80000d14:	0007c483          	lbu	s1,0(a5)
80000d18:	fe842783          	lw	a5,-24(s0)
80000d1c:	00178793          	addi	a5,a5,1
80000d20:	fdc42703          	lw	a4,-36(s0)
80000d24:	00f707b3          	add	a5,a4,a5
80000d28:	0007c783          	lbu	a5,0(a5)
80000d2c:	00078513          	mv	a0,a5
80000d30:	dc1ff0ef          	jal	80000af0 <getSbox>
80000d34:	00050793          	mv	a5,a0
80000d38:	00f4c7b3          	xor	a5,s1,a5
80000d3c:	0ff7f693          	zext.b	a3,a5
80000d40:	800167b7          	lui	a5,0x80016
80000d44:	22878713          	addi	a4,a5,552 # 80016228 <Rcon>
80000d48:	fec42783          	lw	a5,-20(s0)
80000d4c:	00f707b3          	add	a5,a4,a5
80000d50:	00a7c703          	lbu	a4,10(a5)
80000d54:	fe842783          	lw	a5,-24(s0)
80000d58:	00178793          	addi	a5,a5,1
80000d5c:	fdc42603          	lw	a2,-36(s0)
80000d60:	00f607b3          	add	a5,a2,a5
80000d64:	00e6c733          	xor	a4,a3,a4
80000d68:	0ff77713          	zext.b	a4,a4
80000d6c:	00e78023          	sb	a4,0(a5)
80000d70:	fe842783          	lw	a5,-24(s0)
80000d74:	ff278793          	addi	a5,a5,-14
80000d78:	fdc42703          	lw	a4,-36(s0)
80000d7c:	00f707b3          	add	a5,a4,a5
80000d80:	0007c483          	lbu	s1,0(a5)
80000d84:	fe842783          	lw	a5,-24(s0)
80000d88:	00278793          	addi	a5,a5,2
80000d8c:	fdc42703          	lw	a4,-36(s0)
80000d90:	00f707b3          	add	a5,a4,a5
80000d94:	0007c783          	lbu	a5,0(a5)
80000d98:	00078513          	mv	a0,a5
80000d9c:	d55ff0ef          	jal	80000af0 <getSbox>
80000da0:	00050793          	mv	a5,a0
80000da4:	00f4c7b3          	xor	a5,s1,a5
80000da8:	0ff7f693          	zext.b	a3,a5
80000dac:	800167b7          	lui	a5,0x80016
80000db0:	22878713          	addi	a4,a5,552 # 80016228 <Rcon>
80000db4:	fec42783          	lw	a5,-20(s0)
80000db8:	00f707b3          	add	a5,a4,a5
80000dbc:	0147c703          	lbu	a4,20(a5)
80000dc0:	fe842783          	lw	a5,-24(s0)
80000dc4:	00278793          	addi	a5,a5,2
80000dc8:	fdc42603          	lw	a2,-36(s0)
80000dcc:	00f607b3          	add	a5,a2,a5
80000dd0:	00e6c733          	xor	a4,a3,a4
80000dd4:	0ff77713          	zext.b	a4,a4
80000dd8:	00e78023          	sb	a4,0(a5)
80000ddc:	fe842783          	lw	a5,-24(s0)
80000de0:	ff378793          	addi	a5,a5,-13
80000de4:	fdc42703          	lw	a4,-36(s0)
80000de8:	00f707b3          	add	a5,a4,a5
80000dec:	0007c483          	lbu	s1,0(a5)
80000df0:	fe842783          	lw	a5,-24(s0)
80000df4:	00378793          	addi	a5,a5,3
80000df8:	fdc42703          	lw	a4,-36(s0)
80000dfc:	00f707b3          	add	a5,a4,a5
80000e00:	0007c783          	lbu	a5,0(a5)
80000e04:	00078513          	mv	a0,a5
80000e08:	ce9ff0ef          	jal	80000af0 <getSbox>
80000e0c:	00050793          	mv	a5,a0
80000e10:	00f4c7b3          	xor	a5,s1,a5
80000e14:	0ff7f693          	zext.b	a3,a5
80000e18:	800167b7          	lui	a5,0x80016
80000e1c:	22878713          	addi	a4,a5,552 # 80016228 <Rcon>
80000e20:	fec42783          	lw	a5,-20(s0)
80000e24:	00f707b3          	add	a5,a4,a5
80000e28:	01e7c703          	lbu	a4,30(a5)
80000e2c:	fe842783          	lw	a5,-24(s0)
80000e30:	00378793          	addi	a5,a5,3
80000e34:	fdc42603          	lw	a2,-36(s0)
80000e38:	00f607b3          	add	a5,a2,a5
80000e3c:	00e6c733          	xor	a4,a3,a4
80000e40:	0ff77713          	zext.b	a4,a4
80000e44:	00e78023          	sb	a4,0(a5)
80000e48:	fec42783          	lw	a5,-20(s0)
80000e4c:	00178793          	addi	a5,a5,1
80000e50:	fef42623          	sw	a5,-20(s0)
80000e54:	1180006f          	j	80000f6c <key_schedule128+0x3bc>
80000e58:	fe842783          	lw	a5,-24(s0)
80000e5c:	ffc78793          	addi	a5,a5,-4
80000e60:	00078713          	mv	a4,a5
80000e64:	fdc42783          	lw	a5,-36(s0)
80000e68:	00e787b3          	add	a5,a5,a4
80000e6c:	0007c683          	lbu	a3,0(a5)
80000e70:	fe842783          	lw	a5,-24(s0)
80000e74:	ff078793          	addi	a5,a5,-16
80000e78:	00078713          	mv	a4,a5
80000e7c:	fdc42783          	lw	a5,-36(s0)
80000e80:	00e787b3          	add	a5,a5,a4
80000e84:	0007c703          	lbu	a4,0(a5)
80000e88:	fe842783          	lw	a5,-24(s0)
80000e8c:	fdc42603          	lw	a2,-36(s0)
80000e90:	00f607b3          	add	a5,a2,a5
80000e94:	00e6c733          	xor	a4,a3,a4
80000e98:	0ff77713          	zext.b	a4,a4
80000e9c:	00e78023          	sb	a4,0(a5)
80000ea0:	fe842783          	lw	a5,-24(s0)
80000ea4:	ffd78793          	addi	a5,a5,-3
80000ea8:	fdc42703          	lw	a4,-36(s0)
80000eac:	00f707b3          	add	a5,a4,a5
80000eb0:	0007c683          	lbu	a3,0(a5)
80000eb4:	fe842783          	lw	a5,-24(s0)
80000eb8:	ff178793          	addi	a5,a5,-15
80000ebc:	fdc42703          	lw	a4,-36(s0)
80000ec0:	00f707b3          	add	a5,a4,a5
80000ec4:	0007c703          	lbu	a4,0(a5)
80000ec8:	fe842783          	lw	a5,-24(s0)
80000ecc:	00178793          	addi	a5,a5,1
80000ed0:	fdc42603          	lw	a2,-36(s0)
80000ed4:	00f607b3          	add	a5,a2,a5
80000ed8:	00e6c733          	xor	a4,a3,a4
80000edc:	0ff77713          	zext.b	a4,a4
80000ee0:	00e78023          	sb	a4,0(a5)
80000ee4:	fe842783          	lw	a5,-24(s0)
80000ee8:	ffe78793          	addi	a5,a5,-2
80000eec:	fdc42703          	lw	a4,-36(s0)
80000ef0:	00f707b3          	add	a5,a4,a5
80000ef4:	0007c683          	lbu	a3,0(a5)
80000ef8:	fe842783          	lw	a5,-24(s0)
80000efc:	ff278793          	addi	a5,a5,-14
80000f00:	fdc42703          	lw	a4,-36(s0)
80000f04:	00f707b3          	add	a5,a4,a5
80000f08:	0007c703          	lbu	a4,0(a5)
80000f0c:	fe842783          	lw	a5,-24(s0)
80000f10:	00278793          	addi	a5,a5,2
80000f14:	fdc42603          	lw	a2,-36(s0)
80000f18:	00f607b3          	add	a5,a2,a5
80000f1c:	00e6c733          	xor	a4,a3,a4
80000f20:	0ff77713          	zext.b	a4,a4
80000f24:	00e78023          	sb	a4,0(a5)
80000f28:	fe842783          	lw	a5,-24(s0)
80000f2c:	fff78793          	addi	a5,a5,-1
80000f30:	fdc42703          	lw	a4,-36(s0)
80000f34:	00f707b3          	add	a5,a4,a5
80000f38:	0007c683          	lbu	a3,0(a5)
80000f3c:	fe842783          	lw	a5,-24(s0)
80000f40:	ff378793          	addi	a5,a5,-13
80000f44:	fdc42703          	lw	a4,-36(s0)
80000f48:	00f707b3          	add	a5,a4,a5
80000f4c:	0007c703          	lbu	a4,0(a5)
80000f50:	fe842783          	lw	a5,-24(s0)
80000f54:	00378793          	addi	a5,a5,3
80000f58:	fdc42603          	lw	a2,-36(s0)
80000f5c:	00f607b3          	add	a5,a2,a5
80000f60:	00e6c733          	xor	a4,a3,a4
80000f64:	0ff77713          	zext.b	a4,a4
80000f68:	00e78023          	sb	a4,0(a5)
80000f6c:	fe842783          	lw	a5,-24(s0)
80000f70:	00478793          	addi	a5,a5,4
80000f74:	fef42423          	sw	a5,-24(s0)
80000f78:	fe842703          	lw	a4,-24(s0)
80000f7c:	0af00793          	li	a5,175
80000f80:	c4e7dce3          	bge	a5,a4,80000bd8 <key_schedule128+0x28>
80000f84:	00000013          	nop
80000f88:	00000013          	nop
80000f8c:	02c12083          	lw	ra,44(sp)
80000f90:	02812403          	lw	s0,40(sp)
80000f94:	02412483          	lw	s1,36(sp)
80000f98:	03010113          	addi	sp,sp,48
80000f9c:	00008067          	ret

80000fa0 <key_schedule256>:
80000fa0:	fc010113          	addi	sp,sp,-64
80000fa4:	02112e23          	sw	ra,60(sp)
80000fa8:	02812c23          	sw	s0,56(sp)
80000fac:	02912a23          	sw	s1,52(sp)
80000fb0:	04010413          	addi	s0,sp,64
80000fb4:	fca42623          	sw	a0,-52(s0)
80000fb8:	040207b7          	lui	a5,0x4020
80000fbc:	10078793          	addi	a5,a5,256 # 4020100 <_start-0x7bfdff00>
80000fc0:	fcf42e23          	sw	a5,-36(s0)
80000fc4:	402017b7          	lui	a5,0x40201
80000fc8:	00878793          	addi	a5,a5,8 # 40201008 <_start-0x3fdfeff8>
80000fcc:	fef42023          	sw	a5,-32(s0)
80000fd0:	003627b7          	lui	a5,0x362
80000fd4:	b8078793          	addi	a5,a5,-1152 # 361b80 <_start-0x7fc9e480>
80000fd8:	fef42223          	sw	a5,-28(s0)
80000fdc:	02000793          	li	a5,32
80000fe0:	fef42623          	sw	a5,-20(s0)
80000fe4:	4880006f          	j	8000146c <key_schedule256+0x4cc>
80000fe8:	fec42783          	lw	a5,-20(s0)
80000fec:	ffc78793          	addi	a5,a5,-4
80000ff0:	00078713          	mv	a4,a5
80000ff4:	fcc42783          	lw	a5,-52(s0)
80000ff8:	00e78733          	add	a4,a5,a4
80000ffc:	fec42783          	lw	a5,-20(s0)
80001000:	fcc42683          	lw	a3,-52(s0)
80001004:	00f687b3          	add	a5,a3,a5
80001008:	00074703          	lbu	a4,0(a4)
8000100c:	00e78023          	sb	a4,0(a5)
80001010:	fec42783          	lw	a5,-20(s0)
80001014:	ffd78793          	addi	a5,a5,-3
80001018:	fcc42703          	lw	a4,-52(s0)
8000101c:	00f70733          	add	a4,a4,a5
80001020:	fec42783          	lw	a5,-20(s0)
80001024:	00178793          	addi	a5,a5,1
80001028:	fcc42683          	lw	a3,-52(s0)
8000102c:	00f687b3          	add	a5,a3,a5
80001030:	00074703          	lbu	a4,0(a4)
80001034:	00e78023          	sb	a4,0(a5)
80001038:	fec42783          	lw	a5,-20(s0)
8000103c:	ffe78793          	addi	a5,a5,-2
80001040:	fcc42703          	lw	a4,-52(s0)
80001044:	00f70733          	add	a4,a4,a5
80001048:	fec42783          	lw	a5,-20(s0)
8000104c:	00278793          	addi	a5,a5,2
80001050:	fcc42683          	lw	a3,-52(s0)
80001054:	00f687b3          	add	a5,a3,a5
80001058:	00074703          	lbu	a4,0(a4)
8000105c:	00e78023          	sb	a4,0(a5)
80001060:	fec42783          	lw	a5,-20(s0)
80001064:	fff78793          	addi	a5,a5,-1
80001068:	fcc42703          	lw	a4,-52(s0)
8000106c:	00f70733          	add	a4,a4,a5
80001070:	fec42783          	lw	a5,-20(s0)
80001074:	00378793          	addi	a5,a5,3
80001078:	fcc42683          	lw	a3,-52(s0)
8000107c:	00f687b3          	add	a5,a3,a5
80001080:	00074703          	lbu	a4,0(a4)
80001084:	00e78023          	sb	a4,0(a5)
80001088:	fec42783          	lw	a5,-20(s0)
8000108c:	41f7d713          	srai	a4,a5,0x1f
80001090:	00377713          	andi	a4,a4,3
80001094:	00f707b3          	add	a5,a4,a5
80001098:	4027d793          	srai	a5,a5,0x2
8000109c:	0077f793          	andi	a5,a5,7
800010a0:	1a079a63          	bnez	a5,80001254 <key_schedule256+0x2b4>
800010a4:	fec42783          	lw	a5,-20(s0)
800010a8:	fcc42703          	lw	a4,-52(s0)
800010ac:	00f707b3          	add	a5,a4,a5
800010b0:	0007c783          	lbu	a5,0(a5)
800010b4:	fef405a3          	sb	a5,-21(s0)
800010b8:	fec42783          	lw	a5,-20(s0)
800010bc:	00178793          	addi	a5,a5,1
800010c0:	fcc42703          	lw	a4,-52(s0)
800010c4:	00f70733          	add	a4,a4,a5
800010c8:	fec42783          	lw	a5,-20(s0)
800010cc:	fcc42683          	lw	a3,-52(s0)
800010d0:	00f687b3          	add	a5,a3,a5
800010d4:	00074703          	lbu	a4,0(a4)
800010d8:	00e78023          	sb	a4,0(a5)
800010dc:	fec42783          	lw	a5,-20(s0)
800010e0:	00278793          	addi	a5,a5,2
800010e4:	fcc42703          	lw	a4,-52(s0)
800010e8:	00f70733          	add	a4,a4,a5
800010ec:	fec42783          	lw	a5,-20(s0)
800010f0:	00178793          	addi	a5,a5,1
800010f4:	fcc42683          	lw	a3,-52(s0)
800010f8:	00f687b3          	add	a5,a3,a5
800010fc:	00074703          	lbu	a4,0(a4)
80001100:	00e78023          	sb	a4,0(a5)
80001104:	fec42783          	lw	a5,-20(s0)
80001108:	00378793          	addi	a5,a5,3
8000110c:	fcc42703          	lw	a4,-52(s0)
80001110:	00f70733          	add	a4,a4,a5
80001114:	fec42783          	lw	a5,-20(s0)
80001118:	00278793          	addi	a5,a5,2
8000111c:	fcc42683          	lw	a3,-52(s0)
80001120:	00f687b3          	add	a5,a3,a5
80001124:	00074703          	lbu	a4,0(a4)
80001128:	00e78023          	sb	a4,0(a5)
8000112c:	fec42783          	lw	a5,-20(s0)
80001130:	00378793          	addi	a5,a5,3
80001134:	fcc42703          	lw	a4,-52(s0)
80001138:	00f707b3          	add	a5,a4,a5
8000113c:	feb44703          	lbu	a4,-21(s0)
80001140:	00e78023          	sb	a4,0(a5)
80001144:	fec42783          	lw	a5,-20(s0)
80001148:	fcc42703          	lw	a4,-52(s0)
8000114c:	00f707b3          	add	a5,a4,a5
80001150:	0007c683          	lbu	a3,0(a5)
80001154:	fec42783          	lw	a5,-20(s0)
80001158:	fcc42703          	lw	a4,-52(s0)
8000115c:	00f704b3          	add	s1,a4,a5
80001160:	00068513          	mv	a0,a3
80001164:	98dff0ef          	jal	80000af0 <getSbox>
80001168:	00050793          	mv	a5,a0
8000116c:	00f48023          	sb	a5,0(s1)
80001170:	fec42783          	lw	a5,-20(s0)
80001174:	00178793          	addi	a5,a5,1
80001178:	fcc42703          	lw	a4,-52(s0)
8000117c:	00f707b3          	add	a5,a4,a5
80001180:	0007c683          	lbu	a3,0(a5)
80001184:	fec42783          	lw	a5,-20(s0)
80001188:	00178793          	addi	a5,a5,1
8000118c:	fcc42703          	lw	a4,-52(s0)
80001190:	00f704b3          	add	s1,a4,a5
80001194:	00068513          	mv	a0,a3
80001198:	959ff0ef          	jal	80000af0 <getSbox>
8000119c:	00050793          	mv	a5,a0
800011a0:	00f48023          	sb	a5,0(s1)
800011a4:	fec42783          	lw	a5,-20(s0)
800011a8:	00278793          	addi	a5,a5,2
800011ac:	fcc42703          	lw	a4,-52(s0)
800011b0:	00f707b3          	add	a5,a4,a5
800011b4:	0007c683          	lbu	a3,0(a5)
800011b8:	fec42783          	lw	a5,-20(s0)
800011bc:	00278793          	addi	a5,a5,2
800011c0:	fcc42703          	lw	a4,-52(s0)
800011c4:	00f704b3          	add	s1,a4,a5
800011c8:	00068513          	mv	a0,a3
800011cc:	925ff0ef          	jal	80000af0 <getSbox>
800011d0:	00050793          	mv	a5,a0
800011d4:	00f48023          	sb	a5,0(s1)
800011d8:	fec42783          	lw	a5,-20(s0)
800011dc:	00378793          	addi	a5,a5,3
800011e0:	fcc42703          	lw	a4,-52(s0)
800011e4:	00f707b3          	add	a5,a4,a5
800011e8:	0007c683          	lbu	a3,0(a5)
800011ec:	fec42783          	lw	a5,-20(s0)
800011f0:	00378793          	addi	a5,a5,3
800011f4:	fcc42703          	lw	a4,-52(s0)
800011f8:	00f704b3          	add	s1,a4,a5
800011fc:	00068513          	mv	a0,a3
80001200:	8f1ff0ef          	jal	80000af0 <getSbox>
80001204:	00050793          	mv	a5,a0
80001208:	00f48023          	sb	a5,0(s1)
8000120c:	fec42783          	lw	a5,-20(s0)
80001210:	fcc42703          	lw	a4,-52(s0)
80001214:	00f707b3          	add	a5,a4,a5
80001218:	0007c683          	lbu	a3,0(a5)
8000121c:	fec42783          	lw	a5,-20(s0)
80001220:	41f7d713          	srai	a4,a5,0x1f
80001224:	01f77713          	andi	a4,a4,31
80001228:	00f707b3          	add	a5,a4,a5
8000122c:	4057d793          	srai	a5,a5,0x5
80001230:	ff078793          	addi	a5,a5,-16
80001234:	008787b3          	add	a5,a5,s0
80001238:	fec7c703          	lbu	a4,-20(a5)
8000123c:	fec42783          	lw	a5,-20(s0)
80001240:	fcc42603          	lw	a2,-52(s0)
80001244:	00f607b3          	add	a5,a2,a5
80001248:	00e6c733          	xor	a4,a3,a4
8000124c:	0ff77713          	zext.b	a4,a4
80001250:	00e78023          	sb	a4,0(a5)
80001254:	fec42783          	lw	a5,-20(s0)
80001258:	41f7d713          	srai	a4,a5,0x1f
8000125c:	00377713          	andi	a4,a4,3
80001260:	00f707b3          	add	a5,a4,a5
80001264:	4027d793          	srai	a5,a5,0x2
80001268:	00078713          	mv	a4,a5
8000126c:	41f75793          	srai	a5,a4,0x1f
80001270:	01d7d793          	srli	a5,a5,0x1d
80001274:	00f70733          	add	a4,a4,a5
80001278:	00777713          	andi	a4,a4,7
8000127c:	40f707b3          	sub	a5,a4,a5
80001280:	00078713          	mv	a4,a5
80001284:	00400793          	li	a5,4
80001288:	0cf71663          	bne	a4,a5,80001354 <key_schedule256+0x3b4>
8000128c:	fec42783          	lw	a5,-20(s0)
80001290:	fcc42703          	lw	a4,-52(s0)
80001294:	00f707b3          	add	a5,a4,a5
80001298:	0007c683          	lbu	a3,0(a5)
8000129c:	fec42783          	lw	a5,-20(s0)
800012a0:	fcc42703          	lw	a4,-52(s0)
800012a4:	00f704b3          	add	s1,a4,a5
800012a8:	00068513          	mv	a0,a3
800012ac:	845ff0ef          	jal	80000af0 <getSbox>
800012b0:	00050793          	mv	a5,a0
800012b4:	00f48023          	sb	a5,0(s1)
800012b8:	fec42783          	lw	a5,-20(s0)
800012bc:	00178793          	addi	a5,a5,1
800012c0:	fcc42703          	lw	a4,-52(s0)
800012c4:	00f707b3          	add	a5,a4,a5
800012c8:	0007c683          	lbu	a3,0(a5)
800012cc:	fec42783          	lw	a5,-20(s0)
800012d0:	00178793          	addi	a5,a5,1
800012d4:	fcc42703          	lw	a4,-52(s0)
800012d8:	00f704b3          	add	s1,a4,a5
800012dc:	00068513          	mv	a0,a3
800012e0:	811ff0ef          	jal	80000af0 <getSbox>
800012e4:	00050793          	mv	a5,a0
800012e8:	00f48023          	sb	a5,0(s1)
800012ec:	fec42783          	lw	a5,-20(s0)
800012f0:	00278793          	addi	a5,a5,2
800012f4:	fcc42703          	lw	a4,-52(s0)
800012f8:	00f707b3          	add	a5,a4,a5
800012fc:	0007c683          	lbu	a3,0(a5)
80001300:	fec42783          	lw	a5,-20(s0)
80001304:	00278793          	addi	a5,a5,2
80001308:	fcc42703          	lw	a4,-52(s0)
8000130c:	00f704b3          	add	s1,a4,a5
80001310:	00068513          	mv	a0,a3
80001314:	fdcff0ef          	jal	80000af0 <getSbox>
80001318:	00050793          	mv	a5,a0
8000131c:	00f48023          	sb	a5,0(s1)
80001320:	fec42783          	lw	a5,-20(s0)
80001324:	00378793          	addi	a5,a5,3
80001328:	fcc42703          	lw	a4,-52(s0)
8000132c:	00f707b3          	add	a5,a4,a5
80001330:	0007c683          	lbu	a3,0(a5)
80001334:	fec42783          	lw	a5,-20(s0)
80001338:	00378793          	addi	a5,a5,3
8000133c:	fcc42703          	lw	a4,-52(s0)
80001340:	00f704b3          	add	s1,a4,a5
80001344:	00068513          	mv	a0,a3
80001348:	fa8ff0ef          	jal	80000af0 <getSbox>
8000134c:	00050793          	mv	a5,a0
80001350:	00f48023          	sb	a5,0(s1)
80001354:	fec42783          	lw	a5,-20(s0)
80001358:	fcc42703          	lw	a4,-52(s0)
8000135c:	00f707b3          	add	a5,a4,a5
80001360:	0007c683          	lbu	a3,0(a5)
80001364:	fec42783          	lw	a5,-20(s0)
80001368:	fe078793          	addi	a5,a5,-32
8000136c:	00078713          	mv	a4,a5
80001370:	fcc42783          	lw	a5,-52(s0)
80001374:	00e787b3          	add	a5,a5,a4
80001378:	0007c703          	lbu	a4,0(a5)
8000137c:	fec42783          	lw	a5,-20(s0)
80001380:	fcc42603          	lw	a2,-52(s0)
80001384:	00f607b3          	add	a5,a2,a5
80001388:	00e6c733          	xor	a4,a3,a4
8000138c:	0ff77713          	zext.b	a4,a4
80001390:	00e78023          	sb	a4,0(a5)
80001394:	fec42783          	lw	a5,-20(s0)
80001398:	00178793          	addi	a5,a5,1
8000139c:	fcc42703          	lw	a4,-52(s0)
800013a0:	00f707b3          	add	a5,a4,a5
800013a4:	0007c683          	lbu	a3,0(a5)
800013a8:	fec42783          	lw	a5,-20(s0)
800013ac:	fe178793          	addi	a5,a5,-31
800013b0:	fcc42703          	lw	a4,-52(s0)
800013b4:	00f707b3          	add	a5,a4,a5
800013b8:	0007c703          	lbu	a4,0(a5)
800013bc:	fec42783          	lw	a5,-20(s0)
800013c0:	00178793          	addi	a5,a5,1
800013c4:	fcc42603          	lw	a2,-52(s0)
800013c8:	00f607b3          	add	a5,a2,a5
800013cc:	00e6c733          	xor	a4,a3,a4
800013d0:	0ff77713          	zext.b	a4,a4
800013d4:	00e78023          	sb	a4,0(a5)
800013d8:	fec42783          	lw	a5,-20(s0)
800013dc:	00278793          	addi	a5,a5,2
800013e0:	fcc42703          	lw	a4,-52(s0)
800013e4:	00f707b3          	add	a5,a4,a5
800013e8:	0007c683          	lbu	a3,0(a5)
800013ec:	fec42783          	lw	a5,-20(s0)
800013f0:	fe278793          	addi	a5,a5,-30
800013f4:	fcc42703          	lw	a4,-52(s0)
800013f8:	00f707b3          	add	a5,a4,a5
800013fc:	0007c703          	lbu	a4,0(a5)
80001400:	fec42783          	lw	a5,-20(s0)
80001404:	00278793          	addi	a5,a5,2
80001408:	fcc42603          	lw	a2,-52(s0)
8000140c:	00f607b3          	add	a5,a2,a5
80001410:	00e6c733          	xor	a4,a3,a4
80001414:	0ff77713          	zext.b	a4,a4
80001418:	00e78023          	sb	a4,0(a5)
8000141c:	fec42783          	lw	a5,-20(s0)
80001420:	00378793          	addi	a5,a5,3
80001424:	fcc42703          	lw	a4,-52(s0)
80001428:	00f707b3          	add	a5,a4,a5
8000142c:	0007c683          	lbu	a3,0(a5)
80001430:	fec42783          	lw	a5,-20(s0)
80001434:	fe378793          	addi	a5,a5,-29
80001438:	fcc42703          	lw	a4,-52(s0)
8000143c:	00f707b3          	add	a5,a4,a5
80001440:	0007c703          	lbu	a4,0(a5)
80001444:	fec42783          	lw	a5,-20(s0)
80001448:	00378793          	addi	a5,a5,3
8000144c:	fcc42603          	lw	a2,-52(s0)
80001450:	00f607b3          	add	a5,a2,a5
80001454:	00e6c733          	xor	a4,a3,a4
80001458:	0ff77713          	zext.b	a4,a4
8000145c:	00e78023          	sb	a4,0(a5)
80001460:	fec42783          	lw	a5,-20(s0)
80001464:	00478793          	addi	a5,a5,4
80001468:	fef42623          	sw	a5,-20(s0)
8000146c:	fec42703          	lw	a4,-20(s0)
80001470:	0ef00793          	li	a5,239
80001474:	b6e7dae3          	bge	a5,a4,80000fe8 <key_schedule256+0x48>
80001478:	00000013          	nop
8000147c:	00000013          	nop
80001480:	03c12083          	lw	ra,60(sp)
80001484:	03812403          	lw	s0,56(sp)
80001488:	03412483          	lw	s1,52(sp)
8000148c:	04010113          	addi	sp,sp,64
80001490:	00008067          	ret

80001494 <add_round_key>:
80001494:	fd010113          	addi	sp,sp,-48
80001498:	02812623          	sw	s0,44(sp)
8000149c:	03010413          	addi	s0,sp,48
800014a0:	fca42e23          	sw	a0,-36(s0)
800014a4:	fcb42c23          	sw	a1,-40(s0)
800014a8:	fe042623          	sw	zero,-20(s0)
800014ac:	0480006f          	j	800014f4 <add_round_key+0x60>
800014b0:	fec42783          	lw	a5,-20(s0)
800014b4:	fdc42703          	lw	a4,-36(s0)
800014b8:	00f707b3          	add	a5,a4,a5
800014bc:	0007c683          	lbu	a3,0(a5)
800014c0:	fec42783          	lw	a5,-20(s0)
800014c4:	fd842703          	lw	a4,-40(s0)
800014c8:	00f707b3          	add	a5,a4,a5
800014cc:	0007c703          	lbu	a4,0(a5)
800014d0:	fec42783          	lw	a5,-20(s0)
800014d4:	fdc42603          	lw	a2,-36(s0)
800014d8:	00f607b3          	add	a5,a2,a5
800014dc:	00e6c733          	xor	a4,a3,a4
800014e0:	0ff77713          	zext.b	a4,a4
800014e4:	00e78023          	sb	a4,0(a5)
800014e8:	fec42783          	lw	a5,-20(s0)
800014ec:	00178793          	addi	a5,a5,1
800014f0:	fef42623          	sw	a5,-20(s0)
800014f4:	fec42703          	lw	a4,-20(s0)
800014f8:	00f00793          	li	a5,15
800014fc:	fae7dae3          	bge	a5,a4,800014b0 <add_round_key+0x1c>
80001500:	00000013          	nop
80001504:	00000013          	nop
80001508:	02c12403          	lw	s0,44(sp)
8000150c:	03010113          	addi	sp,sp,48
80001510:	00008067          	ret

80001514 <byte_sub>:
80001514:	fd010113          	addi	sp,sp,-48
80001518:	02112623          	sw	ra,44(sp)
8000151c:	02812423          	sw	s0,40(sp)
80001520:	02912223          	sw	s1,36(sp)
80001524:	03010413          	addi	s0,sp,48
80001528:	fca42e23          	sw	a0,-36(s0)
8000152c:	fe042623          	sw	zero,-20(s0)
80001530:	03c0006f          	j	8000156c <byte_sub+0x58>
80001534:	fec42783          	lw	a5,-20(s0)
80001538:	fdc42703          	lw	a4,-36(s0)
8000153c:	00f707b3          	add	a5,a4,a5
80001540:	0007c683          	lbu	a3,0(a5)
80001544:	fec42783          	lw	a5,-20(s0)
80001548:	fdc42703          	lw	a4,-36(s0)
8000154c:	00f704b3          	add	s1,a4,a5
80001550:	00068513          	mv	a0,a3
80001554:	d9cff0ef          	jal	80000af0 <getSbox>
80001558:	00050793          	mv	a5,a0
8000155c:	00f48023          	sb	a5,0(s1)
80001560:	fec42783          	lw	a5,-20(s0)
80001564:	00178793          	addi	a5,a5,1
80001568:	fef42623          	sw	a5,-20(s0)
8000156c:	fec42703          	lw	a4,-20(s0)
80001570:	00f00793          	li	a5,15
80001574:	fce7d0e3          	bge	a5,a4,80001534 <byte_sub+0x20>
80001578:	00000013          	nop
8000157c:	00000013          	nop
80001580:	02c12083          	lw	ra,44(sp)
80001584:	02812403          	lw	s0,40(sp)
80001588:	02412483          	lw	s1,36(sp)
8000158c:	03010113          	addi	sp,sp,48
80001590:	00008067          	ret

80001594 <shift_row>:
80001594:	fd010113          	addi	sp,sp,-48
80001598:	02812623          	sw	s0,44(sp)
8000159c:	03010413          	addi	s0,sp,48
800015a0:	fca42e23          	sw	a0,-36(s0)
800015a4:	fdc42783          	lw	a5,-36(s0)
800015a8:	0017c783          	lbu	a5,1(a5)
800015ac:	fef403a3          	sb	a5,-25(s0)
800015b0:	fdc42783          	lw	a5,-36(s0)
800015b4:	00178793          	addi	a5,a5,1
800015b8:	fdc42703          	lw	a4,-36(s0)
800015bc:	00574703          	lbu	a4,5(a4)
800015c0:	00e78023          	sb	a4,0(a5)
800015c4:	fdc42783          	lw	a5,-36(s0)
800015c8:	00578793          	addi	a5,a5,5
800015cc:	fdc42703          	lw	a4,-36(s0)
800015d0:	00974703          	lbu	a4,9(a4)
800015d4:	00e78023          	sb	a4,0(a5)
800015d8:	fdc42783          	lw	a5,-36(s0)
800015dc:	00978793          	addi	a5,a5,9
800015e0:	fdc42703          	lw	a4,-36(s0)
800015e4:	00d74703          	lbu	a4,13(a4)
800015e8:	00e78023          	sb	a4,0(a5)
800015ec:	fdc42783          	lw	a5,-36(s0)
800015f0:	00d78793          	addi	a5,a5,13
800015f4:	fe744703          	lbu	a4,-25(s0)
800015f8:	00e78023          	sb	a4,0(a5)
800015fc:	fe042623          	sw	zero,-20(s0)
80001600:	0680006f          	j	80001668 <shift_row+0xd4>
80001604:	fdc42783          	lw	a5,-36(s0)
80001608:	0027c783          	lbu	a5,2(a5)
8000160c:	fef403a3          	sb	a5,-25(s0)
80001610:	fdc42783          	lw	a5,-36(s0)
80001614:	00278793          	addi	a5,a5,2
80001618:	fdc42703          	lw	a4,-36(s0)
8000161c:	00674703          	lbu	a4,6(a4)
80001620:	00e78023          	sb	a4,0(a5)
80001624:	fdc42783          	lw	a5,-36(s0)
80001628:	00678793          	addi	a5,a5,6
8000162c:	fdc42703          	lw	a4,-36(s0)
80001630:	00a74703          	lbu	a4,10(a4)
80001634:	00e78023          	sb	a4,0(a5)
80001638:	fdc42783          	lw	a5,-36(s0)
8000163c:	00a78793          	addi	a5,a5,10
80001640:	fdc42703          	lw	a4,-36(s0)
80001644:	00e74703          	lbu	a4,14(a4)
80001648:	00e78023          	sb	a4,0(a5)
8000164c:	fdc42783          	lw	a5,-36(s0)
80001650:	00e78793          	addi	a5,a5,14
80001654:	fe744703          	lbu	a4,-25(s0)
80001658:	00e78023          	sb	a4,0(a5)
8000165c:	fec42783          	lw	a5,-20(s0)
80001660:	00178793          	addi	a5,a5,1
80001664:	fef42623          	sw	a5,-20(s0)
80001668:	fec42703          	lw	a4,-20(s0)
8000166c:	00100793          	li	a5,1
80001670:	f8e7dae3          	bge	a5,a4,80001604 <shift_row+0x70>
80001674:	fe042423          	sw	zero,-24(s0)
80001678:	0680006f          	j	800016e0 <shift_row+0x14c>
8000167c:	fdc42783          	lw	a5,-36(s0)
80001680:	0037c783          	lbu	a5,3(a5)
80001684:	fef403a3          	sb	a5,-25(s0)
80001688:	fdc42783          	lw	a5,-36(s0)
8000168c:	00378793          	addi	a5,a5,3
80001690:	fdc42703          	lw	a4,-36(s0)
80001694:	00774703          	lbu	a4,7(a4)
80001698:	00e78023          	sb	a4,0(a5)
8000169c:	fdc42783          	lw	a5,-36(s0)
800016a0:	00778793          	addi	a5,a5,7
800016a4:	fdc42703          	lw	a4,-36(s0)
800016a8:	00b74703          	lbu	a4,11(a4)
800016ac:	00e78023          	sb	a4,0(a5)
800016b0:	fdc42783          	lw	a5,-36(s0)
800016b4:	00b78793          	addi	a5,a5,11
800016b8:	fdc42703          	lw	a4,-36(s0)
800016bc:	00f74703          	lbu	a4,15(a4)
800016c0:	00e78023          	sb	a4,0(a5)
800016c4:	fdc42783          	lw	a5,-36(s0)
800016c8:	00f78793          	addi	a5,a5,15
800016cc:	fe744703          	lbu	a4,-25(s0)
800016d0:	00e78023          	sb	a4,0(a5)
800016d4:	fe842783          	lw	a5,-24(s0)
800016d8:	00178793          	addi	a5,a5,1
800016dc:	fef42423          	sw	a5,-24(s0)
800016e0:	fe842703          	lw	a4,-24(s0)
800016e4:	00200793          	li	a5,2
800016e8:	f8e7dae3          	bge	a5,a4,8000167c <shift_row+0xe8>
800016ec:	00000013          	nop
800016f0:	00000013          	nop
800016f4:	02c12403          	lw	s0,44(sp)
800016f8:	03010113          	addi	sp,sp,48
800016fc:	00008067          	ret

80001700 <ml>:
80001700:	fe010113          	addi	sp,sp,-32
80001704:	00812e23          	sw	s0,28(sp)
80001708:	02010413          	addi	s0,sp,32
8000170c:	00050793          	mv	a5,a0
80001710:	00058713          	mv	a4,a1
80001714:	fef407a3          	sb	a5,-17(s0)
80001718:	00070793          	mv	a5,a4
8000171c:	fef40723          	sb	a5,-18(s0)
80001720:	fee44703          	lbu	a4,-18(s0)
80001724:	00200793          	li	a5,2
80001728:	02f71063          	bne	a4,a5,80001748 <ml+0x48>
8000172c:	fef44783          	lbu	a5,-17(s0)
80001730:	80016737          	lui	a4,0x80016
80001734:	27070713          	addi	a4,a4,624 # 80016270 <mull2>
80001738:	00f707b3          	add	a5,a4,a5
8000173c:	0007c783          	lbu	a5,0(a5)
80001740:	fef407a3          	sb	a5,-17(s0)
80001744:	0c80006f          	j	8000180c <ml+0x10c>
80001748:	fee44703          	lbu	a4,-18(s0)
8000174c:	00300793          	li	a5,3
80001750:	02f71063          	bne	a4,a5,80001770 <ml+0x70>
80001754:	fef44783          	lbu	a5,-17(s0)
80001758:	80016737          	lui	a4,0x80016
8000175c:	37070713          	addi	a4,a4,880 # 80016370 <mull3>
80001760:	00f707b3          	add	a5,a4,a5
80001764:	0007c783          	lbu	a5,0(a5)
80001768:	fef407a3          	sb	a5,-17(s0)
8000176c:	0a00006f          	j	8000180c <ml+0x10c>
80001770:	fee44703          	lbu	a4,-18(s0)
80001774:	00900793          	li	a5,9
80001778:	02f71063          	bne	a4,a5,80001798 <ml+0x98>
8000177c:	fef44783          	lbu	a5,-17(s0)
80001780:	80016737          	lui	a4,0x80016
80001784:	47070713          	addi	a4,a4,1136 # 80016470 <mull9>
80001788:	00f707b3          	add	a5,a4,a5
8000178c:	0007c783          	lbu	a5,0(a5)
80001790:	fef407a3          	sb	a5,-17(s0)
80001794:	0780006f          	j	8000180c <ml+0x10c>
80001798:	fee44703          	lbu	a4,-18(s0)
8000179c:	00b00793          	li	a5,11
800017a0:	02f71063          	bne	a4,a5,800017c0 <ml+0xc0>
800017a4:	fef44783          	lbu	a5,-17(s0)
800017a8:	80016737          	lui	a4,0x80016
800017ac:	57070713          	addi	a4,a4,1392 # 80016570 <mull11>
800017b0:	00f707b3          	add	a5,a4,a5
800017b4:	0007c783          	lbu	a5,0(a5)
800017b8:	fef407a3          	sb	a5,-17(s0)
800017bc:	0500006f          	j	8000180c <ml+0x10c>
800017c0:	fee44703          	lbu	a4,-18(s0)
800017c4:	00d00793          	li	a5,13
800017c8:	02f71063          	bne	a4,a5,800017e8 <ml+0xe8>
800017cc:	fef44783          	lbu	a5,-17(s0)
800017d0:	80016737          	lui	a4,0x80016
800017d4:	67070713          	addi	a4,a4,1648 # 80016670 <mull13>
800017d8:	00f707b3          	add	a5,a4,a5
800017dc:	0007c783          	lbu	a5,0(a5)
800017e0:	fef407a3          	sb	a5,-17(s0)
800017e4:	0280006f          	j	8000180c <ml+0x10c>
800017e8:	fee44703          	lbu	a4,-18(s0)
800017ec:	00e00793          	li	a5,14
800017f0:	00f71e63          	bne	a4,a5,8000180c <ml+0x10c>
800017f4:	fef44783          	lbu	a5,-17(s0)
800017f8:	80016737          	lui	a4,0x80016
800017fc:	77070713          	addi	a4,a4,1904 # 80016770 <mull14>
80001800:	00f707b3          	add	a5,a4,a5
80001804:	0007c783          	lbu	a5,0(a5)
80001808:	fef407a3          	sb	a5,-17(s0)
8000180c:	fef44783          	lbu	a5,-17(s0)
80001810:	00078513          	mv	a0,a5
80001814:	01c12403          	lw	s0,28(sp)
80001818:	02010113          	addi	sp,sp,32
8000181c:	00008067          	ret

80001820 <mix_columns>:
80001820:	fc010113          	addi	sp,sp,-64
80001824:	02112e23          	sw	ra,60(sp)
80001828:	02812c23          	sw	s0,56(sp)
8000182c:	02912a23          	sw	s1,52(sp)
80001830:	04010413          	addi	s0,sp,64
80001834:	fca42623          	sw	a0,-52(s0)
80001838:	fe042623          	sw	zero,-20(s0)
8000183c:	1dc0006f          	j	80001a18 <mix_columns+0x1f8>
80001840:	fec42783          	lw	a5,-20(s0)
80001844:	41f7d713          	srai	a4,a5,0x1f
80001848:	00377713          	andi	a4,a4,3
8000184c:	00f707b3          	add	a5,a4,a5
80001850:	4027d793          	srai	a5,a5,0x2
80001854:	00279793          	slli	a5,a5,0x2
80001858:	00078713          	mv	a4,a5
8000185c:	fcc42783          	lw	a5,-52(s0)
80001860:	00e787b3          	add	a5,a5,a4
80001864:	0007c683          	lbu	a3,0(a5)
80001868:	fec42703          	lw	a4,-20(s0)
8000186c:	41f75793          	srai	a5,a4,0x1f
80001870:	01e7d793          	srli	a5,a5,0x1e
80001874:	00f70733          	add	a4,a4,a5
80001878:	00377713          	andi	a4,a4,3
8000187c:	40f707b3          	sub	a5,a4,a5
80001880:	00078613          	mv	a2,a5
80001884:	800167b7          	lui	a5,0x80016
80001888:	25078713          	addi	a4,a5,592 # 80016250 <Mmix>
8000188c:	00261793          	slli	a5,a2,0x2
80001890:	00f707b3          	add	a5,a4,a5
80001894:	0007c783          	lbu	a5,0(a5)
80001898:	00078593          	mv	a1,a5
8000189c:	00068513          	mv	a0,a3
800018a0:	e61ff0ef          	jal	80001700 <ml>
800018a4:	00050793          	mv	a5,a0
800018a8:	00078493          	mv	s1,a5
800018ac:	fec42783          	lw	a5,-20(s0)
800018b0:	41f7d713          	srai	a4,a5,0x1f
800018b4:	00377713          	andi	a4,a4,3
800018b8:	00f707b3          	add	a5,a4,a5
800018bc:	4027d793          	srai	a5,a5,0x2
800018c0:	00279793          	slli	a5,a5,0x2
800018c4:	00178793          	addi	a5,a5,1
800018c8:	fcc42703          	lw	a4,-52(s0)
800018cc:	00f707b3          	add	a5,a4,a5
800018d0:	0007c683          	lbu	a3,0(a5)
800018d4:	fec42703          	lw	a4,-20(s0)
800018d8:	41f75793          	srai	a5,a4,0x1f
800018dc:	01e7d793          	srli	a5,a5,0x1e
800018e0:	00f70733          	add	a4,a4,a5
800018e4:	00377713          	andi	a4,a4,3
800018e8:	40f707b3          	sub	a5,a4,a5
800018ec:	00078613          	mv	a2,a5
800018f0:	800167b7          	lui	a5,0x80016
800018f4:	25078713          	addi	a4,a5,592 # 80016250 <Mmix>
800018f8:	00261793          	slli	a5,a2,0x2
800018fc:	00f707b3          	add	a5,a4,a5
80001900:	0017c783          	lbu	a5,1(a5)
80001904:	00078593          	mv	a1,a5
80001908:	00068513          	mv	a0,a3
8000190c:	df5ff0ef          	jal	80001700 <ml>
80001910:	00050793          	mv	a5,a0
80001914:	00f4c7b3          	xor	a5,s1,a5
80001918:	0ff7f493          	zext.b	s1,a5
8000191c:	fec42783          	lw	a5,-20(s0)
80001920:	41f7d713          	srai	a4,a5,0x1f
80001924:	00377713          	andi	a4,a4,3
80001928:	00f707b3          	add	a5,a4,a5
8000192c:	4027d793          	srai	a5,a5,0x2
80001930:	00279793          	slli	a5,a5,0x2
80001934:	00278793          	addi	a5,a5,2
80001938:	fcc42703          	lw	a4,-52(s0)
8000193c:	00f707b3          	add	a5,a4,a5
80001940:	0007c683          	lbu	a3,0(a5)
80001944:	fec42703          	lw	a4,-20(s0)
80001948:	41f75793          	srai	a5,a4,0x1f
8000194c:	01e7d793          	srli	a5,a5,0x1e
80001950:	00f70733          	add	a4,a4,a5
80001954:	00377713          	andi	a4,a4,3
80001958:	40f707b3          	sub	a5,a4,a5
8000195c:	00078613          	mv	a2,a5
80001960:	800167b7          	lui	a5,0x80016
80001964:	25078713          	addi	a4,a5,592 # 80016250 <Mmix>
80001968:	00261793          	slli	a5,a2,0x2
8000196c:	00f707b3          	add	a5,a4,a5
80001970:	0027c783          	lbu	a5,2(a5)
80001974:	00078593          	mv	a1,a5
80001978:	00068513          	mv	a0,a3
8000197c:	d85ff0ef          	jal	80001700 <ml>
80001980:	00050793          	mv	a5,a0
80001984:	00f4c7b3          	xor	a5,s1,a5
80001988:	0ff7f493          	zext.b	s1,a5
8000198c:	fec42783          	lw	a5,-20(s0)
80001990:	41f7d713          	srai	a4,a5,0x1f
80001994:	00377713          	andi	a4,a4,3
80001998:	00f707b3          	add	a5,a4,a5
8000199c:	4027d793          	srai	a5,a5,0x2
800019a0:	00279793          	slli	a5,a5,0x2
800019a4:	00378793          	addi	a5,a5,3
800019a8:	fcc42703          	lw	a4,-52(s0)
800019ac:	00f707b3          	add	a5,a4,a5
800019b0:	0007c683          	lbu	a3,0(a5)
800019b4:	fec42703          	lw	a4,-20(s0)
800019b8:	41f75793          	srai	a5,a4,0x1f
800019bc:	01e7d793          	srli	a5,a5,0x1e
800019c0:	00f70733          	add	a4,a4,a5
800019c4:	00377713          	andi	a4,a4,3
800019c8:	40f707b3          	sub	a5,a4,a5
800019cc:	00078613          	mv	a2,a5
800019d0:	800167b7          	lui	a5,0x80016
800019d4:	25078713          	addi	a4,a5,592 # 80016250 <Mmix>
800019d8:	00261793          	slli	a5,a2,0x2
800019dc:	00f707b3          	add	a5,a4,a5
800019e0:	0037c783          	lbu	a5,3(a5)
800019e4:	00078593          	mv	a1,a5
800019e8:	00068513          	mv	a0,a3
800019ec:	d15ff0ef          	jal	80001700 <ml>
800019f0:	00050793          	mv	a5,a0
800019f4:	00f4c7b3          	xor	a5,s1,a5
800019f8:	0ff7f713          	zext.b	a4,a5
800019fc:	fec42783          	lw	a5,-20(s0)
80001a00:	ff078793          	addi	a5,a5,-16
80001a04:	008787b3          	add	a5,a5,s0
80001a08:	fee78623          	sb	a4,-20(a5)
80001a0c:	fec42783          	lw	a5,-20(s0)
80001a10:	00178793          	addi	a5,a5,1
80001a14:	fef42623          	sw	a5,-20(s0)
80001a18:	fec42703          	lw	a4,-20(s0)
80001a1c:	00f00793          	li	a5,15
80001a20:	e2e7d0e3          	bge	a5,a4,80001840 <mix_columns+0x20>
80001a24:	fdc40793          	addi	a5,s0,-36
80001a28:	01000613          	li	a2,16
80001a2c:	00078593          	mv	a1,a5
80001a30:	fcc42503          	lw	a0,-52(s0)
80001a34:	0a9060ef          	jal	800082dc <memcpy>
80001a38:	00000013          	nop
80001a3c:	03c12083          	lw	ra,60(sp)
80001a40:	03812403          	lw	s0,56(sp)
80001a44:	03412483          	lw	s1,52(sp)
80001a48:	04010113          	addi	sp,sp,64
80001a4c:	00008067          	ret

80001a50 <inv_mix_columns>:
80001a50:	fc010113          	addi	sp,sp,-64
80001a54:	02112e23          	sw	ra,60(sp)
80001a58:	02812c23          	sw	s0,56(sp)
80001a5c:	02912a23          	sw	s1,52(sp)
80001a60:	04010413          	addi	s0,sp,64
80001a64:	fca42623          	sw	a0,-52(s0)
80001a68:	fe042623          	sw	zero,-20(s0)
80001a6c:	1dc0006f          	j	80001c48 <inv_mix_columns+0x1f8>
80001a70:	fec42783          	lw	a5,-20(s0)
80001a74:	41f7d713          	srai	a4,a5,0x1f
80001a78:	00377713          	andi	a4,a4,3
80001a7c:	00f707b3          	add	a5,a4,a5
80001a80:	4027d793          	srai	a5,a5,0x2
80001a84:	00279793          	slli	a5,a5,0x2
80001a88:	00078713          	mv	a4,a5
80001a8c:	fcc42783          	lw	a5,-52(s0)
80001a90:	00e787b3          	add	a5,a5,a4
80001a94:	0007c683          	lbu	a3,0(a5)
80001a98:	fec42703          	lw	a4,-20(s0)
80001a9c:	41f75793          	srai	a5,a4,0x1f
80001aa0:	01e7d793          	srli	a5,a5,0x1e
80001aa4:	00f70733          	add	a4,a4,a5
80001aa8:	00377713          	andi	a4,a4,3
80001aac:	40f707b3          	sub	a5,a4,a5
80001ab0:	00078613          	mv	a2,a5
80001ab4:	800167b7          	lui	a5,0x80016
80001ab8:	26078713          	addi	a4,a5,608 # 80016260 <invMmix>
80001abc:	00261793          	slli	a5,a2,0x2
80001ac0:	00f707b3          	add	a5,a4,a5
80001ac4:	0007c783          	lbu	a5,0(a5)
80001ac8:	00078593          	mv	a1,a5
80001acc:	00068513          	mv	a0,a3
80001ad0:	c31ff0ef          	jal	80001700 <ml>
80001ad4:	00050793          	mv	a5,a0
80001ad8:	00078493          	mv	s1,a5
80001adc:	fec42783          	lw	a5,-20(s0)
80001ae0:	41f7d713          	srai	a4,a5,0x1f
80001ae4:	00377713          	andi	a4,a4,3
80001ae8:	00f707b3          	add	a5,a4,a5
80001aec:	4027d793          	srai	a5,a5,0x2
80001af0:	00279793          	slli	a5,a5,0x2
80001af4:	00178793          	addi	a5,a5,1
80001af8:	fcc42703          	lw	a4,-52(s0)
80001afc:	00f707b3          	add	a5,a4,a5
80001b00:	0007c683          	lbu	a3,0(a5)
80001b04:	fec42703          	lw	a4,-20(s0)
80001b08:	41f75793          	srai	a5,a4,0x1f
80001b0c:	01e7d793          	srli	a5,a5,0x1e
80001b10:	00f70733          	add	a4,a4,a5
80001b14:	00377713          	andi	a4,a4,3
80001b18:	40f707b3          	sub	a5,a4,a5
80001b1c:	00078613          	mv	a2,a5
80001b20:	800167b7          	lui	a5,0x80016
80001b24:	26078713          	addi	a4,a5,608 # 80016260 <invMmix>
80001b28:	00261793          	slli	a5,a2,0x2
80001b2c:	00f707b3          	add	a5,a4,a5
80001b30:	0017c783          	lbu	a5,1(a5)
80001b34:	00078593          	mv	a1,a5
80001b38:	00068513          	mv	a0,a3
80001b3c:	bc5ff0ef          	jal	80001700 <ml>
80001b40:	00050793          	mv	a5,a0
80001b44:	00f4c7b3          	xor	a5,s1,a5
80001b48:	0ff7f493          	zext.b	s1,a5
80001b4c:	fec42783          	lw	a5,-20(s0)
80001b50:	41f7d713          	srai	a4,a5,0x1f
80001b54:	00377713          	andi	a4,a4,3
80001b58:	00f707b3          	add	a5,a4,a5
80001b5c:	4027d793          	srai	a5,a5,0x2
80001b60:	00279793          	slli	a5,a5,0x2
80001b64:	00278793          	addi	a5,a5,2
80001b68:	fcc42703          	lw	a4,-52(s0)
80001b6c:	00f707b3          	add	a5,a4,a5
80001b70:	0007c683          	lbu	a3,0(a5)
80001b74:	fec42703          	lw	a4,-20(s0)
80001b78:	41f75793          	srai	a5,a4,0x1f
80001b7c:	01e7d793          	srli	a5,a5,0x1e
80001b80:	00f70733          	add	a4,a4,a5
80001b84:	00377713          	andi	a4,a4,3
80001b88:	40f707b3          	sub	a5,a4,a5
80001b8c:	00078613          	mv	a2,a5
80001b90:	800167b7          	lui	a5,0x80016
80001b94:	26078713          	addi	a4,a5,608 # 80016260 <invMmix>
80001b98:	00261793          	slli	a5,a2,0x2
80001b9c:	00f707b3          	add	a5,a4,a5
80001ba0:	0027c783          	lbu	a5,2(a5)
80001ba4:	00078593          	mv	a1,a5
80001ba8:	00068513          	mv	a0,a3
80001bac:	b55ff0ef          	jal	80001700 <ml>
80001bb0:	00050793          	mv	a5,a0
80001bb4:	00f4c7b3          	xor	a5,s1,a5
80001bb8:	0ff7f493          	zext.b	s1,a5
80001bbc:	fec42783          	lw	a5,-20(s0)
80001bc0:	41f7d713          	srai	a4,a5,0x1f
80001bc4:	00377713          	andi	a4,a4,3
80001bc8:	00f707b3          	add	a5,a4,a5
80001bcc:	4027d793          	srai	a5,a5,0x2
80001bd0:	00279793          	slli	a5,a5,0x2
80001bd4:	00378793          	addi	a5,a5,3
80001bd8:	fcc42703          	lw	a4,-52(s0)
80001bdc:	00f707b3          	add	a5,a4,a5
80001be0:	0007c683          	lbu	a3,0(a5)
80001be4:	fec42703          	lw	a4,-20(s0)
80001be8:	41f75793          	srai	a5,a4,0x1f
80001bec:	01e7d793          	srli	a5,a5,0x1e
80001bf0:	00f70733          	add	a4,a4,a5
80001bf4:	00377713          	andi	a4,a4,3
80001bf8:	40f707b3          	sub	a5,a4,a5
80001bfc:	00078613          	mv	a2,a5
80001c00:	800167b7          	lui	a5,0x80016
80001c04:	26078713          	addi	a4,a5,608 # 80016260 <invMmix>
80001c08:	00261793          	slli	a5,a2,0x2
80001c0c:	00f707b3          	add	a5,a4,a5
80001c10:	0037c783          	lbu	a5,3(a5)
80001c14:	00078593          	mv	a1,a5
80001c18:	00068513          	mv	a0,a3
80001c1c:	ae5ff0ef          	jal	80001700 <ml>
80001c20:	00050793          	mv	a5,a0
80001c24:	00f4c7b3          	xor	a5,s1,a5
80001c28:	0ff7f713          	zext.b	a4,a5
80001c2c:	fec42783          	lw	a5,-20(s0)
80001c30:	ff078793          	addi	a5,a5,-16
80001c34:	008787b3          	add	a5,a5,s0
80001c38:	fee78623          	sb	a4,-20(a5)
80001c3c:	fec42783          	lw	a5,-20(s0)
80001c40:	00178793          	addi	a5,a5,1
80001c44:	fef42623          	sw	a5,-20(s0)
80001c48:	fec42703          	lw	a4,-20(s0)
80001c4c:	00f00793          	li	a5,15
80001c50:	e2e7d0e3          	bge	a5,a4,80001a70 <inv_mix_columns+0x20>
80001c54:	fdc40793          	addi	a5,s0,-36
80001c58:	01000613          	li	a2,16
80001c5c:	00078593          	mv	a1,a5
80001c60:	fcc42503          	lw	a0,-52(s0)
80001c64:	678060ef          	jal	800082dc <memcpy>
80001c68:	00000013          	nop
80001c6c:	03c12083          	lw	ra,60(sp)
80001c70:	03812403          	lw	s0,56(sp)
80001c74:	03412483          	lw	s1,52(sp)
80001c78:	04010113          	addi	sp,sp,64
80001c7c:	00008067          	ret

80001c80 <inv_shift_row>:
80001c80:	fd010113          	addi	sp,sp,-48
80001c84:	02812623          	sw	s0,44(sp)
80001c88:	03010413          	addi	s0,sp,48
80001c8c:	fca42e23          	sw	a0,-36(s0)
80001c90:	fdc42783          	lw	a5,-36(s0)
80001c94:	00d7c783          	lbu	a5,13(a5)
80001c98:	fef403a3          	sb	a5,-25(s0)
80001c9c:	fdc42783          	lw	a5,-36(s0)
80001ca0:	00d78793          	addi	a5,a5,13
80001ca4:	fdc42703          	lw	a4,-36(s0)
80001ca8:	00974703          	lbu	a4,9(a4)
80001cac:	00e78023          	sb	a4,0(a5)
80001cb0:	fdc42783          	lw	a5,-36(s0)
80001cb4:	00978793          	addi	a5,a5,9
80001cb8:	fdc42703          	lw	a4,-36(s0)
80001cbc:	00574703          	lbu	a4,5(a4)
80001cc0:	00e78023          	sb	a4,0(a5)
80001cc4:	fdc42783          	lw	a5,-36(s0)
80001cc8:	00578793          	addi	a5,a5,5
80001ccc:	fdc42703          	lw	a4,-36(s0)
80001cd0:	00174703          	lbu	a4,1(a4)
80001cd4:	00e78023          	sb	a4,0(a5)
80001cd8:	fdc42783          	lw	a5,-36(s0)
80001cdc:	00178793          	addi	a5,a5,1
80001ce0:	fe744703          	lbu	a4,-25(s0)
80001ce4:	00e78023          	sb	a4,0(a5)
80001ce8:	fe042623          	sw	zero,-20(s0)
80001cec:	0680006f          	j	80001d54 <inv_shift_row+0xd4>
80001cf0:	fdc42783          	lw	a5,-36(s0)
80001cf4:	00e7c783          	lbu	a5,14(a5)
80001cf8:	fef403a3          	sb	a5,-25(s0)
80001cfc:	fdc42783          	lw	a5,-36(s0)
80001d00:	00e78793          	addi	a5,a5,14
80001d04:	fdc42703          	lw	a4,-36(s0)
80001d08:	00a74703          	lbu	a4,10(a4)
80001d0c:	00e78023          	sb	a4,0(a5)
80001d10:	fdc42783          	lw	a5,-36(s0)
80001d14:	00a78793          	addi	a5,a5,10
80001d18:	fdc42703          	lw	a4,-36(s0)
80001d1c:	00674703          	lbu	a4,6(a4)
80001d20:	00e78023          	sb	a4,0(a5)
80001d24:	fdc42783          	lw	a5,-36(s0)
80001d28:	00678793          	addi	a5,a5,6
80001d2c:	fdc42703          	lw	a4,-36(s0)
80001d30:	00274703          	lbu	a4,2(a4)
80001d34:	00e78023          	sb	a4,0(a5)
80001d38:	fdc42783          	lw	a5,-36(s0)
80001d3c:	00278793          	addi	a5,a5,2
80001d40:	fe744703          	lbu	a4,-25(s0)
80001d44:	00e78023          	sb	a4,0(a5)
80001d48:	fec42783          	lw	a5,-20(s0)
80001d4c:	00178793          	addi	a5,a5,1
80001d50:	fef42623          	sw	a5,-20(s0)
80001d54:	fec42703          	lw	a4,-20(s0)
80001d58:	00100793          	li	a5,1
80001d5c:	f8e7dae3          	bge	a5,a4,80001cf0 <inv_shift_row+0x70>
80001d60:	fe042423          	sw	zero,-24(s0)
80001d64:	0680006f          	j	80001dcc <inv_shift_row+0x14c>
80001d68:	fdc42783          	lw	a5,-36(s0)
80001d6c:	00f7c783          	lbu	a5,15(a5)
80001d70:	fef403a3          	sb	a5,-25(s0)
80001d74:	fdc42783          	lw	a5,-36(s0)
80001d78:	00f78793          	addi	a5,a5,15
80001d7c:	fdc42703          	lw	a4,-36(s0)
80001d80:	00b74703          	lbu	a4,11(a4)
80001d84:	00e78023          	sb	a4,0(a5)
80001d88:	fdc42783          	lw	a5,-36(s0)
80001d8c:	00b78793          	addi	a5,a5,11
80001d90:	fdc42703          	lw	a4,-36(s0)
80001d94:	00774703          	lbu	a4,7(a4)
80001d98:	00e78023          	sb	a4,0(a5)
80001d9c:	fdc42783          	lw	a5,-36(s0)
80001da0:	00778793          	addi	a5,a5,7
80001da4:	fdc42703          	lw	a4,-36(s0)
80001da8:	00374703          	lbu	a4,3(a4)
80001dac:	00e78023          	sb	a4,0(a5)
80001db0:	fdc42783          	lw	a5,-36(s0)
80001db4:	00378793          	addi	a5,a5,3
80001db8:	fe744703          	lbu	a4,-25(s0)
80001dbc:	00e78023          	sb	a4,0(a5)
80001dc0:	fe842783          	lw	a5,-24(s0)
80001dc4:	00178793          	addi	a5,a5,1
80001dc8:	fef42423          	sw	a5,-24(s0)
80001dcc:	fe842703          	lw	a4,-24(s0)
80001dd0:	00200793          	li	a5,2
80001dd4:	f8e7dae3          	bge	a5,a4,80001d68 <inv_shift_row+0xe8>
80001dd8:	00000013          	nop
80001ddc:	00000013          	nop
80001de0:	02c12403          	lw	s0,44(sp)
80001de4:	03010113          	addi	sp,sp,48
80001de8:	00008067          	ret

80001dec <inv_byte_sub>:
80001dec:	fd010113          	addi	sp,sp,-48
80001df0:	02112623          	sw	ra,44(sp)
80001df4:	02812423          	sw	s0,40(sp)
80001df8:	02912223          	sw	s1,36(sp)
80001dfc:	03010413          	addi	s0,sp,48
80001e00:	fca42e23          	sw	a0,-36(s0)
80001e04:	fe042623          	sw	zero,-20(s0)
80001e08:	03c0006f          	j	80001e44 <inv_byte_sub+0x58>
80001e0c:	fec42783          	lw	a5,-20(s0)
80001e10:	fdc42703          	lw	a4,-36(s0)
80001e14:	00f707b3          	add	a5,a4,a5
80001e18:	0007c683          	lbu	a3,0(a5)
80001e1c:	fec42783          	lw	a5,-20(s0)
80001e20:	fdc42703          	lw	a4,-36(s0)
80001e24:	00f704b3          	add	s1,a4,a5
80001e28:	00068513          	mv	a0,a3
80001e2c:	d25fe0ef          	jal	80000b50 <getinvSbox>
80001e30:	00050793          	mv	a5,a0
80001e34:	00f48023          	sb	a5,0(s1)
80001e38:	fec42783          	lw	a5,-20(s0)
80001e3c:	00178793          	addi	a5,a5,1
80001e40:	fef42623          	sw	a5,-20(s0)
80001e44:	fec42703          	lw	a4,-20(s0)
80001e48:	00f00793          	li	a5,15
80001e4c:	fce7d0e3          	bge	a5,a4,80001e0c <inv_byte_sub+0x20>
80001e50:	00000013          	nop
80001e54:	00000013          	nop
80001e58:	02c12083          	lw	ra,44(sp)
80001e5c:	02812403          	lw	s0,40(sp)
80001e60:	02412483          	lw	s1,36(sp)
80001e64:	03010113          	addi	sp,sp,48
80001e68:	00008067          	ret

80001e6c <AES_setKey>:
80001e6c:	fe010113          	addi	sp,sp,-32
80001e70:	00112e23          	sw	ra,28(sp)
80001e74:	00812c23          	sw	s0,24(sp)
80001e78:	02010413          	addi	s0,sp,32
80001e7c:	fea42623          	sw	a0,-20(s0)
80001e80:	02000613          	li	a2,32
80001e84:	fec42583          	lw	a1,-20(s0)
80001e88:	800177b7          	lui	a5,0x80017
80001e8c:	a0478513          	addi	a0,a5,-1532 # 80016a04 <key>
80001e90:	44c060ef          	jal	800082dc <memcpy>
80001e94:	00000013          	nop
80001e98:	01c12083          	lw	ra,28(sp)
80001e9c:	01812403          	lw	s0,24(sp)
80001ea0:	02010113          	addi	sp,sp,32
80001ea4:	00008067          	ret

80001ea8 <AES128_encrypt>:
80001ea8:	f2010113          	addi	sp,sp,-224
80001eac:	0c112e23          	sw	ra,220(sp)
80001eb0:	0c812c23          	sw	s0,216(sp)
80001eb4:	0e010413          	addi	s0,sp,224
80001eb8:	f2a42623          	sw	a0,-212(s0)
80001ebc:	f3c40793          	addi	a5,s0,-196
80001ec0:	0b000713          	li	a4,176
80001ec4:	00070613          	mv	a2,a4
80001ec8:	00000593          	li	a1,0
80001ecc:	00078513          	mv	a0,a5
80001ed0:	3a4060ef          	jal	80008274 <memset>
80001ed4:	f3c40713          	addi	a4,s0,-196
80001ed8:	01000613          	li	a2,16
80001edc:	800177b7          	lui	a5,0x80017
80001ee0:	a0478593          	addi	a1,a5,-1532 # 80016a04 <key>
80001ee4:	00070513          	mv	a0,a4
80001ee8:	3f4060ef          	jal	800082dc <memcpy>
80001eec:	f3c40793          	addi	a5,s0,-196
80001ef0:	00078513          	mv	a0,a5
80001ef4:	cbdfe0ef          	jal	80000bb0 <key_schedule128>
80001ef8:	f3c40793          	addi	a5,s0,-196
80001efc:	00078593          	mv	a1,a5
80001f00:	f2c42503          	lw	a0,-212(s0)
80001f04:	d90ff0ef          	jal	80001494 <add_round_key>
80001f08:	00100793          	li	a5,1
80001f0c:	fef42623          	sw	a5,-20(s0)
80001f10:	0480006f          	j	80001f58 <AES128_encrypt+0xb0>
80001f14:	f2c42503          	lw	a0,-212(s0)
80001f18:	dfcff0ef          	jal	80001514 <byte_sub>
80001f1c:	f2c42503          	lw	a0,-212(s0)
80001f20:	e74ff0ef          	jal	80001594 <shift_row>
80001f24:	f2c42503          	lw	a0,-212(s0)
80001f28:	8f9ff0ef          	jal	80001820 <mix_columns>
80001f2c:	fec42783          	lw	a5,-20(s0)
80001f30:	00479793          	slli	a5,a5,0x4
80001f34:	00078713          	mv	a4,a5
80001f38:	f3c40793          	addi	a5,s0,-196
80001f3c:	00e787b3          	add	a5,a5,a4
80001f40:	00078593          	mv	a1,a5
80001f44:	f2c42503          	lw	a0,-212(s0)
80001f48:	d4cff0ef          	jal	80001494 <add_round_key>
80001f4c:	fec42783          	lw	a5,-20(s0)
80001f50:	00178793          	addi	a5,a5,1
80001f54:	fef42623          	sw	a5,-20(s0)
80001f58:	fec42703          	lw	a4,-20(s0)
80001f5c:	00900793          	li	a5,9
80001f60:	fae7dae3          	bge	a5,a4,80001f14 <AES128_encrypt+0x6c>
80001f64:	f2c42503          	lw	a0,-212(s0)
80001f68:	dacff0ef          	jal	80001514 <byte_sub>
80001f6c:	f2c42503          	lw	a0,-212(s0)
80001f70:	e24ff0ef          	jal	80001594 <shift_row>
80001f74:	f3c40793          	addi	a5,s0,-196
80001f78:	0a078793          	addi	a5,a5,160
80001f7c:	00078593          	mv	a1,a5
80001f80:	f2c42503          	lw	a0,-212(s0)
80001f84:	d10ff0ef          	jal	80001494 <add_round_key>
80001f88:	00000013          	nop
80001f8c:	0dc12083          	lw	ra,220(sp)
80001f90:	0d812403          	lw	s0,216(sp)
80001f94:	0e010113          	addi	sp,sp,224
80001f98:	00008067          	ret

80001f9c <AES128_decrypt>:
80001f9c:	f2010113          	addi	sp,sp,-224
80001fa0:	0c112e23          	sw	ra,220(sp)
80001fa4:	0c812c23          	sw	s0,216(sp)
80001fa8:	0e010413          	addi	s0,sp,224
80001fac:	f2a42623          	sw	a0,-212(s0)
80001fb0:	f3c40793          	addi	a5,s0,-196
80001fb4:	0b000713          	li	a4,176
80001fb8:	00070613          	mv	a2,a4
80001fbc:	00000593          	li	a1,0
80001fc0:	00078513          	mv	a0,a5
80001fc4:	2b0060ef          	jal	80008274 <memset>
80001fc8:	f3c40713          	addi	a4,s0,-196
80001fcc:	01000613          	li	a2,16
80001fd0:	800177b7          	lui	a5,0x80017
80001fd4:	a0478593          	addi	a1,a5,-1532 # 80016a04 <key>
80001fd8:	00070513          	mv	a0,a4
80001fdc:	300060ef          	jal	800082dc <memcpy>
80001fe0:	f3c40793          	addi	a5,s0,-196
80001fe4:	00078513          	mv	a0,a5
80001fe8:	bc9fe0ef          	jal	80000bb0 <key_schedule128>
80001fec:	f3c40793          	addi	a5,s0,-196
80001ff0:	0a078793          	addi	a5,a5,160
80001ff4:	00078593          	mv	a1,a5
80001ff8:	f2c42503          	lw	a0,-212(s0)
80001ffc:	c98ff0ef          	jal	80001494 <add_round_key>
80002000:	f2c42503          	lw	a0,-212(s0)
80002004:	c7dff0ef          	jal	80001c80 <inv_shift_row>
80002008:	f2c42503          	lw	a0,-212(s0)
8000200c:	de1ff0ef          	jal	80001dec <inv_byte_sub>
80002010:	00900793          	li	a5,9
80002014:	fef42623          	sw	a5,-20(s0)
80002018:	0480006f          	j	80002060 <AES128_decrypt+0xc4>
8000201c:	fec42783          	lw	a5,-20(s0)
80002020:	00479793          	slli	a5,a5,0x4
80002024:	00078713          	mv	a4,a5
80002028:	f3c40793          	addi	a5,s0,-196
8000202c:	00e787b3          	add	a5,a5,a4
80002030:	00078593          	mv	a1,a5
80002034:	f2c42503          	lw	a0,-212(s0)
80002038:	c5cff0ef          	jal	80001494 <add_round_key>
8000203c:	f2c42503          	lw	a0,-212(s0)
80002040:	a11ff0ef          	jal	80001a50 <inv_mix_columns>
80002044:	f2c42503          	lw	a0,-212(s0)
80002048:	c39ff0ef          	jal	80001c80 <inv_shift_row>
8000204c:	f2c42503          	lw	a0,-212(s0)
80002050:	d9dff0ef          	jal	80001dec <inv_byte_sub>
80002054:	fec42783          	lw	a5,-20(s0)
80002058:	fff78793          	addi	a5,a5,-1
8000205c:	fef42623          	sw	a5,-20(s0)
80002060:	fec42783          	lw	a5,-20(s0)
80002064:	faf04ce3          	bgtz	a5,8000201c <AES128_decrypt+0x80>
80002068:	f3c40793          	addi	a5,s0,-196
8000206c:	00078593          	mv	a1,a5
80002070:	f2c42503          	lw	a0,-212(s0)
80002074:	c20ff0ef          	jal	80001494 <add_round_key>
80002078:	00000013          	nop
8000207c:	0dc12083          	lw	ra,220(sp)
80002080:	0d812403          	lw	s0,216(sp)
80002084:	0e010113          	addi	sp,sp,224
80002088:	00008067          	ret

8000208c <AES256_encrypt>:
8000208c:	ee010113          	addi	sp,sp,-288
80002090:	10112e23          	sw	ra,284(sp)
80002094:	10812c23          	sw	s0,280(sp)
80002098:	12010413          	addi	s0,sp,288
8000209c:	eea42623          	sw	a0,-276(s0)
800020a0:	efc40793          	addi	a5,s0,-260
800020a4:	0f000713          	li	a4,240
800020a8:	00070613          	mv	a2,a4
800020ac:	00000593          	li	a1,0
800020b0:	00078513          	mv	a0,a5
800020b4:	1c0060ef          	jal	80008274 <memset>
800020b8:	efc40713          	addi	a4,s0,-260
800020bc:	02000613          	li	a2,32
800020c0:	800177b7          	lui	a5,0x80017
800020c4:	a0478593          	addi	a1,a5,-1532 # 80016a04 <key>
800020c8:	00070513          	mv	a0,a4
800020cc:	210060ef          	jal	800082dc <memcpy>
800020d0:	efc40793          	addi	a5,s0,-260
800020d4:	00078513          	mv	a0,a5
800020d8:	ec9fe0ef          	jal	80000fa0 <key_schedule256>
800020dc:	efc40793          	addi	a5,s0,-260
800020e0:	00078593          	mv	a1,a5
800020e4:	eec42503          	lw	a0,-276(s0)
800020e8:	bacff0ef          	jal	80001494 <add_round_key>
800020ec:	00100793          	li	a5,1
800020f0:	fef42623          	sw	a5,-20(s0)
800020f4:	0480006f          	j	8000213c <AES256_encrypt+0xb0>
800020f8:	eec42503          	lw	a0,-276(s0)
800020fc:	c18ff0ef          	jal	80001514 <byte_sub>
80002100:	eec42503          	lw	a0,-276(s0)
80002104:	c90ff0ef          	jal	80001594 <shift_row>
80002108:	eec42503          	lw	a0,-276(s0)
8000210c:	f14ff0ef          	jal	80001820 <mix_columns>
80002110:	fec42783          	lw	a5,-20(s0)
80002114:	00479793          	slli	a5,a5,0x4
80002118:	00078713          	mv	a4,a5
8000211c:	efc40793          	addi	a5,s0,-260
80002120:	00e787b3          	add	a5,a5,a4
80002124:	00078593          	mv	a1,a5
80002128:	eec42503          	lw	a0,-276(s0)
8000212c:	b68ff0ef          	jal	80001494 <add_round_key>
80002130:	fec42783          	lw	a5,-20(s0)
80002134:	00178793          	addi	a5,a5,1
80002138:	fef42623          	sw	a5,-20(s0)
8000213c:	fec42703          	lw	a4,-20(s0)
80002140:	00d00793          	li	a5,13
80002144:	fae7dae3          	bge	a5,a4,800020f8 <AES256_encrypt+0x6c>
80002148:	eec42503          	lw	a0,-276(s0)
8000214c:	bc8ff0ef          	jal	80001514 <byte_sub>
80002150:	eec42503          	lw	a0,-276(s0)
80002154:	c40ff0ef          	jal	80001594 <shift_row>
80002158:	efc40793          	addi	a5,s0,-260
8000215c:	0e078793          	addi	a5,a5,224
80002160:	00078593          	mv	a1,a5
80002164:	eec42503          	lw	a0,-276(s0)
80002168:	b2cff0ef          	jal	80001494 <add_round_key>
8000216c:	00000013          	nop
80002170:	11c12083          	lw	ra,284(sp)
80002174:	11812403          	lw	s0,280(sp)
80002178:	12010113          	addi	sp,sp,288
8000217c:	00008067          	ret

80002180 <AES256_decrypt>:
80002180:	ee010113          	addi	sp,sp,-288
80002184:	10112e23          	sw	ra,284(sp)
80002188:	10812c23          	sw	s0,280(sp)
8000218c:	12010413          	addi	s0,sp,288
80002190:	eea42623          	sw	a0,-276(s0)
80002194:	efc40793          	addi	a5,s0,-260
80002198:	0f000713          	li	a4,240
8000219c:	00070613          	mv	a2,a4
800021a0:	00000593          	li	a1,0
800021a4:	00078513          	mv	a0,a5
800021a8:	0cc060ef          	jal	80008274 <memset>
800021ac:	efc40713          	addi	a4,s0,-260
800021b0:	02000613          	li	a2,32
800021b4:	800177b7          	lui	a5,0x80017
800021b8:	a0478593          	addi	a1,a5,-1532 # 80016a04 <key>
800021bc:	00070513          	mv	a0,a4
800021c0:	11c060ef          	jal	800082dc <memcpy>
800021c4:	efc40793          	addi	a5,s0,-260
800021c8:	00078513          	mv	a0,a5
800021cc:	dd5fe0ef          	jal	80000fa0 <key_schedule256>
800021d0:	efc40793          	addi	a5,s0,-260
800021d4:	0e078793          	addi	a5,a5,224
800021d8:	00078593          	mv	a1,a5
800021dc:	eec42503          	lw	a0,-276(s0)
800021e0:	ab4ff0ef          	jal	80001494 <add_round_key>
800021e4:	eec42503          	lw	a0,-276(s0)
800021e8:	a99ff0ef          	jal	80001c80 <inv_shift_row>
800021ec:	eec42503          	lw	a0,-276(s0)
800021f0:	bfdff0ef          	jal	80001dec <inv_byte_sub>
800021f4:	00d00793          	li	a5,13
800021f8:	fef42623          	sw	a5,-20(s0)
800021fc:	0480006f          	j	80002244 <AES256_decrypt+0xc4>
80002200:	fec42783          	lw	a5,-20(s0)
80002204:	00479793          	slli	a5,a5,0x4
80002208:	00078713          	mv	a4,a5
8000220c:	efc40793          	addi	a5,s0,-260
80002210:	00e787b3          	add	a5,a5,a4
80002214:	00078593          	mv	a1,a5
80002218:	eec42503          	lw	a0,-276(s0)
8000221c:	a78ff0ef          	jal	80001494 <add_round_key>
80002220:	eec42503          	lw	a0,-276(s0)
80002224:	82dff0ef          	jal	80001a50 <inv_mix_columns>
80002228:	eec42503          	lw	a0,-276(s0)
8000222c:	a55ff0ef          	jal	80001c80 <inv_shift_row>
80002230:	eec42503          	lw	a0,-276(s0)
80002234:	bb9ff0ef          	jal	80001dec <inv_byte_sub>
80002238:	fec42783          	lw	a5,-20(s0)
8000223c:	fff78793          	addi	a5,a5,-1
80002240:	fef42623          	sw	a5,-20(s0)
80002244:	fec42783          	lw	a5,-20(s0)
80002248:	faf04ce3          	bgtz	a5,80002200 <AES256_decrypt+0x80>
8000224c:	efc40793          	addi	a5,s0,-260
80002250:	00078593          	mv	a1,a5
80002254:	eec42503          	lw	a0,-276(s0)
80002258:	a3cff0ef          	jal	80001494 <add_round_key>
8000225c:	00000013          	nop
80002260:	11c12083          	lw	ra,284(sp)
80002264:	11812403          	lw	s0,280(sp)
80002268:	12010113          	addi	sp,sp,288
8000226c:	00008067          	ret

80002270 <_doprnt>:
80002270:	f9010113          	addi	sp,sp,-112
80002274:	06112623          	sw	ra,108(sp)
80002278:	06812423          	sw	s0,104(sp)
8000227c:	07010413          	addi	s0,sp,112
80002280:	f8a42e23          	sw	a0,-100(s0)
80002284:	f8b42c23          	sw	a1,-104(s0)
80002288:	f8c42a23          	sw	a2,-108(s0)
8000228c:	0180006f          	j	800022a4 <_doprnt+0x34>
80002290:	fc842783          	lw	a5,-56(s0)
80002294:	66078463          	beqz	a5,800028fc <_doprnt+0x68c>
80002298:	f9442783          	lw	a5,-108(s0)
8000229c:	fc842503          	lw	a0,-56(s0)
800022a0:	000780e7          	jalr	a5
800022a4:	f9c42783          	lw	a5,-100(s0)
800022a8:	00178713          	addi	a4,a5,1
800022ac:	f8e42e23          	sw	a4,-100(s0)
800022b0:	0007c783          	lbu	a5,0(a5)
800022b4:	fcf42423          	sw	a5,-56(s0)
800022b8:	fc842703          	lw	a4,-56(s0)
800022bc:	02500793          	li	a5,37
800022c0:	fcf718e3          	bne	a4,a5,80002290 <_doprnt+0x20>
800022c4:	f9c42783          	lw	a5,-100(s0)
800022c8:	0007c703          	lbu	a4,0(a5)
800022cc:	02500793          	li	a5,37
800022d0:	02f71463          	bne	a4,a5,800022f8 <_doprnt+0x88>
800022d4:	f9c42783          	lw	a5,-100(s0)
800022d8:	00178713          	addi	a4,a5,1
800022dc:	f8e42e23          	sw	a4,-100(s0)
800022e0:	0007c783          	lbu	a5,0(a5)
800022e4:	00078713          	mv	a4,a5
800022e8:	f9442783          	lw	a5,-108(s0)
800022ec:	00070513          	mv	a0,a4
800022f0:	000780e7          	jalr	a5
800022f4:	6040006f          	j	800028f8 <_doprnt+0x688>
800022f8:	f9c42783          	lw	a5,-100(s0)
800022fc:	0007c783          	lbu	a5,0(a5)
80002300:	fd378793          	addi	a5,a5,-45
80002304:	0017b793          	seqz	a5,a5
80002308:	0ff7f793          	zext.b	a5,a5
8000230c:	fcf42223          	sw	a5,-60(s0)
80002310:	fc442783          	lw	a5,-60(s0)
80002314:	00078863          	beqz	a5,80002324 <_doprnt+0xb4>
80002318:	f9c42783          	lw	a5,-100(s0)
8000231c:	00178793          	addi	a5,a5,1
80002320:	f8f42e23          	sw	a5,-100(s0)
80002324:	f9c42783          	lw	a5,-100(s0)
80002328:	0007c703          	lbu	a4,0(a5)
8000232c:	03000793          	li	a5,48
80002330:	00f71c63          	bne	a4,a5,80002348 <_doprnt+0xd8>
80002334:	f9c42783          	lw	a5,-100(s0)
80002338:	00178713          	addi	a4,a5,1
8000233c:	f8e42e23          	sw	a4,-100(s0)
80002340:	0007c783          	lbu	a5,0(a5)
80002344:	0080006f          	j	8000234c <_doprnt+0xdc>
80002348:	02000793          	li	a5,32
8000234c:	fef401a3          	sb	a5,-29(s0)
80002350:	fc042c23          	sw	zero,-40(s0)
80002354:	f9c42783          	lw	a5,-100(s0)
80002358:	0007c703          	lbu	a4,0(a5)
8000235c:	02a00793          	li	a5,42
80002360:	04f71e63          	bne	a4,a5,800023bc <_doprnt+0x14c>
80002364:	f9842783          	lw	a5,-104(s0)
80002368:	00478713          	addi	a4,a5,4
8000236c:	f8e42c23          	sw	a4,-104(s0)
80002370:	0007a783          	lw	a5,0(a5)
80002374:	fcf42c23          	sw	a5,-40(s0)
80002378:	f9c42783          	lw	a5,-100(s0)
8000237c:	00178793          	addi	a5,a5,1
80002380:	f8f42e23          	sw	a5,-100(s0)
80002384:	0580006f          	j	800023dc <_doprnt+0x16c>
80002388:	fd842703          	lw	a4,-40(s0)
8000238c:	00070793          	mv	a5,a4
80002390:	00279793          	slli	a5,a5,0x2
80002394:	00e787b3          	add	a5,a5,a4
80002398:	00179793          	slli	a5,a5,0x1
8000239c:	00078693          	mv	a3,a5
800023a0:	f9c42783          	lw	a5,-100(s0)
800023a4:	00178713          	addi	a4,a5,1
800023a8:	f8e42e23          	sw	a4,-100(s0)
800023ac:	0007c783          	lbu	a5,0(a5)
800023b0:	00f687b3          	add	a5,a3,a5
800023b4:	fd078793          	addi	a5,a5,-48
800023b8:	fcf42c23          	sw	a5,-40(s0)
800023bc:	f9c42783          	lw	a5,-100(s0)
800023c0:	0007c703          	lbu	a4,0(a5)
800023c4:	02f00793          	li	a5,47
800023c8:	00e7fa63          	bgeu	a5,a4,800023dc <_doprnt+0x16c>
800023cc:	f9c42783          	lw	a5,-100(s0)
800023d0:	0007c703          	lbu	a4,0(a5)
800023d4:	03900793          	li	a5,57
800023d8:	fae7f8e3          	bgeu	a5,a4,80002388 <_doprnt+0x118>
800023dc:	fc042e23          	sw	zero,-36(s0)
800023e0:	f9c42783          	lw	a5,-100(s0)
800023e4:	0007c703          	lbu	a4,0(a5)
800023e8:	02e00793          	li	a5,46
800023ec:	08f71c63          	bne	a4,a5,80002484 <_doprnt+0x214>
800023f0:	f9c42783          	lw	a5,-100(s0)
800023f4:	00178793          	addi	a5,a5,1
800023f8:	f8f42e23          	sw	a5,-100(s0)
800023fc:	f9c42783          	lw	a5,-100(s0)
80002400:	0007c703          	lbu	a4,0(a5)
80002404:	02a00793          	li	a5,42
80002408:	04f71e63          	bne	a4,a5,80002464 <_doprnt+0x1f4>
8000240c:	f9842783          	lw	a5,-104(s0)
80002410:	00478713          	addi	a4,a5,4
80002414:	f8e42c23          	sw	a4,-104(s0)
80002418:	0007a783          	lw	a5,0(a5)
8000241c:	fcf42e23          	sw	a5,-36(s0)
80002420:	f9c42783          	lw	a5,-100(s0)
80002424:	00178793          	addi	a5,a5,1
80002428:	f8f42e23          	sw	a5,-100(s0)
8000242c:	0580006f          	j	80002484 <_doprnt+0x214>
80002430:	fdc42703          	lw	a4,-36(s0)
80002434:	00070793          	mv	a5,a4
80002438:	00279793          	slli	a5,a5,0x2
8000243c:	00e787b3          	add	a5,a5,a4
80002440:	00179793          	slli	a5,a5,0x1
80002444:	00078693          	mv	a3,a5
80002448:	f9c42783          	lw	a5,-100(s0)
8000244c:	00178713          	addi	a4,a5,1
80002450:	f8e42e23          	sw	a4,-100(s0)
80002454:	0007c783          	lbu	a5,0(a5)
80002458:	00f687b3          	add	a5,a3,a5
8000245c:	fd078793          	addi	a5,a5,-48
80002460:	fcf42e23          	sw	a5,-36(s0)
80002464:	f9c42783          	lw	a5,-100(s0)
80002468:	0007c703          	lbu	a4,0(a5)
8000246c:	02f00793          	li	a5,47
80002470:	00e7fa63          	bgeu	a5,a4,80002484 <_doprnt+0x214>
80002474:	f9c42783          	lw	a5,-100(s0)
80002478:	0007c703          	lbu	a4,0(a5)
8000247c:	03900793          	li	a5,57
80002480:	fae7f8e3          	bgeu	a5,a4,80002430 <_doprnt+0x1c0>
80002484:	fac40793          	addi	a5,s0,-84
80002488:	fef42423          	sw	a5,-24(s0)
8000248c:	f9c42783          	lw	a5,-100(s0)
80002490:	00178713          	addi	a4,a5,1
80002494:	f8e42e23          	sw	a4,-100(s0)
80002498:	0007c783          	lbu	a5,0(a5)
8000249c:	fcf42023          	sw	a5,-64(s0)
800024a0:	fc042783          	lw	a5,-64(s0)
800024a4:	00079a63          	bnez	a5,800024b8 <_doprnt+0x248>
800024a8:	f9442783          	lw	a5,-108(s0)
800024ac:	02500513          	li	a0,37
800024b0:	000780e7          	jalr	a5
800024b4:	44c0006f          	j	80002900 <_doprnt+0x690>
800024b8:	fc0409a3          	sb	zero,-45(s0)
800024bc:	fc042783          	lw	a5,-64(s0)
800024c0:	fb878793          	addi	a5,a5,-72
800024c4:	03000713          	li	a4,48
800024c8:	26f76263          	bltu	a4,a5,8000272c <_doprnt+0x4bc>
800024cc:	00279713          	slli	a4,a5,0x2
800024d0:	800147b7          	lui	a5,0x80014
800024d4:	c5c78793          	addi	a5,a5,-932 # 80013c5c <_ctype_+0x8c>
800024d8:	00f707b3          	add	a5,a4,a5
800024dc:	0007a783          	lw	a5,0(a5)
800024e0:	00078067          	jr	a5
800024e4:	f9842783          	lw	a5,-104(s0)
800024e8:	00478713          	addi	a4,a5,4
800024ec:	f8e42c23          	sw	a4,-104(s0)
800024f0:	0007a783          	lw	a5,0(a5)
800024f4:	0ff7f793          	zext.b	a5,a5
800024f8:	faf40623          	sb	a5,-84(s0)
800024fc:	fa0406a3          	sb	zero,-83(s0)
80002500:	fc042e23          	sw	zero,-36(s0)
80002504:	02000793          	li	a5,32
80002508:	fef401a3          	sb	a5,-29(s0)
8000250c:	2340006f          	j	80002740 <_doprnt+0x4d0>
80002510:	f9842783          	lw	a5,-104(s0)
80002514:	00478713          	addi	a4,a5,4
80002518:	f8e42c23          	sw	a4,-104(s0)
8000251c:	0007a783          	lw	a5,0(a5)
80002520:	fef42423          	sw	a5,-24(s0)
80002524:	fe842783          	lw	a5,-24(s0)
80002528:	00079863          	bnez	a5,80002538 <_doprnt+0x2c8>
8000252c:	800147b7          	lui	a5,0x80014
80002530:	c5478793          	addi	a5,a5,-940 # 80013c54 <_ctype_+0x84>
80002534:	fef42423          	sw	a5,-24(s0)
80002538:	02000793          	li	a5,32
8000253c:	fef401a3          	sb	a5,-29(s0)
80002540:	2000006f          	j	80002740 <_doprnt+0x4d0>
80002544:	f9842783          	lw	a5,-104(s0)
80002548:	00478713          	addi	a4,a5,4
8000254c:	f8e42c23          	sw	a4,-104(s0)
80002550:	0007a783          	lw	a5,0(a5)
80002554:	fcf42623          	sw	a5,-52(s0)
80002558:	fcc42783          	lw	a5,-52(s0)
8000255c:	0007d663          	bgez	a5,80002568 <_doprnt+0x2f8>
80002560:	02d00793          	li	a5,45
80002564:	fcf409a3          	sb	a5,-45(s0)
80002568:	fe842583          	lw	a1,-24(s0)
8000256c:	fcc42503          	lw	a0,-52(s0)
80002570:	3a0000ef          	jal	80002910 <_prtl10>
80002574:	1cc0006f          	j	80002740 <_doprnt+0x4d0>
80002578:	fc040923          	sb	zero,-46(s0)
8000257c:	f9842783          	lw	a5,-104(s0)
80002580:	00478713          	addi	a4,a5,4
80002584:	f8e42c23          	sw	a4,-104(s0)
80002588:	0007a783          	lw	a5,0(a5)
8000258c:	fcf42623          	sw	a5,-52(s0)
80002590:	0240006f          	j	800025b4 <_doprnt+0x344>
80002594:	fcc42703          	lw	a4,-52(s0)
80002598:	c46537b7          	lui	a5,0xc4653
8000259c:	60078793          	addi	a5,a5,1536 # c4653600 <nnames+0x44636104>
800025a0:	00f707b3          	add	a5,a4,a5
800025a4:	fcf42623          	sw	a5,-52(s0)
800025a8:	fd244783          	lbu	a5,-46(s0)
800025ac:	00178793          	addi	a5,a5,1
800025b0:	fcf40923          	sb	a5,-46(s0)
800025b4:	fcc42783          	lw	a5,-52(s0)
800025b8:	fc07cee3          	bltz	a5,80002594 <_doprnt+0x324>
800025bc:	fe842583          	lw	a1,-24(s0)
800025c0:	fcc42503          	lw	a0,-52(s0)
800025c4:	34c000ef          	jal	80002910 <_prtl10>
800025c8:	fe842783          	lw	a5,-24(s0)
800025cc:	0007c783          	lbu	a5,0(a5)
800025d0:	fd244703          	lbu	a4,-46(s0)
800025d4:	00e787b3          	add	a5,a5,a4
800025d8:	0ff7f713          	zext.b	a4,a5
800025dc:	fe842783          	lw	a5,-24(s0)
800025e0:	00e78023          	sb	a4,0(a5)
800025e4:	fc042e23          	sw	zero,-36(s0)
800025e8:	1580006f          	j	80002740 <_doprnt+0x4d0>
800025ec:	f9842783          	lw	a5,-104(s0)
800025f0:	00478713          	addi	a4,a5,4
800025f4:	f8e42c23          	sw	a4,-104(s0)
800025f8:	0007a783          	lw	a5,0(a5)
800025fc:	fcf42623          	sw	a5,-52(s0)
80002600:	fe842583          	lw	a1,-24(s0)
80002604:	fcc42503          	lw	a0,-52(s0)
80002608:	46c000ef          	jal	80002a74 <_prtl8>
8000260c:	fc042e23          	sw	zero,-36(s0)
80002610:	1300006f          	j	80002740 <_doprnt+0x4d0>
80002614:	f9842783          	lw	a5,-104(s0)
80002618:	00478713          	addi	a4,a5,4
8000261c:	f8e42c23          	sw	a4,-104(s0)
80002620:	0007a783          	lw	a5,0(a5)
80002624:	fcf42623          	sw	a5,-52(s0)
80002628:	fe842583          	lw	a1,-24(s0)
8000262c:	fcc42503          	lw	a0,-52(s0)
80002630:	64c000ef          	jal	80002c7c <_prtX16>
80002634:	fc042e23          	sw	zero,-36(s0)
80002638:	1080006f          	j	80002740 <_doprnt+0x4d0>
8000263c:	f9842783          	lw	a5,-104(s0)
80002640:	00478713          	addi	a4,a5,4
80002644:	f8e42c23          	sw	a4,-104(s0)
80002648:	0007a783          	lw	a5,0(a5)
8000264c:	fcf42623          	sw	a5,-52(s0)
80002650:	fe842583          	lw	a1,-24(s0)
80002654:	fcc42503          	lw	a0,-52(s0)
80002658:	528000ef          	jal	80002b80 <_prtl16>
8000265c:	fc042e23          	sw	zero,-36(s0)
80002660:	0e00006f          	j	80002740 <_doprnt+0x4d0>
80002664:	f9842783          	lw	a5,-104(s0)
80002668:	00478713          	addi	a4,a5,4
8000266c:	f8e42c23          	sw	a4,-104(s0)
80002670:	0007a783          	lw	a5,0(a5)
80002674:	fcf42623          	sw	a5,-52(s0)
80002678:	fe842583          	lw	a1,-24(s0)
8000267c:	fcc42503          	lw	a0,-52(s0)
80002680:	5fc000ef          	jal	80002c7c <_prtX16>
80002684:	f9842783          	lw	a5,-104(s0)
80002688:	00478713          	addi	a4,a5,4
8000268c:	f8e42c23          	sw	a4,-104(s0)
80002690:	0007a783          	lw	a5,0(a5)
80002694:	fcf42623          	sw	a5,-52(s0)
80002698:	fe842783          	lw	a5,-24(s0)
8000269c:	00878793          	addi	a5,a5,8
800026a0:	00078593          	mv	a1,a5
800026a4:	fcc42503          	lw	a0,-52(s0)
800026a8:	5d4000ef          	jal	80002c7c <_prtX16>
800026ac:	fc042e23          	sw	zero,-36(s0)
800026b0:	0900006f          	j	80002740 <_doprnt+0x4d0>
800026b4:	f9842783          	lw	a5,-104(s0)
800026b8:	00478713          	addi	a4,a5,4
800026bc:	f8e42c23          	sw	a4,-104(s0)
800026c0:	0007a783          	lw	a5,0(a5)
800026c4:	fcf42623          	sw	a5,-52(s0)
800026c8:	fe842583          	lw	a1,-24(s0)
800026cc:	fcc42503          	lw	a0,-52(s0)
800026d0:	4b0000ef          	jal	80002b80 <_prtl16>
800026d4:	f9842783          	lw	a5,-104(s0)
800026d8:	00478713          	addi	a4,a5,4
800026dc:	f8e42c23          	sw	a4,-104(s0)
800026e0:	0007a783          	lw	a5,0(a5)
800026e4:	fcf42623          	sw	a5,-52(s0)
800026e8:	fe842783          	lw	a5,-24(s0)
800026ec:	00878793          	addi	a5,a5,8
800026f0:	00078593          	mv	a1,a5
800026f4:	fcc42503          	lw	a0,-52(s0)
800026f8:	488000ef          	jal	80002b80 <_prtl16>
800026fc:	fc042e23          	sw	zero,-36(s0)
80002700:	0400006f          	j	80002740 <_doprnt+0x4d0>
80002704:	f9842783          	lw	a5,-104(s0)
80002708:	00478713          	addi	a4,a5,4
8000270c:	f8e42c23          	sw	a4,-104(s0)
80002710:	0007a783          	lw	a5,0(a5)
80002714:	fcf42623          	sw	a5,-52(s0)
80002718:	fe842583          	lw	a1,-24(s0)
8000271c:	fcc42503          	lw	a0,-52(s0)
80002720:	658000ef          	jal	80002d78 <_prtl2>
80002724:	fc042e23          	sw	zero,-36(s0)
80002728:	0180006f          	j	80002740 <_doprnt+0x4d0>
8000272c:	f9442783          	lw	a5,-108(s0)
80002730:	fc042503          	lw	a0,-64(s0)
80002734:	000780e7          	jalr	a5
80002738:	0080006f          	j	80002740 <_doprnt+0x4d0>
8000273c:	00000013          	nop
80002740:	fe042223          	sw	zero,-28(s0)
80002744:	0100006f          	j	80002754 <_doprnt+0x4e4>
80002748:	fe442783          	lw	a5,-28(s0)
8000274c:	00178793          	addi	a5,a5,1
80002750:	fef42223          	sw	a5,-28(s0)
80002754:	fe442783          	lw	a5,-28(s0)
80002758:	fe842703          	lw	a4,-24(s0)
8000275c:	00f707b3          	add	a5,a4,a5
80002760:	0007c783          	lbu	a5,0(a5)
80002764:	fe0792e3          	bnez	a5,80002748 <_doprnt+0x4d8>
80002768:	fd842703          	lw	a4,-40(s0)
8000276c:	05000793          	li	a5,80
80002770:	00e7c663          	blt	a5,a4,8000277c <_doprnt+0x50c>
80002774:	fd842783          	lw	a5,-40(s0)
80002778:	0007d463          	bgez	a5,80002780 <_doprnt+0x510>
8000277c:	fc042c23          	sw	zero,-40(s0)
80002780:	fdc42703          	lw	a4,-36(s0)
80002784:	05000793          	li	a5,80
80002788:	00e7c663          	blt	a5,a4,80002794 <_doprnt+0x524>
8000278c:	fdc42783          	lw	a5,-36(s0)
80002790:	0007d463          	bgez	a5,80002798 <_doprnt+0x528>
80002794:	fc042e23          	sw	zero,-36(s0)
80002798:	fc042a23          	sw	zero,-44(s0)
8000279c:	fdc42783          	lw	a5,-36(s0)
800027a0:	00079663          	bnez	a5,800027ac <_doprnt+0x53c>
800027a4:	fd842783          	lw	a5,-40(s0)
800027a8:	04078863          	beqz	a5,800027f8 <_doprnt+0x588>
800027ac:	fdc42783          	lw	a5,-36(s0)
800027b0:	00078c63          	beqz	a5,800027c8 <_doprnt+0x558>
800027b4:	fe442703          	lw	a4,-28(s0)
800027b8:	fdc42783          	lw	a5,-36(s0)
800027bc:	00e7d663          	bge	a5,a4,800027c8 <_doprnt+0x558>
800027c0:	fdc42783          	lw	a5,-36(s0)
800027c4:	fef42223          	sw	a5,-28(s0)
800027c8:	fd842783          	lw	a5,-40(s0)
800027cc:	00078a63          	beqz	a5,800027e0 <_doprnt+0x570>
800027d0:	fd842703          	lw	a4,-40(s0)
800027d4:	fe442783          	lw	a5,-28(s0)
800027d8:	40f707b3          	sub	a5,a4,a5
800027dc:	fcf42a23          	sw	a5,-44(s0)
800027e0:	fd344703          	lbu	a4,-45(s0)
800027e4:	02d00793          	li	a5,45
800027e8:	00f71863          	bne	a4,a5,800027f8 <_doprnt+0x588>
800027ec:	fd442783          	lw	a5,-44(s0)
800027f0:	fff78793          	addi	a5,a5,-1
800027f4:	fcf42a23          	sw	a5,-44(s0)
800027f8:	fd344703          	lbu	a4,-45(s0)
800027fc:	02d00793          	li	a5,45
80002800:	02f71063          	bne	a4,a5,80002820 <_doprnt+0x5b0>
80002804:	fe344703          	lbu	a4,-29(s0)
80002808:	03000793          	li	a5,48
8000280c:	00f71a63          	bne	a4,a5,80002820 <_doprnt+0x5b0>
80002810:	fd344703          	lbu	a4,-45(s0)
80002814:	f9442783          	lw	a5,-108(s0)
80002818:	00070513          	mv	a0,a4
8000281c:	000780e7          	jalr	a5
80002820:	fc442783          	lw	a5,-60(s0)
80002824:	02079a63          	bnez	a5,80002858 <_doprnt+0x5e8>
80002828:	fe042623          	sw	zero,-20(s0)
8000282c:	0200006f          	j	8000284c <_doprnt+0x5dc>
80002830:	fe344703          	lbu	a4,-29(s0)
80002834:	f9442783          	lw	a5,-108(s0)
80002838:	00070513          	mv	a0,a4
8000283c:	000780e7          	jalr	a5
80002840:	fec42783          	lw	a5,-20(s0)
80002844:	00178793          	addi	a5,a5,1
80002848:	fef42623          	sw	a5,-20(s0)
8000284c:	fec42703          	lw	a4,-20(s0)
80002850:	fd442783          	lw	a5,-44(s0)
80002854:	fcf74ee3          	blt	a4,a5,80002830 <_doprnt+0x5c0>
80002858:	fd344703          	lbu	a4,-45(s0)
8000285c:	02d00793          	li	a5,45
80002860:	02f71063          	bne	a4,a5,80002880 <_doprnt+0x610>
80002864:	fe344703          	lbu	a4,-29(s0)
80002868:	02000793          	li	a5,32
8000286c:	00f71a63          	bne	a4,a5,80002880 <_doprnt+0x610>
80002870:	fd344703          	lbu	a4,-45(s0)
80002874:	f9442783          	lw	a5,-108(s0)
80002878:	00070513          	mv	a0,a4
8000287c:	000780e7          	jalr	a5
80002880:	fe042623          	sw	zero,-20(s0)
80002884:	0300006f          	j	800028b4 <_doprnt+0x644>
80002888:	fec42783          	lw	a5,-20(s0)
8000288c:	fe842703          	lw	a4,-24(s0)
80002890:	00f707b3          	add	a5,a4,a5
80002894:	0007c783          	lbu	a5,0(a5)
80002898:	00078713          	mv	a4,a5
8000289c:	f9442783          	lw	a5,-108(s0)
800028a0:	00070513          	mv	a0,a4
800028a4:	000780e7          	jalr	a5
800028a8:	fec42783          	lw	a5,-20(s0)
800028ac:	00178793          	addi	a5,a5,1
800028b0:	fef42623          	sw	a5,-20(s0)
800028b4:	fec42703          	lw	a4,-20(s0)
800028b8:	fe442783          	lw	a5,-28(s0)
800028bc:	fcf746e3          	blt	a4,a5,80002888 <_doprnt+0x618>
800028c0:	fc442783          	lw	a5,-60(s0)
800028c4:	9e0780e3          	beqz	a5,800022a4 <_doprnt+0x34>
800028c8:	fe042623          	sw	zero,-20(s0)
800028cc:	0200006f          	j	800028ec <_doprnt+0x67c>
800028d0:	fe344703          	lbu	a4,-29(s0)
800028d4:	f9442783          	lw	a5,-108(s0)
800028d8:	00070513          	mv	a0,a4
800028dc:	000780e7          	jalr	a5
800028e0:	fec42783          	lw	a5,-20(s0)
800028e4:	00178793          	addi	a5,a5,1
800028e8:	fef42623          	sw	a5,-20(s0)
800028ec:	fec42703          	lw	a4,-20(s0)
800028f0:	fd442783          	lw	a5,-44(s0)
800028f4:	fcf74ee3          	blt	a4,a5,800028d0 <_doprnt+0x660>
800028f8:	9adff06f          	j	800022a4 <_doprnt+0x34>
800028fc:	00000013          	nop
80002900:	06c12083          	lw	ra,108(sp)
80002904:	06812403          	lw	s0,104(sp)
80002908:	07010113          	addi	sp,sp,112
8000290c:	00008067          	ret

80002910 <_prtl10>:
80002910:	fd010113          	addi	sp,sp,-48
80002914:	02812623          	sw	s0,44(sp)
80002918:	03010413          	addi	s0,sp,48
8000291c:	fca42e23          	sw	a0,-36(s0)
80002920:	fcb42c23          	sw	a1,-40(s0)
80002924:	fe040023          	sb	zero,-32(s0)
80002928:	fdc42783          	lw	a5,-36(s0)
8000292c:	0207d263          	bgez	a5,80002950 <_prtl10+0x40>
80002930:	fdc42703          	lw	a4,-36(s0)
80002934:	00a00793          	li	a5,10
80002938:	02f767b3          	rem	a5,a4,a5
8000293c:	0ff7f793          	zext.b	a5,a5
80002940:	03000713          	li	a4,48
80002944:	40f707b3          	sub	a5,a4,a5
80002948:	0ff7f793          	zext.b	a5,a5
8000294c:	01c0006f          	j	80002968 <_prtl10+0x58>
80002950:	fdc42703          	lw	a4,-36(s0)
80002954:	00a00793          	li	a5,10
80002958:	02f767b3          	rem	a5,a4,a5
8000295c:	0ff7f793          	zext.b	a5,a5
80002960:	03078793          	addi	a5,a5,48
80002964:	0ff7f793          	zext.b	a5,a5
80002968:	fef400a3          	sb	a5,-31(s0)
8000296c:	fdc42783          	lw	a5,-36(s0)
80002970:	0007d663          	bgez	a5,8000297c <_prtl10+0x6c>
80002974:	ff600793          	li	a5,-10
80002978:	0080006f          	j	80002980 <_prtl10+0x70>
8000297c:	00a00793          	li	a5,10
80002980:	fdc42703          	lw	a4,-36(s0)
80002984:	02f747b3          	div	a5,a4,a5
80002988:	fcf42e23          	sw	a5,-36(s0)
8000298c:	00200793          	li	a5,2
80002990:	fef42623          	sw	a5,-20(s0)
80002994:	0480006f          	j	800029dc <_prtl10+0xcc>
80002998:	fdc42703          	lw	a4,-36(s0)
8000299c:	00a00793          	li	a5,10
800029a0:	02f767b3          	rem	a5,a4,a5
800029a4:	0ff7f793          	zext.b	a5,a5
800029a8:	03078793          	addi	a5,a5,48
800029ac:	0ff7f713          	zext.b	a4,a5
800029b0:	fec42783          	lw	a5,-20(s0)
800029b4:	ff078793          	addi	a5,a5,-16
800029b8:	008787b3          	add	a5,a5,s0
800029bc:	fee78823          	sb	a4,-16(a5)
800029c0:	fdc42703          	lw	a4,-36(s0)
800029c4:	00a00793          	li	a5,10
800029c8:	02f747b3          	div	a5,a4,a5
800029cc:	fcf42e23          	sw	a5,-36(s0)
800029d0:	fec42783          	lw	a5,-20(s0)
800029d4:	00178793          	addi	a5,a5,1
800029d8:	fef42623          	sw	a5,-20(s0)
800029dc:	fec42703          	lw	a4,-20(s0)
800029e0:	00a00793          	li	a5,10
800029e4:	fae7dae3          	bge	a5,a4,80002998 <_prtl10+0x88>
800029e8:	00a00793          	li	a5,10
800029ec:	fef42623          	sw	a5,-20(s0)
800029f0:	0100006f          	j	80002a00 <_prtl10+0xf0>
800029f4:	fec42783          	lw	a5,-20(s0)
800029f8:	fff78793          	addi	a5,a5,-1
800029fc:	fef42623          	sw	a5,-20(s0)
80002a00:	fec42783          	lw	a5,-20(s0)
80002a04:	ff078793          	addi	a5,a5,-16
80002a08:	008787b3          	add	a5,a5,s0
80002a0c:	ff07c703          	lbu	a4,-16(a5)
80002a10:	03000793          	li	a5,48
80002a14:	fef700e3          	beq	a4,a5,800029f4 <_prtl10+0xe4>
80002a18:	fec42783          	lw	a5,-20(s0)
80002a1c:	02079e63          	bnez	a5,80002a58 <_prtl10+0x148>
80002a20:	fec42783          	lw	a5,-20(s0)
80002a24:	00178793          	addi	a5,a5,1
80002a28:	fef42623          	sw	a5,-20(s0)
80002a2c:	02c0006f          	j	80002a58 <_prtl10+0x148>
80002a30:	fec42703          	lw	a4,-20(s0)
80002a34:	fff70793          	addi	a5,a4,-1
80002a38:	fef42623          	sw	a5,-20(s0)
80002a3c:	fd842783          	lw	a5,-40(s0)
80002a40:	00178693          	addi	a3,a5,1
80002a44:	fcd42c23          	sw	a3,-40(s0)
80002a48:	ff070713          	addi	a4,a4,-16
80002a4c:	00870733          	add	a4,a4,s0
80002a50:	ff074703          	lbu	a4,-16(a4)
80002a54:	00e78023          	sb	a4,0(a5)
80002a58:	fec42783          	lw	a5,-20(s0)
80002a5c:	fc07dae3          	bgez	a5,80002a30 <_prtl10+0x120>
80002a60:	00000013          	nop
80002a64:	00000013          	nop
80002a68:	02c12403          	lw	s0,44(sp)
80002a6c:	03010113          	addi	sp,sp,48
80002a70:	00008067          	ret

80002a74 <_prtl8>:
80002a74:	fd010113          	addi	sp,sp,-48
80002a78:	02812623          	sw	s0,44(sp)
80002a7c:	03010413          	addi	s0,sp,48
80002a80:	fca42e23          	sw	a0,-36(s0)
80002a84:	fcb42c23          	sw	a1,-40(s0)
80002a88:	fe040023          	sb	zero,-32(s0)
80002a8c:	00100793          	li	a5,1
80002a90:	fef42623          	sw	a5,-20(s0)
80002a94:	0440006f          	j	80002ad8 <_prtl8+0x64>
80002a98:	fdc42783          	lw	a5,-36(s0)
80002a9c:	0ff7f793          	zext.b	a5,a5
80002aa0:	0077f793          	andi	a5,a5,7
80002aa4:	0ff7f793          	zext.b	a5,a5
80002aa8:	03078793          	addi	a5,a5,48
80002aac:	0ff7f713          	zext.b	a4,a5
80002ab0:	fec42783          	lw	a5,-20(s0)
80002ab4:	ff078793          	addi	a5,a5,-16
80002ab8:	008787b3          	add	a5,a5,s0
80002abc:	fee78823          	sb	a4,-16(a5)
80002ac0:	fdc42783          	lw	a5,-36(s0)
80002ac4:	4037d793          	srai	a5,a5,0x3
80002ac8:	fcf42e23          	sw	a5,-36(s0)
80002acc:	fec42783          	lw	a5,-20(s0)
80002ad0:	00178793          	addi	a5,a5,1
80002ad4:	fef42623          	sw	a5,-20(s0)
80002ad8:	fec42703          	lw	a4,-20(s0)
80002adc:	00b00793          	li	a5,11
80002ae0:	fae7dce3          	bge	a5,a4,80002a98 <_prtl8+0x24>
80002ae4:	feb44783          	lbu	a5,-21(s0)
80002ae8:	0337f793          	andi	a5,a5,51
80002aec:	0ff7f793          	zext.b	a5,a5
80002af0:	fef405a3          	sb	a5,-21(s0)
80002af4:	00b00793          	li	a5,11
80002af8:	fef42623          	sw	a5,-20(s0)
80002afc:	0100006f          	j	80002b0c <_prtl8+0x98>
80002b00:	fec42783          	lw	a5,-20(s0)
80002b04:	fff78793          	addi	a5,a5,-1
80002b08:	fef42623          	sw	a5,-20(s0)
80002b0c:	fec42783          	lw	a5,-20(s0)
80002b10:	ff078793          	addi	a5,a5,-16
80002b14:	008787b3          	add	a5,a5,s0
80002b18:	ff07c703          	lbu	a4,-16(a5)
80002b1c:	03000793          	li	a5,48
80002b20:	fef700e3          	beq	a4,a5,80002b00 <_prtl8+0x8c>
80002b24:	fec42783          	lw	a5,-20(s0)
80002b28:	02079e63          	bnez	a5,80002b64 <_prtl8+0xf0>
80002b2c:	fec42783          	lw	a5,-20(s0)
80002b30:	00178793          	addi	a5,a5,1
80002b34:	fef42623          	sw	a5,-20(s0)
80002b38:	02c0006f          	j	80002b64 <_prtl8+0xf0>
80002b3c:	fec42703          	lw	a4,-20(s0)
80002b40:	fff70793          	addi	a5,a4,-1
80002b44:	fef42623          	sw	a5,-20(s0)
80002b48:	fd842783          	lw	a5,-40(s0)
80002b4c:	00178693          	addi	a3,a5,1
80002b50:	fcd42c23          	sw	a3,-40(s0)
80002b54:	ff070713          	addi	a4,a4,-16
80002b58:	00870733          	add	a4,a4,s0
80002b5c:	ff074703          	lbu	a4,-16(a4)
80002b60:	00e78023          	sb	a4,0(a5)
80002b64:	fec42783          	lw	a5,-20(s0)
80002b68:	fc07dae3          	bgez	a5,80002b3c <_prtl8+0xc8>
80002b6c:	00000013          	nop
80002b70:	00000013          	nop
80002b74:	02c12403          	lw	s0,44(sp)
80002b78:	03010113          	addi	sp,sp,48
80002b7c:	00008067          	ret

80002b80 <_prtl16>:
80002b80:	fd010113          	addi	sp,sp,-48
80002b84:	02812623          	sw	s0,44(sp)
80002b88:	03010413          	addi	s0,sp,48
80002b8c:	fca42e23          	sw	a0,-36(s0)
80002b90:	fcb42c23          	sw	a1,-40(s0)
80002b94:	fe040023          	sb	zero,-32(s0)
80002b98:	00100793          	li	a5,1
80002b9c:	fef42623          	sw	a5,-20(s0)
80002ba0:	0440006f          	j	80002be4 <_prtl16+0x64>
80002ba4:	fdc42783          	lw	a5,-36(s0)
80002ba8:	00f7f793          	andi	a5,a5,15
80002bac:	80014737          	lui	a4,0x80014
80002bb0:	d2070713          	addi	a4,a4,-736 # 80013d20 <_ctype_+0x150>
80002bb4:	00f707b3          	add	a5,a4,a5
80002bb8:	0007c703          	lbu	a4,0(a5)
80002bbc:	fec42783          	lw	a5,-20(s0)
80002bc0:	ff078793          	addi	a5,a5,-16
80002bc4:	008787b3          	add	a5,a5,s0
80002bc8:	fee78823          	sb	a4,-16(a5)
80002bcc:	fdc42783          	lw	a5,-36(s0)
80002bd0:	4047d793          	srai	a5,a5,0x4
80002bd4:	fcf42e23          	sw	a5,-36(s0)
80002bd8:	fec42783          	lw	a5,-20(s0)
80002bdc:	00178793          	addi	a5,a5,1
80002be0:	fef42623          	sw	a5,-20(s0)
80002be4:	fec42703          	lw	a4,-20(s0)
80002be8:	00800793          	li	a5,8
80002bec:	fae7dce3          	bge	a5,a4,80002ba4 <_prtl16+0x24>
80002bf0:	00800793          	li	a5,8
80002bf4:	fef42623          	sw	a5,-20(s0)
80002bf8:	0100006f          	j	80002c08 <_prtl16+0x88>
80002bfc:	fec42783          	lw	a5,-20(s0)
80002c00:	fff78793          	addi	a5,a5,-1
80002c04:	fef42623          	sw	a5,-20(s0)
80002c08:	fec42783          	lw	a5,-20(s0)
80002c0c:	ff078793          	addi	a5,a5,-16
80002c10:	008787b3          	add	a5,a5,s0
80002c14:	ff07c703          	lbu	a4,-16(a5)
80002c18:	03000793          	li	a5,48
80002c1c:	fef700e3          	beq	a4,a5,80002bfc <_prtl16+0x7c>
80002c20:	fec42783          	lw	a5,-20(s0)
80002c24:	02079e63          	bnez	a5,80002c60 <_prtl16+0xe0>
80002c28:	fec42783          	lw	a5,-20(s0)
80002c2c:	00178793          	addi	a5,a5,1
80002c30:	fef42623          	sw	a5,-20(s0)
80002c34:	02c0006f          	j	80002c60 <_prtl16+0xe0>
80002c38:	fec42703          	lw	a4,-20(s0)
80002c3c:	fff70793          	addi	a5,a4,-1
80002c40:	fef42623          	sw	a5,-20(s0)
80002c44:	fd842783          	lw	a5,-40(s0)
80002c48:	00178693          	addi	a3,a5,1
80002c4c:	fcd42c23          	sw	a3,-40(s0)
80002c50:	ff070713          	addi	a4,a4,-16
80002c54:	00870733          	add	a4,a4,s0
80002c58:	ff074703          	lbu	a4,-16(a4)
80002c5c:	00e78023          	sb	a4,0(a5)
80002c60:	fec42783          	lw	a5,-20(s0)
80002c64:	fc07dae3          	bgez	a5,80002c38 <_prtl16+0xb8>
80002c68:	00000013          	nop
80002c6c:	00000013          	nop
80002c70:	02c12403          	lw	s0,44(sp)
80002c74:	03010113          	addi	sp,sp,48
80002c78:	00008067          	ret

80002c7c <_prtX16>:
80002c7c:	fd010113          	addi	sp,sp,-48
80002c80:	02812623          	sw	s0,44(sp)
80002c84:	03010413          	addi	s0,sp,48
80002c88:	fca42e23          	sw	a0,-36(s0)
80002c8c:	fcb42c23          	sw	a1,-40(s0)
80002c90:	fe040023          	sb	zero,-32(s0)
80002c94:	00100793          	li	a5,1
80002c98:	fef42623          	sw	a5,-20(s0)
80002c9c:	0440006f          	j	80002ce0 <_prtX16+0x64>
80002ca0:	fdc42783          	lw	a5,-36(s0)
80002ca4:	00f7f793          	andi	a5,a5,15
80002ca8:	80014737          	lui	a4,0x80014
80002cac:	d3470713          	addi	a4,a4,-716 # 80013d34 <_ctype_+0x164>
80002cb0:	00f707b3          	add	a5,a4,a5
80002cb4:	0007c703          	lbu	a4,0(a5)
80002cb8:	fec42783          	lw	a5,-20(s0)
80002cbc:	ff078793          	addi	a5,a5,-16
80002cc0:	008787b3          	add	a5,a5,s0
80002cc4:	fee78823          	sb	a4,-16(a5)
80002cc8:	fdc42783          	lw	a5,-36(s0)
80002ccc:	4047d793          	srai	a5,a5,0x4
80002cd0:	fcf42e23          	sw	a5,-36(s0)
80002cd4:	fec42783          	lw	a5,-20(s0)
80002cd8:	00178793          	addi	a5,a5,1
80002cdc:	fef42623          	sw	a5,-20(s0)
80002ce0:	fec42703          	lw	a4,-20(s0)
80002ce4:	00800793          	li	a5,8
80002ce8:	fae7dce3          	bge	a5,a4,80002ca0 <_prtX16+0x24>
80002cec:	00800793          	li	a5,8
80002cf0:	fef42623          	sw	a5,-20(s0)
80002cf4:	0100006f          	j	80002d04 <_prtX16+0x88>
80002cf8:	fec42783          	lw	a5,-20(s0)
80002cfc:	fff78793          	addi	a5,a5,-1
80002d00:	fef42623          	sw	a5,-20(s0)
80002d04:	fec42783          	lw	a5,-20(s0)
80002d08:	ff078793          	addi	a5,a5,-16
80002d0c:	008787b3          	add	a5,a5,s0
80002d10:	ff07c703          	lbu	a4,-16(a5)
80002d14:	03000793          	li	a5,48
80002d18:	fef700e3          	beq	a4,a5,80002cf8 <_prtX16+0x7c>
80002d1c:	fec42783          	lw	a5,-20(s0)
80002d20:	02079e63          	bnez	a5,80002d5c <_prtX16+0xe0>
80002d24:	fec42783          	lw	a5,-20(s0)
80002d28:	00178793          	addi	a5,a5,1
80002d2c:	fef42623          	sw	a5,-20(s0)
80002d30:	02c0006f          	j	80002d5c <_prtX16+0xe0>
80002d34:	fec42703          	lw	a4,-20(s0)
80002d38:	fff70793          	addi	a5,a4,-1
80002d3c:	fef42623          	sw	a5,-20(s0)
80002d40:	fd842783          	lw	a5,-40(s0)
80002d44:	00178693          	addi	a3,a5,1
80002d48:	fcd42c23          	sw	a3,-40(s0)
80002d4c:	ff070713          	addi	a4,a4,-16
80002d50:	00870733          	add	a4,a4,s0
80002d54:	ff074703          	lbu	a4,-16(a4)
80002d58:	00e78023          	sb	a4,0(a5)
80002d5c:	fec42783          	lw	a5,-20(s0)
80002d60:	fc07dae3          	bgez	a5,80002d34 <_prtX16+0xb8>
80002d64:	00000013          	nop
80002d68:	00000013          	nop
80002d6c:	02c12403          	lw	s0,44(sp)
80002d70:	03010113          	addi	sp,sp,48
80002d74:	00008067          	ret

80002d78 <_prtl2>:
80002d78:	fb010113          	addi	sp,sp,-80
80002d7c:	04812623          	sw	s0,76(sp)
80002d80:	05010413          	addi	s0,sp,80
80002d84:	faa42e23          	sw	a0,-68(s0)
80002d88:	fab42c23          	sw	a1,-72(s0)
80002d8c:	fc040423          	sb	zero,-56(s0)
80002d90:	00100793          	li	a5,1
80002d94:	fef42623          	sw	a5,-20(s0)
80002d98:	0440006f          	j	80002ddc <_prtl2+0x64>
80002d9c:	fbc42783          	lw	a5,-68(s0)
80002da0:	0017f793          	andi	a5,a5,1
80002da4:	00079663          	bnez	a5,80002db0 <_prtl2+0x38>
80002da8:	03000793          	li	a5,48
80002dac:	0080006f          	j	80002db4 <_prtl2+0x3c>
80002db0:	03100793          	li	a5,49
80002db4:	fec42703          	lw	a4,-20(s0)
80002db8:	ff070713          	addi	a4,a4,-16
80002dbc:	00870733          	add	a4,a4,s0
80002dc0:	fcf70c23          	sb	a5,-40(a4)
80002dc4:	fbc42783          	lw	a5,-68(s0)
80002dc8:	4017d793          	srai	a5,a5,0x1
80002dcc:	faf42e23          	sw	a5,-68(s0)
80002dd0:	fec42783          	lw	a5,-20(s0)
80002dd4:	00178793          	addi	a5,a5,1
80002dd8:	fef42623          	sw	a5,-20(s0)
80002ddc:	fec42703          	lw	a4,-20(s0)
80002de0:	02000793          	li	a5,32
80002de4:	fae7dce3          	bge	a5,a4,80002d9c <_prtl2+0x24>
80002de8:	02000793          	li	a5,32
80002dec:	fef42623          	sw	a5,-20(s0)
80002df0:	0100006f          	j	80002e00 <_prtl2+0x88>
80002df4:	fec42783          	lw	a5,-20(s0)
80002df8:	fff78793          	addi	a5,a5,-1
80002dfc:	fef42623          	sw	a5,-20(s0)
80002e00:	fec42783          	lw	a5,-20(s0)
80002e04:	ff078793          	addi	a5,a5,-16
80002e08:	008787b3          	add	a5,a5,s0
80002e0c:	fd87c703          	lbu	a4,-40(a5)
80002e10:	03000793          	li	a5,48
80002e14:	fef700e3          	beq	a4,a5,80002df4 <_prtl2+0x7c>
80002e18:	fec42783          	lw	a5,-20(s0)
80002e1c:	02079e63          	bnez	a5,80002e58 <_prtl2+0xe0>
80002e20:	fec42783          	lw	a5,-20(s0)
80002e24:	00178793          	addi	a5,a5,1
80002e28:	fef42623          	sw	a5,-20(s0)
80002e2c:	02c0006f          	j	80002e58 <_prtl2+0xe0>
80002e30:	fec42703          	lw	a4,-20(s0)
80002e34:	fff70793          	addi	a5,a4,-1
80002e38:	fef42623          	sw	a5,-20(s0)
80002e3c:	fb842783          	lw	a5,-72(s0)
80002e40:	00178693          	addi	a3,a5,1
80002e44:	fad42c23          	sw	a3,-72(s0)
80002e48:	ff070713          	addi	a4,a4,-16
80002e4c:	00870733          	add	a4,a4,s0
80002e50:	fd874703          	lbu	a4,-40(a4)
80002e54:	00e78023          	sb	a4,0(a5)
80002e58:	fec42783          	lw	a5,-20(s0)
80002e5c:	fc07dae3          	bgez	a5,80002e30 <_prtl2+0xb8>
80002e60:	00000013          	nop
80002e64:	00000013          	nop
80002e68:	04c12403          	lw	s0,76(sp)
80002e6c:	05010113          	addi	sp,sp,80
80002e70:	00008067          	ret

80002e74 <_doscan>:
80002e74:	fa010113          	addi	sp,sp,-96
80002e78:	04112e23          	sw	ra,92(sp)
80002e7c:	04812c23          	sw	s0,88(sp)
80002e80:	04912a23          	sw	s1,84(sp)
80002e84:	05212823          	sw	s2,80(sp)
80002e88:	05312623          	sw	s3,76(sp)
80002e8c:	06010413          	addi	s0,sp,96
80002e90:	00050913          	mv	s2,a0
80002e94:	00058993          	mv	s3,a1
80002e98:	fac42e23          	sw	a2,-68(s0)
80002e9c:	fad42c23          	sw	a3,-72(s0)
80002ea0:	fae42a23          	sw	a4,-76(s0)
80002ea4:	faf42823          	sw	a5,-80(s0)
80002ea8:	fc042e23          	sw	zero,-36(s0)
80002eac:	fc042423          	sw	zero,-56(s0)
80002eb0:	00090793          	mv	a5,s2
80002eb4:	00178913          	addi	s2,a5,1
80002eb8:	0007c783          	lbu	a5,0(a5)
80002ebc:	00078493          	mv	s1,a5
80002ec0:	02500793          	li	a5,37
80002ec4:	04f48063          	beq	s1,a5,80002f04 <_doscan+0x90>
80002ec8:	02500793          	li	a5,37
80002ecc:	2497c463          	blt	a5,s1,80003114 <_doscan+0x2a0>
80002ed0:	02000793          	li	a5,32
80002ed4:	1ef48063          	beq	s1,a5,800030b4 <_doscan+0x240>
80002ed8:	02000793          	li	a5,32
80002edc:	2297cc63          	blt	a5,s1,80003114 <_doscan+0x2a0>
80002ee0:	00048e63          	beqz	s1,80002efc <_doscan+0x88>
80002ee4:	2204c863          	bltz	s1,80003114 <_doscan+0x2a0>
80002ee8:	00048793          	mv	a5,s1
80002eec:	ff778713          	addi	a4,a5,-9
80002ef0:	00100793          	li	a5,1
80002ef4:	22e7e063          	bltu	a5,a4,80003114 <_doscan+0x2a0>
80002ef8:	1bc0006f          	j	800030b4 <_doscan+0x240>
80002efc:	fdc42783          	lw	a5,-36(s0)
80002f00:	26c0006f          	j	8000316c <_doscan+0x2f8>
80002f04:	00090793          	mv	a5,s2
80002f08:	00178913          	addi	s2,a5,1
80002f0c:	0007c783          	lbu	a5,0(a5)
80002f10:	00078493          	mv	s1,a5
80002f14:	02500793          	li	a5,37
80002f18:	1ef48c63          	beq	s1,a5,80003110 <_doscan+0x29c>
80002f1c:	fc042a23          	sw	zero,-44(s0)
80002f20:	02a00793          	li	a5,42
80002f24:	00f48a63          	beq	s1,a5,80002f38 <_doscan+0xc4>
80002f28:	00098793          	mv	a5,s3
80002f2c:	00478993          	addi	s3,a5,4
80002f30:	fcf42a23          	sw	a5,-44(s0)
80002f34:	0140006f          	j	80002f48 <_doscan+0xd4>
80002f38:	00090793          	mv	a5,s2
80002f3c:	00178913          	addi	s2,a5,1
80002f40:	0007c783          	lbu	a5,0(a5)
80002f44:	00078493          	mv	s1,a5
80002f48:	fc042c23          	sw	zero,-40(s0)
80002f4c:	00100793          	li	a5,1
80002f50:	fcf42823          	sw	a5,-48(s0)
80002f54:	0340006f          	j	80002f88 <_doscan+0x114>
80002f58:	fd842703          	lw	a4,-40(s0)
80002f5c:	00070793          	mv	a5,a4
80002f60:	00279793          	slli	a5,a5,0x2
80002f64:	00e787b3          	add	a5,a5,a4
80002f68:	00179793          	slli	a5,a5,0x1
80002f6c:	00f487b3          	add	a5,s1,a5
80002f70:	fd078793          	addi	a5,a5,-48
80002f74:	fcf42c23          	sw	a5,-40(s0)
80002f78:	00090793          	mv	a5,s2
80002f7c:	00178913          	addi	s2,a5,1
80002f80:	0007c783          	lbu	a5,0(a5)
80002f84:	00078493          	mv	s1,a5
80002f88:	00048793          	mv	a5,s1
80002f8c:	00178713          	addi	a4,a5,1
80002f90:	800147b7          	lui	a5,0x80014
80002f94:	bd078793          	addi	a5,a5,-1072 # 80013bd0 <_ctype_>
80002f98:	00f707b3          	add	a5,a4,a5
80002f9c:	0007c783          	lbu	a5,0(a5)
80002fa0:	0047f793          	andi	a5,a5,4
80002fa4:	fa079ae3          	bnez	a5,80002f58 <_doscan+0xe4>
80002fa8:	fd842783          	lw	a5,-40(s0)
80002fac:	00079863          	bnez	a5,80002fbc <_doscan+0x148>
80002fb0:	000077b7          	lui	a5,0x7
80002fb4:	53078793          	addi	a5,a5,1328 # 7530 <_start-0x7fff8ad0>
80002fb8:	fcf42c23          	sw	a5,-40(s0)
80002fbc:	06c00793          	li	a5,108
80002fc0:	02f49063          	bne	s1,a5,80002fe0 <_doscan+0x16c>
80002fc4:	00090793          	mv	a5,s2
80002fc8:	00178913          	addi	s2,a5,1
80002fcc:	0007c783          	lbu	a5,0(a5)
80002fd0:	00078493          	mv	s1,a5
80002fd4:	00200793          	li	a5,2
80002fd8:	fcf42823          	sw	a5,-48(s0)
80002fdc:	0380006f          	j	80003014 <_doscan+0x1a0>
80002fe0:	06800793          	li	a5,104
80002fe4:	00f49e63          	bne	s1,a5,80003000 <_doscan+0x18c>
80002fe8:	fc042823          	sw	zero,-48(s0)
80002fec:	00090793          	mv	a5,s2
80002ff0:	00178913          	addi	s2,a5,1
80002ff4:	0007c783          	lbu	a5,0(a5)
80002ff8:	00078493          	mv	s1,a5
80002ffc:	0180006f          	j	80003014 <_doscan+0x1a0>
80003000:	05b00793          	li	a5,91
80003004:	00f49863          	bne	s1,a5,80003014 <_doscan+0x1a0>
80003008:	00090513          	mv	a0,s2
8000300c:	708000ef          	jal	80003714 <_getccl>
80003010:	00050913          	mv	s2,a0
80003014:	00048793          	mv	a5,s1
80003018:	00178713          	addi	a4,a5,1
8000301c:	800147b7          	lui	a5,0x80014
80003020:	bd078793          	addi	a5,a5,-1072 # 80013bd0 <_ctype_>
80003024:	00f707b3          	add	a5,a4,a5
80003028:	0007c783          	lbu	a5,0(a5)
8000302c:	0017f793          	andi	a5,a5,1
80003030:	00078863          	beqz	a5,80003040 <_doscan+0x1cc>
80003034:	02048493          	addi	s1,s1,32
80003038:	00200793          	li	a5,2
8000303c:	fcf42823          	sw	a5,-48(s0)
80003040:	00049663          	bnez	s1,8000304c <_doscan+0x1d8>
80003044:	fff00793          	li	a5,-1
80003048:	1240006f          	j	8000316c <_doscan+0x2f8>
8000304c:	fc840793          	addi	a5,s0,-56
80003050:	00f12023          	sw	a5,0(sp)
80003054:	fb042883          	lw	a7,-80(s0)
80003058:	fb442803          	lw	a6,-76(s0)
8000305c:	fb842783          	lw	a5,-72(s0)
80003060:	fbc42703          	lw	a4,-68(s0)
80003064:	fd042683          	lw	a3,-48(s0)
80003068:	fd842603          	lw	a2,-40(s0)
8000306c:	00048593          	mv	a1,s1
80003070:	fd442503          	lw	a0,-44(s0)
80003074:	118000ef          	jal	8000318c <_innum>
80003078:	00050793          	mv	a5,a0
8000307c:	00078c63          	beqz	a5,80003094 <_doscan+0x220>
80003080:	fd442783          	lw	a5,-44(s0)
80003084:	00078863          	beqz	a5,80003094 <_doscan+0x220>
80003088:	fdc42783          	lw	a5,-36(s0)
8000308c:	00178793          	addi	a5,a5,1
80003090:	fcf42e23          	sw	a5,-36(s0)
80003094:	fc842783          	lw	a5,-56(s0)
80003098:	0c078263          	beqz	a5,8000315c <_doscan+0x2e8>
8000309c:	fdc42783          	lw	a5,-36(s0)
800030a0:	00078663          	beqz	a5,800030ac <_doscan+0x238>
800030a4:	fdc42783          	lw	a5,-36(s0)
800030a8:	0c40006f          	j	8000316c <_doscan+0x2f8>
800030ac:	fff00793          	li	a5,-1
800030b0:	0bc0006f          	j	8000316c <_doscan+0x2f8>
800030b4:	00000013          	nop
800030b8:	fbc42783          	lw	a5,-68(s0)
800030bc:	fb042583          	lw	a1,-80(s0)
800030c0:	fb442503          	lw	a0,-76(s0)
800030c4:	000780e7          	jalr	a5
800030c8:	fca42623          	sw	a0,-52(s0)
800030cc:	fcc42703          	lw	a4,-52(s0)
800030d0:	02000793          	li	a5,32
800030d4:	fef702e3          	beq	a4,a5,800030b8 <_doscan+0x244>
800030d8:	fcc42703          	lw	a4,-52(s0)
800030dc:	00900793          	li	a5,9
800030e0:	fcf70ce3          	beq	a4,a5,800030b8 <_doscan+0x244>
800030e4:	fcc42703          	lw	a4,-52(s0)
800030e8:	00a00793          	li	a5,10
800030ec:	fcf706e3          	beq	a4,a5,800030b8 <_doscan+0x244>
800030f0:	fcc42703          	lw	a4,-52(s0)
800030f4:	ffe00793          	li	a5,-2
800030f8:	06f70663          	beq	a4,a5,80003164 <_doscan+0x2f0>
800030fc:	fb842783          	lw	a5,-72(s0)
80003100:	fb042583          	lw	a1,-80(s0)
80003104:	fb442503          	lw	a0,-76(s0)
80003108:	000780e7          	jalr	a5
8000310c:	0580006f          	j	80003164 <_doscan+0x2f0>
80003110:	00000013          	nop
80003114:	fbc42783          	lw	a5,-68(s0)
80003118:	fb042583          	lw	a1,-80(s0)
8000311c:	fb442503          	lw	a0,-76(s0)
80003120:	000780e7          	jalr	a5
80003124:	fca42623          	sw	a0,-52(s0)
80003128:	fcc42783          	lw	a5,-52(s0)
8000312c:	d89782e3          	beq	a5,s1,80002eb0 <_doscan+0x3c>
80003130:	fcc42703          	lw	a4,-52(s0)
80003134:	ffe00793          	li	a5,-2
80003138:	00f71663          	bne	a4,a5,80003144 <_doscan+0x2d0>
8000313c:	fff00793          	li	a5,-1
80003140:	02c0006f          	j	8000316c <_doscan+0x2f8>
80003144:	fb842783          	lw	a5,-72(s0)
80003148:	fb042583          	lw	a1,-80(s0)
8000314c:	fb442503          	lw	a0,-76(s0)
80003150:	000780e7          	jalr	a5
80003154:	fdc42783          	lw	a5,-36(s0)
80003158:	0140006f          	j	8000316c <_doscan+0x2f8>
8000315c:	00000013          	nop
80003160:	d51ff06f          	j	80002eb0 <_doscan+0x3c>
80003164:	00000013          	nop
80003168:	d49ff06f          	j	80002eb0 <_doscan+0x3c>
8000316c:	00078513          	mv	a0,a5
80003170:	05c12083          	lw	ra,92(sp)
80003174:	05812403          	lw	s0,88(sp)
80003178:	05412483          	lw	s1,84(sp)
8000317c:	05012903          	lw	s2,80(sp)
80003180:	04c12983          	lw	s3,76(sp)
80003184:	06010113          	addi	sp,sp,96
80003188:	00008067          	ret

8000318c <_innum>:
8000318c:	f8010113          	addi	sp,sp,-128
80003190:	06112e23          	sw	ra,124(sp)
80003194:	06812c23          	sw	s0,120(sp)
80003198:	06912a23          	sw	s1,116(sp)
8000319c:	07212823          	sw	s2,112(sp)
800031a0:	08010413          	addi	s0,sp,128
800031a4:	f8a42e23          	sw	a0,-100(s0)
800031a8:	f8b42c23          	sw	a1,-104(s0)
800031ac:	f8c42a23          	sw	a2,-108(s0)
800031b0:	f8d42823          	sw	a3,-112(s0)
800031b4:	f8e42623          	sw	a4,-116(s0)
800031b8:	f8f42423          	sw	a5,-120(s0)
800031bc:	f9042223          	sw	a6,-124(s0)
800031c0:	f9142023          	sw	a7,-128(s0)
800031c4:	f9842703          	lw	a4,-104(s0)
800031c8:	06300793          	li	a5,99
800031cc:	00f70e63          	beq	a4,a5,800031e8 <_innum+0x5c>
800031d0:	f9842703          	lw	a4,-104(s0)
800031d4:	07300793          	li	a5,115
800031d8:	00f70863          	beq	a4,a5,800031e8 <_innum+0x5c>
800031dc:	f9842703          	lw	a4,-104(s0)
800031e0:	05b00793          	li	a5,91
800031e4:	04f71263          	bne	a4,a5,80003228 <_innum+0x9c>
800031e8:	f9c42783          	lw	a5,-100(s0)
800031ec:	00078863          	beqz	a5,800031fc <_innum+0x70>
800031f0:	f9c42783          	lw	a5,-100(s0)
800031f4:	0007a503          	lw	a0,0(a5)
800031f8:	0080006f          	j	80003200 <_innum+0x74>
800031fc:	00000513          	li	a0,0
80003200:	00042883          	lw	a7,0(s0)
80003204:	f8042803          	lw	a6,-128(s0)
80003208:	f8442783          	lw	a5,-124(s0)
8000320c:	f8842703          	lw	a4,-120(s0)
80003210:	f8c42683          	lw	a3,-116(s0)
80003214:	f9442603          	lw	a2,-108(s0)
80003218:	f9842583          	lw	a1,-104(s0)
8000321c:	304000ef          	jal	80003520 <_instr>
80003220:	00050793          	mv	a5,a0
80003224:	2e00006f          	j	80003504 <_innum+0x378>
80003228:	fe042223          	sw	zero,-28(s0)
8000322c:	fe042423          	sw	zero,-24(s0)
80003230:	00a00913          	li	s2,10
80003234:	f9842703          	lw	a4,-104(s0)
80003238:	06f00793          	li	a5,111
8000323c:	00f71663          	bne	a4,a5,80003248 <_innum+0xbc>
80003240:	00800913          	li	s2,8
80003244:	0140006f          	j	80003258 <_innum+0xcc>
80003248:	f9842703          	lw	a4,-104(s0)
8000324c:	07800793          	li	a5,120
80003250:	00f71463          	bne	a4,a5,80003258 <_innum+0xcc>
80003254:	01000913          	li	s2,16
80003258:	fa040493          	addi	s1,s0,-96
8000325c:	fe042623          	sw	zero,-20(s0)
80003260:	00000013          	nop
80003264:	f8c42783          	lw	a5,-116(s0)
80003268:	f8042583          	lw	a1,-128(s0)
8000326c:	f8442503          	lw	a0,-124(s0)
80003270:	000780e7          	jalr	a5
80003274:	00050793          	mv	a5,a0
80003278:	0ff7f093          	zext.b	ra,a5
8000327c:	02000793          	li	a5,32
80003280:	fef082e3          	beq	ra,a5,80003264 <_innum+0xd8>
80003284:	00900793          	li	a5,9
80003288:	fcf08ee3          	beq	ra,a5,80003264 <_innum+0xd8>
8000328c:	00a00793          	li	a5,10
80003290:	fcf08ae3          	beq	ra,a5,80003264 <_innum+0xd8>
80003294:	02d00793          	li	a5,45
80003298:	04f09263          	bne	ra,a5,800032dc <_innum+0x150>
8000329c:	fec42783          	lw	a5,-20(s0)
800032a0:	00178793          	addi	a5,a5,1
800032a4:	fef42623          	sw	a5,-20(s0)
800032a8:	00048793          	mv	a5,s1
800032ac:	00178493          	addi	s1,a5,1
800032b0:	00178023          	sb	ra,0(a5)
800032b4:	f8c42783          	lw	a5,-116(s0)
800032b8:	f8042583          	lw	a1,-128(s0)
800032bc:	f8442503          	lw	a0,-124(s0)
800032c0:	000780e7          	jalr	a5
800032c4:	00050793          	mv	a5,a0
800032c8:	0ff7f093          	zext.b	ra,a5
800032cc:	f9442783          	lw	a5,-108(s0)
800032d0:	fff78793          	addi	a5,a5,-1
800032d4:	f8f42a23          	sw	a5,-108(s0)
800032d8:	1540006f          	j	8000342c <_innum+0x2a0>
800032dc:	02b00793          	li	a5,43
800032e0:	14f09663          	bne	ra,a5,8000342c <_innum+0x2a0>
800032e4:	f9442783          	lw	a5,-108(s0)
800032e8:	fff78793          	addi	a5,a5,-1
800032ec:	f8f42a23          	sw	a5,-108(s0)
800032f0:	f8c42783          	lw	a5,-116(s0)
800032f4:	f8042583          	lw	a1,-128(s0)
800032f8:	f8442503          	lw	a0,-124(s0)
800032fc:	000780e7          	jalr	a5
80003300:	00050793          	mv	a5,a0
80003304:	0ff7f093          	zext.b	ra,a5
80003308:	1240006f          	j	8000342c <_innum+0x2a0>
8000330c:	00008793          	mv	a5,ra
80003310:	00178713          	addi	a4,a5,1
80003314:	800147b7          	lui	a5,0x80014
80003318:	bd078793          	addi	a5,a5,-1072 # 80013bd0 <_ctype_>
8000331c:	00f707b3          	add	a5,a4,a5
80003320:	0007c783          	lbu	a5,0(a5)
80003324:	0047f793          	andi	a5,a5,4
80003328:	00079663          	bnez	a5,80003334 <_innum+0x1a8>
8000332c:	01000793          	li	a5,16
80003330:	10f91863          	bne	s2,a5,80003440 <_innum+0x2b4>
80003334:	06000793          	li	a5,96
80003338:	0017f663          	bgeu	a5,ra,80003344 <_innum+0x1b8>
8000333c:	06600793          	li	a5,102
80003340:	0017fa63          	bgeu	a5,ra,80003354 <_innum+0x1c8>
80003344:	04000793          	li	a5,64
80003348:	0e17fc63          	bgeu	a5,ra,80003440 <_innum+0x2b4>
8000334c:	04600793          	li	a5,70
80003350:	0e17e863          	bltu	a5,ra,80003440 <_innum+0x2b4>
80003354:	fe842783          	lw	a5,-24(s0)
80003358:	00178793          	addi	a5,a5,1
8000335c:	fef42423          	sw	a5,-24(s0)
80003360:	00800793          	li	a5,8
80003364:	00f91a63          	bne	s2,a5,80003378 <_innum+0x1ec>
80003368:	fe442783          	lw	a5,-28(s0)
8000336c:	00379793          	slli	a5,a5,0x3
80003370:	fef42223          	sw	a5,-28(s0)
80003374:	0340006f          	j	800033a8 <_innum+0x21c>
80003378:	00a00793          	li	a5,10
8000337c:	02f91063          	bne	s2,a5,8000339c <_innum+0x210>
80003380:	fe442783          	lw	a5,-28(s0)
80003384:	00279713          	slli	a4,a5,0x2
80003388:	fe442783          	lw	a5,-28(s0)
8000338c:	00f707b3          	add	a5,a4,a5
80003390:	00179793          	slli	a5,a5,0x1
80003394:	fef42223          	sw	a5,-28(s0)
80003398:	0100006f          	j	800033a8 <_innum+0x21c>
8000339c:	fe442783          	lw	a5,-28(s0)
800033a0:	00479793          	slli	a5,a5,0x4
800033a4:	fef42223          	sw	a5,-28(s0)
800033a8:	fe142023          	sw	ra,-32(s0)
800033ac:	02f00793          	li	a5,47
800033b0:	0017fc63          	bgeu	a5,ra,800033c8 <_innum+0x23c>
800033b4:	03900793          	li	a5,57
800033b8:	0017e863          	bltu	a5,ra,800033c8 <_innum+0x23c>
800033bc:	fd008793          	addi	a5,ra,-48
800033c0:	0ff7f093          	zext.b	ra,a5
800033c4:	0280006f          	j	800033ec <_innum+0x260>
800033c8:	06000793          	li	a5,96
800033cc:	0017fc63          	bgeu	a5,ra,800033e4 <_innum+0x258>
800033d0:	06600793          	li	a5,102
800033d4:	0017e863          	bltu	a5,ra,800033e4 <_innum+0x258>
800033d8:	fa908793          	addi	a5,ra,-87
800033dc:	0ff7f093          	zext.b	ra,a5
800033e0:	00c0006f          	j	800033ec <_innum+0x260>
800033e4:	fc908793          	addi	a5,ra,-55
800033e8:	0ff7f093          	zext.b	ra,a5
800033ec:	00008713          	mv	a4,ra
800033f0:	fe442783          	lw	a5,-28(s0)
800033f4:	00e787b3          	add	a5,a5,a4
800033f8:	fef42223          	sw	a5,-28(s0)
800033fc:	fe042783          	lw	a5,-32(s0)
80003400:	0ff7f093          	zext.b	ra,a5
80003404:	00000013          	nop
80003408:	00048793          	mv	a5,s1
8000340c:	00178493          	addi	s1,a5,1
80003410:	00178023          	sb	ra,0(a5)
80003414:	f8c42783          	lw	a5,-116(s0)
80003418:	f8042583          	lw	a1,-128(s0)
8000341c:	f8442503          	lw	a0,-124(s0)
80003420:	000780e7          	jalr	a5
80003424:	00050793          	mv	a5,a0
80003428:	0ff7f093          	zext.b	ra,a5
8000342c:	f9442783          	lw	a5,-108(s0)
80003430:	fff78793          	addi	a5,a5,-1
80003434:	f8f42a23          	sw	a5,-108(s0)
80003438:	f9442783          	lw	a5,-108(s0)
8000343c:	ec07d8e3          	bgez	a5,8000330c <_innum+0x180>
80003440:	fec42783          	lw	a5,-20(s0)
80003444:	00078863          	beqz	a5,80003454 <_innum+0x2c8>
80003448:	fe442783          	lw	a5,-28(s0)
8000344c:	40f007b3          	neg	a5,a5
80003450:	fef42223          	sw	a5,-28(s0)
80003454:	f8842783          	lw	a5,-120(s0)
80003458:	f8042583          	lw	a1,-128(s0)
8000345c:	f8442503          	lw	a0,-124(s0)
80003460:	000780e7          	jalr	a5
80003464:	00042783          	lw	a5,0(s0)
80003468:	0007a023          	sw	zero,0(a5)
8000346c:	f9c42783          	lw	a5,-100(s0)
80003470:	00078663          	beqz	a5,8000347c <_innum+0x2f0>
80003474:	fa040793          	addi	a5,s0,-96
80003478:	00f49663          	bne	s1,a5,80003484 <_innum+0x2f8>
8000347c:	00000793          	li	a5,0
80003480:	0840006f          	j	80003504 <_innum+0x378>
80003484:	00048793          	mv	a5,s1
80003488:	00078023          	sb	zero,0(a5)
8000348c:	f9042703          	lw	a4,-112(s0)
80003490:	00200793          	li	a5,2
80003494:	04f70c63          	beq	a4,a5,800034ec <_innum+0x360>
80003498:	f9042703          	lw	a4,-112(s0)
8000349c:	00200793          	li	a5,2
800034a0:	06e7c063          	blt	a5,a4,80003500 <_innum+0x374>
800034a4:	f9042783          	lw	a5,-112(s0)
800034a8:	00078a63          	beqz	a5,800034bc <_innum+0x330>
800034ac:	f9042703          	lw	a4,-112(s0)
800034b0:	00100793          	li	a5,1
800034b4:	02f70263          	beq	a4,a5,800034d8 <_innum+0x34c>
800034b8:	0480006f          	j	80003500 <_innum+0x374>
800034bc:	f9c42783          	lw	a5,-100(s0)
800034c0:	0007a783          	lw	a5,0(a5)
800034c4:	fe442703          	lw	a4,-28(s0)
800034c8:	01071713          	slli	a4,a4,0x10
800034cc:	41075713          	srai	a4,a4,0x10
800034d0:	00e79023          	sh	a4,0(a5)
800034d4:	02c0006f          	j	80003500 <_innum+0x374>
800034d8:	f9c42783          	lw	a5,-100(s0)
800034dc:	0007a783          	lw	a5,0(a5)
800034e0:	fe442703          	lw	a4,-28(s0)
800034e4:	00e7a023          	sw	a4,0(a5)
800034e8:	0180006f          	j	80003500 <_innum+0x374>
800034ec:	f9c42783          	lw	a5,-100(s0)
800034f0:	0007a783          	lw	a5,0(a5)
800034f4:	fe442703          	lw	a4,-28(s0)
800034f8:	00e7a023          	sw	a4,0(a5)
800034fc:	00000013          	nop
80003500:	00100793          	li	a5,1
80003504:	00078513          	mv	a0,a5
80003508:	07c12083          	lw	ra,124(sp)
8000350c:	07812403          	lw	s0,120(sp)
80003510:	07412483          	lw	s1,116(sp)
80003514:	07012903          	lw	s2,112(sp)
80003518:	08010113          	addi	sp,sp,128
8000351c:	00008067          	ret

80003520 <_instr>:
80003520:	fb010113          	addi	sp,sp,-80
80003524:	04112623          	sw	ra,76(sp)
80003528:	04812423          	sw	s0,72(sp)
8000352c:	04912223          	sw	s1,68(sp)
80003530:	05212023          	sw	s2,64(sp)
80003534:	03312e23          	sw	s3,60(sp)
80003538:	05010413          	addi	s0,sp,80
8000353c:	00050493          	mv	s1,a0
80003540:	fcb42623          	sw	a1,-52(s0)
80003544:	fcc42423          	sw	a2,-56(s0)
80003548:	fcd42223          	sw	a3,-60(s0)
8000354c:	fce42023          	sw	a4,-64(s0)
80003550:	faf42e23          	sw	a5,-68(s0)
80003554:	fb042c23          	sw	a6,-72(s0)
80003558:	fb142a23          	sw	a7,-76(s0)
8000355c:	fb442783          	lw	a5,-76(s0)
80003560:	0007a023          	sw	zero,0(a5)
80003564:	00048993          	mv	s3,s1
80003568:	fcc42703          	lw	a4,-52(s0)
8000356c:	06300793          	li	a5,99
80003570:	00f71e63          	bne	a4,a5,8000358c <_instr+0x6c>
80003574:	fc842703          	lw	a4,-56(s0)
80003578:	000077b7          	lui	a5,0x7
8000357c:	53078793          	addi	a5,a5,1328 # 7530 <_start-0x7fff8ad0>
80003580:	00f71663          	bne	a4,a5,8000358c <_instr+0x6c>
80003584:	00100793          	li	a5,1
80003588:	fcf42423          	sw	a5,-56(s0)
8000358c:	fc042e23          	sw	zero,-36(s0)
80003590:	fcc42703          	lw	a4,-52(s0)
80003594:	07300793          	li	a5,115
80003598:	00f71c63          	bne	a4,a5,800035b0 <_instr+0x90>
8000359c:	00100793          	li	a5,1
800035a0:	fcf42e23          	sw	a5,-36(s0)
800035a4:	00c0006f          	j	800035b0 <_instr+0x90>
800035a8:	ffe00793          	li	a5,-2
800035ac:	04f90063          	beq	s2,a5,800035ec <_instr+0xcc>
800035b0:	fc442783          	lw	a5,-60(s0)
800035b4:	fb842583          	lw	a1,-72(s0)
800035b8:	fbc42503          	lw	a0,-68(s0)
800035bc:	000780e7          	jalr	a5
800035c0:	00050793          	mv	a5,a0
800035c4:	00078913          	mv	s2,a5
800035c8:	800177b7          	lui	a5,0x80017
800035cc:	87078793          	addi	a5,a5,-1936 # 80016870 <_sctab>
800035d0:	012787b3          	add	a5,a5,s2
800035d4:	0007c783          	lbu	a5,0(a5)
800035d8:	00078713          	mv	a4,a5
800035dc:	fdc42783          	lw	a5,-36(s0)
800035e0:	00f777b3          	and	a5,a4,a5
800035e4:	fc0792e3          	bnez	a5,800035a8 <_instr+0x88>
800035e8:	0080006f          	j	800035f0 <_instr+0xd0>
800035ec:	00000013          	nop
800035f0:	00100793          	li	a5,1
800035f4:	fcf42e23          	sw	a5,-36(s0)
800035f8:	fcc42703          	lw	a4,-52(s0)
800035fc:	06300793          	li	a5,99
80003600:	00f71663          	bne	a4,a5,8000360c <_instr+0xec>
80003604:	fc042e23          	sw	zero,-36(s0)
80003608:	05c0006f          	j	80003664 <_instr+0x144>
8000360c:	fcc42703          	lw	a4,-52(s0)
80003610:	05b00793          	li	a5,91
80003614:	04f71863          	bne	a4,a5,80003664 <_instr+0x144>
80003618:	00200793          	li	a5,2
8000361c:	fcf42e23          	sw	a5,-36(s0)
80003620:	0440006f          	j	80003664 <_instr+0x144>
80003624:	00048a63          	beqz	s1,80003638 <_instr+0x118>
80003628:	00048793          	mv	a5,s1
8000362c:	00178493          	addi	s1,a5,1
80003630:	0ff97713          	zext.b	a4,s2
80003634:	00e78023          	sb	a4,0(a5)
80003638:	fc842783          	lw	a5,-56(s0)
8000363c:	fff78793          	addi	a5,a5,-1
80003640:	fcf42423          	sw	a5,-56(s0)
80003644:	fc842783          	lw	a5,-56(s0)
80003648:	04f05463          	blez	a5,80003690 <_instr+0x170>
8000364c:	fc442783          	lw	a5,-60(s0)
80003650:	fb842583          	lw	a1,-72(s0)
80003654:	fbc42503          	lw	a0,-68(s0)
80003658:	000780e7          	jalr	a5
8000365c:	00050793          	mv	a5,a0
80003660:	00078913          	mv	s2,a5
80003664:	ffe00793          	li	a5,-2
80003668:	02f90663          	beq	s2,a5,80003694 <_instr+0x174>
8000366c:	800177b7          	lui	a5,0x80017
80003670:	87078793          	addi	a5,a5,-1936 # 80016870 <_sctab>
80003674:	012787b3          	add	a5,a5,s2
80003678:	0007c783          	lbu	a5,0(a5)
8000367c:	00078713          	mv	a4,a5
80003680:	fdc42783          	lw	a5,-36(s0)
80003684:	00f777b3          	and	a5,a4,a5
80003688:	f8078ee3          	beqz	a5,80003624 <_instr+0x104>
8000368c:	0080006f          	j	80003694 <_instr+0x174>
80003690:	00000013          	nop
80003694:	ffe00793          	li	a5,-2
80003698:	02f90463          	beq	s2,a5,800036c0 <_instr+0x1a0>
8000369c:	fc842783          	lw	a5,-56(s0)
800036a0:	00f05a63          	blez	a5,800036b4 <_instr+0x194>
800036a4:	fc042783          	lw	a5,-64(s0)
800036a8:	fb842583          	lw	a1,-72(s0)
800036ac:	fbc42503          	lw	a0,-68(s0)
800036b0:	000780e7          	jalr	a5
800036b4:	fb442783          	lw	a5,-76(s0)
800036b8:	0007a023          	sw	zero,0(a5)
800036bc:	0100006f          	j	800036cc <_instr+0x1ac>
800036c0:	fb442783          	lw	a5,-76(s0)
800036c4:	00100713          	li	a4,1
800036c8:	00e7a023          	sw	a4,0(a5)
800036cc:	02048263          	beqz	s1,800036f0 <_instr+0x1d0>
800036d0:	03348063          	beq	s1,s3,800036f0 <_instr+0x1d0>
800036d4:	fcc42703          	lw	a4,-52(s0)
800036d8:	06300793          	li	a5,99
800036dc:	00f70663          	beq	a4,a5,800036e8 <_instr+0x1c8>
800036e0:	00048793          	mv	a5,s1
800036e4:	00078023          	sb	zero,0(a5)
800036e8:	00100793          	li	a5,1
800036ec:	0080006f          	j	800036f4 <_instr+0x1d4>
800036f0:	00000793          	li	a5,0
800036f4:	00078513          	mv	a0,a5
800036f8:	04c12083          	lw	ra,76(sp)
800036fc:	04812403          	lw	s0,72(sp)
80003700:	04412483          	lw	s1,68(sp)
80003704:	04012903          	lw	s2,64(sp)
80003708:	03c12983          	lw	s3,60(sp)
8000370c:	05010113          	addi	sp,sp,80
80003710:	00008067          	ret

80003714 <_getccl>:
80003714:	fd010113          	addi	sp,sp,-48
80003718:	02812623          	sw	s0,44(sp)
8000371c:	03010413          	addi	s0,sp,48
80003720:	fca42e23          	sw	a0,-36(s0)
80003724:	fe042423          	sw	zero,-24(s0)
80003728:	fdc42783          	lw	a5,-36(s0)
8000372c:	0007c703          	lbu	a4,0(a5)
80003730:	05e00793          	li	a5,94
80003734:	00f71e63          	bne	a4,a5,80003750 <_getccl+0x3c>
80003738:	fe842783          	lw	a5,-24(s0)
8000373c:	00178793          	addi	a5,a5,1
80003740:	fef42423          	sw	a5,-24(s0)
80003744:	fdc42783          	lw	a5,-36(s0)
80003748:	00178793          	addi	a5,a5,1
8000374c:	fcf42e23          	sw	a5,-36(s0)
80003750:	fe042623          	sw	zero,-20(s0)
80003754:	07c0006f          	j	800037d0 <_getccl+0xbc>
80003758:	fe842783          	lw	a5,-24(s0)
8000375c:	02078c63          	beqz	a5,80003794 <_getccl+0x80>
80003760:	800177b7          	lui	a5,0x80017
80003764:	87078713          	addi	a4,a5,-1936 # 80016870 <_sctab>
80003768:	fec42783          	lw	a5,-20(s0)
8000376c:	00f707b3          	add	a5,a4,a5
80003770:	0007c783          	lbu	a5,0(a5)
80003774:	ffd7f793          	andi	a5,a5,-3
80003778:	0ff7f713          	zext.b	a4,a5
8000377c:	800177b7          	lui	a5,0x80017
80003780:	87078693          	addi	a3,a5,-1936 # 80016870 <_sctab>
80003784:	fec42783          	lw	a5,-20(s0)
80003788:	00f687b3          	add	a5,a3,a5
8000378c:	00e78023          	sb	a4,0(a5)
80003790:	0340006f          	j	800037c4 <_getccl+0xb0>
80003794:	800177b7          	lui	a5,0x80017
80003798:	87078713          	addi	a4,a5,-1936 # 80016870 <_sctab>
8000379c:	fec42783          	lw	a5,-20(s0)
800037a0:	00f707b3          	add	a5,a4,a5
800037a4:	0007c783          	lbu	a5,0(a5)
800037a8:	0027e793          	ori	a5,a5,2
800037ac:	0ff7f713          	zext.b	a4,a5
800037b0:	800177b7          	lui	a5,0x80017
800037b4:	87078693          	addi	a3,a5,-1936 # 80016870 <_sctab>
800037b8:	fec42783          	lw	a5,-20(s0)
800037bc:	00f687b3          	add	a5,a3,a5
800037c0:	00e78023          	sb	a4,0(a5)
800037c4:	fec42783          	lw	a5,-20(s0)
800037c8:	00178793          	addi	a5,a5,1
800037cc:	fef42623          	sw	a5,-20(s0)
800037d0:	fec42703          	lw	a4,-20(s0)
800037d4:	07f00793          	li	a5,127
800037d8:	f8e7d0e3          	bge	a5,a4,80003758 <_getccl+0x44>
800037dc:	0940006f          	j	80003870 <_getccl+0x15c>
800037e0:	fe842783          	lw	a5,-24(s0)
800037e4:	02078e63          	beqz	a5,80003820 <_getccl+0x10c>
800037e8:	fec42783          	lw	a5,-20(s0)
800037ec:	00178713          	addi	a4,a5,1
800037f0:	fee42623          	sw	a4,-20(s0)
800037f4:	80017737          	lui	a4,0x80017
800037f8:	87070713          	addi	a4,a4,-1936 # 80016870 <_sctab>
800037fc:	00f70733          	add	a4,a4,a5
80003800:	00074703          	lbu	a4,0(a4)
80003804:	00276713          	ori	a4,a4,2
80003808:	0ff77713          	zext.b	a4,a4
8000380c:	800176b7          	lui	a3,0x80017
80003810:	87068693          	addi	a3,a3,-1936 # 80016870 <_sctab>
80003814:	00f687b3          	add	a5,a3,a5
80003818:	00e78023          	sb	a4,0(a5)
8000381c:	0380006f          	j	80003854 <_getccl+0x140>
80003820:	fec42783          	lw	a5,-20(s0)
80003824:	00178713          	addi	a4,a5,1
80003828:	fee42623          	sw	a4,-20(s0)
8000382c:	80017737          	lui	a4,0x80017
80003830:	87070713          	addi	a4,a4,-1936 # 80016870 <_sctab>
80003834:	00f70733          	add	a4,a4,a5
80003838:	00074703          	lbu	a4,0(a4)
8000383c:	ffd77713          	andi	a4,a4,-3
80003840:	0ff77713          	zext.b	a4,a4
80003844:	800176b7          	lui	a3,0x80017
80003848:	87068693          	addi	a3,a3,-1936 # 80016870 <_sctab>
8000384c:	00f687b3          	add	a5,a3,a5
80003850:	00e78023          	sb	a4,0(a5)
80003854:	fec42783          	lw	a5,-20(s0)
80003858:	00079c63          	bnez	a5,80003870 <_getccl+0x15c>
8000385c:	fdc42783          	lw	a5,-36(s0)
80003860:	fff78793          	addi	a5,a5,-1
80003864:	fcf42e23          	sw	a5,-36(s0)
80003868:	fdc42783          	lw	a5,-36(s0)
8000386c:	02c0006f          	j	80003898 <_getccl+0x184>
80003870:	fdc42783          	lw	a5,-36(s0)
80003874:	00178713          	addi	a4,a5,1
80003878:	fce42e23          	sw	a4,-36(s0)
8000387c:	0007c783          	lbu	a5,0(a5)
80003880:	fef42623          	sw	a5,-20(s0)
80003884:	fec42783          	lw	a5,-20(s0)
80003888:	07f7f713          	andi	a4,a5,127
8000388c:	05d00793          	li	a5,93
80003890:	f4f718e3          	bne	a4,a5,800037e0 <_getccl+0xcc>
80003894:	fdc42783          	lw	a5,-36(s0)
80003898:	00078513          	mv	a0,a5
8000389c:	02c12403          	lw	s0,44(sp)
800038a0:	03010113          	addi	sp,sp,48
800038a4:	00008067          	ret

800038a8 <_fdoprnt2>:
800038a8:	f8010113          	addi	sp,sp,-128
800038ac:	06112e23          	sw	ra,124(sp)
800038b0:	06812c23          	sw	s0,120(sp)
800038b4:	08010413          	addi	s0,sp,128
800038b8:	f8a42e23          	sw	a0,-100(s0)
800038bc:	f8b42c23          	sw	a1,-104(s0)
800038c0:	f8c42a23          	sw	a2,-108(s0)
800038c4:	f8d42823          	sw	a3,-112(s0)
800038c8:	f8e42623          	sw	a4,-116(s0)
800038cc:	0200006f          	j	800038ec <_fdoprnt2+0x44>
800038d0:	fc842783          	lw	a5,-56(s0)
800038d4:	60078c63          	beqz	a5,80003eec <_fdoprnt2+0x644>
800038d8:	f9442783          	lw	a5,-108(s0)
800038dc:	fc842603          	lw	a2,-56(s0)
800038e0:	f9042583          	lw	a1,-112(s0)
800038e4:	f8c42503          	lw	a0,-116(s0)
800038e8:	000780e7          	jalr	a5
800038ec:	f9c42783          	lw	a5,-100(s0)
800038f0:	00178713          	addi	a4,a5,1
800038f4:	f8e42e23          	sw	a4,-100(s0)
800038f8:	0007c783          	lbu	a5,0(a5)
800038fc:	fcf42423          	sw	a5,-56(s0)
80003900:	fc842703          	lw	a4,-56(s0)
80003904:	02500793          	li	a5,37
80003908:	fcf714e3          	bne	a4,a5,800038d0 <_fdoprnt2+0x28>
8000390c:	f9c42783          	lw	a5,-100(s0)
80003910:	0007c703          	lbu	a4,0(a5)
80003914:	02500793          	li	a5,37
80003918:	02f71863          	bne	a4,a5,80003948 <_fdoprnt2+0xa0>
8000391c:	f9c42783          	lw	a5,-100(s0)
80003920:	00178713          	addi	a4,a5,1
80003924:	f8e42e23          	sw	a4,-100(s0)
80003928:	0007c783          	lbu	a5,0(a5)
8000392c:	00078713          	mv	a4,a5
80003930:	f9442783          	lw	a5,-108(s0)
80003934:	00070613          	mv	a2,a4
80003938:	f9042583          	lw	a1,-112(s0)
8000393c:	f8c42503          	lw	a0,-116(s0)
80003940:	000780e7          	jalr	a5
80003944:	5a40006f          	j	80003ee8 <_fdoprnt2+0x640>
80003948:	f9c42783          	lw	a5,-100(s0)
8000394c:	0007c783          	lbu	a5,0(a5)
80003950:	fd378793          	addi	a5,a5,-45
80003954:	0017b793          	seqz	a5,a5
80003958:	0ff7f793          	zext.b	a5,a5
8000395c:	fcf42223          	sw	a5,-60(s0)
80003960:	fc442783          	lw	a5,-60(s0)
80003964:	00078863          	beqz	a5,80003974 <_fdoprnt2+0xcc>
80003968:	f9c42783          	lw	a5,-100(s0)
8000396c:	00178793          	addi	a5,a5,1
80003970:	f8f42e23          	sw	a5,-100(s0)
80003974:	f9c42783          	lw	a5,-100(s0)
80003978:	0007c703          	lbu	a4,0(a5)
8000397c:	03000793          	li	a5,48
80003980:	00f71c63          	bne	a4,a5,80003998 <_fdoprnt2+0xf0>
80003984:	f9c42783          	lw	a5,-100(s0)
80003988:	00178713          	addi	a4,a5,1
8000398c:	f8e42e23          	sw	a4,-100(s0)
80003990:	0007c783          	lbu	a5,0(a5)
80003994:	0080006f          	j	8000399c <_fdoprnt2+0xf4>
80003998:	02000793          	li	a5,32
8000399c:	fef401a3          	sb	a5,-29(s0)
800039a0:	fc042c23          	sw	zero,-40(s0)
800039a4:	f9c42783          	lw	a5,-100(s0)
800039a8:	0007c703          	lbu	a4,0(a5)
800039ac:	02a00793          	li	a5,42
800039b0:	04f71e63          	bne	a4,a5,80003a0c <_fdoprnt2+0x164>
800039b4:	f9842783          	lw	a5,-104(s0)
800039b8:	00478713          	addi	a4,a5,4
800039bc:	f8e42c23          	sw	a4,-104(s0)
800039c0:	0007a783          	lw	a5,0(a5)
800039c4:	fcf42c23          	sw	a5,-40(s0)
800039c8:	f9c42783          	lw	a5,-100(s0)
800039cc:	00178793          	addi	a5,a5,1
800039d0:	f8f42e23          	sw	a5,-100(s0)
800039d4:	0580006f          	j	80003a2c <_fdoprnt2+0x184>
800039d8:	fd842703          	lw	a4,-40(s0)
800039dc:	00070793          	mv	a5,a4
800039e0:	00279793          	slli	a5,a5,0x2
800039e4:	00e787b3          	add	a5,a5,a4
800039e8:	00179793          	slli	a5,a5,0x1
800039ec:	00078693          	mv	a3,a5
800039f0:	f9c42783          	lw	a5,-100(s0)
800039f4:	00178713          	addi	a4,a5,1
800039f8:	f8e42e23          	sw	a4,-100(s0)
800039fc:	0007c783          	lbu	a5,0(a5)
80003a00:	00f687b3          	add	a5,a3,a5
80003a04:	fd078793          	addi	a5,a5,-48
80003a08:	fcf42c23          	sw	a5,-40(s0)
80003a0c:	f9c42783          	lw	a5,-100(s0)
80003a10:	0007c703          	lbu	a4,0(a5)
80003a14:	02f00793          	li	a5,47
80003a18:	00e7fa63          	bgeu	a5,a4,80003a2c <_fdoprnt2+0x184>
80003a1c:	f9c42783          	lw	a5,-100(s0)
80003a20:	0007c703          	lbu	a4,0(a5)
80003a24:	03900793          	li	a5,57
80003a28:	fae7f8e3          	bgeu	a5,a4,800039d8 <_fdoprnt2+0x130>
80003a2c:	fc042e23          	sw	zero,-36(s0)
80003a30:	f9c42783          	lw	a5,-100(s0)
80003a34:	0007c703          	lbu	a4,0(a5)
80003a38:	02e00793          	li	a5,46
80003a3c:	08f71c63          	bne	a4,a5,80003ad4 <_fdoprnt2+0x22c>
80003a40:	f9c42783          	lw	a5,-100(s0)
80003a44:	00178793          	addi	a5,a5,1
80003a48:	f8f42e23          	sw	a5,-100(s0)
80003a4c:	f9c42783          	lw	a5,-100(s0)
80003a50:	0007c703          	lbu	a4,0(a5)
80003a54:	02a00793          	li	a5,42
80003a58:	04f71e63          	bne	a4,a5,80003ab4 <_fdoprnt2+0x20c>
80003a5c:	f9842783          	lw	a5,-104(s0)
80003a60:	00478713          	addi	a4,a5,4
80003a64:	f8e42c23          	sw	a4,-104(s0)
80003a68:	0007a783          	lw	a5,0(a5)
80003a6c:	fcf42e23          	sw	a5,-36(s0)
80003a70:	f9c42783          	lw	a5,-100(s0)
80003a74:	00178793          	addi	a5,a5,1
80003a78:	f8f42e23          	sw	a5,-100(s0)
80003a7c:	0580006f          	j	80003ad4 <_fdoprnt2+0x22c>
80003a80:	fdc42703          	lw	a4,-36(s0)
80003a84:	00070793          	mv	a5,a4
80003a88:	00279793          	slli	a5,a5,0x2
80003a8c:	00e787b3          	add	a5,a5,a4
80003a90:	00179793          	slli	a5,a5,0x1
80003a94:	00078693          	mv	a3,a5
80003a98:	f9c42783          	lw	a5,-100(s0)
80003a9c:	00178713          	addi	a4,a5,1
80003aa0:	f8e42e23          	sw	a4,-100(s0)
80003aa4:	0007c783          	lbu	a5,0(a5)
80003aa8:	00f687b3          	add	a5,a3,a5
80003aac:	fd078793          	addi	a5,a5,-48
80003ab0:	fcf42e23          	sw	a5,-36(s0)
80003ab4:	f9c42783          	lw	a5,-100(s0)
80003ab8:	0007c703          	lbu	a4,0(a5)
80003abc:	02f00793          	li	a5,47
80003ac0:	00e7fa63          	bgeu	a5,a4,80003ad4 <_fdoprnt2+0x22c>
80003ac4:	f9c42783          	lw	a5,-100(s0)
80003ac8:	0007c703          	lbu	a4,0(a5)
80003acc:	03900793          	li	a5,57
80003ad0:	fae7f8e3          	bgeu	a5,a4,80003a80 <_fdoprnt2+0x1d8>
80003ad4:	fac40793          	addi	a5,s0,-84
80003ad8:	fef42423          	sw	a5,-24(s0)
80003adc:	f9c42783          	lw	a5,-100(s0)
80003ae0:	00178713          	addi	a4,a5,1
80003ae4:	f8e42e23          	sw	a4,-100(s0)
80003ae8:	0007c783          	lbu	a5,0(a5)
80003aec:	fcf42023          	sw	a5,-64(s0)
80003af0:	fc042783          	lw	a5,-64(s0)
80003af4:	00079e63          	bnez	a5,80003b10 <_fdoprnt2+0x268>
80003af8:	f9442783          	lw	a5,-108(s0)
80003afc:	02500613          	li	a2,37
80003b00:	f9042583          	lw	a1,-112(s0)
80003b04:	f8c42503          	lw	a0,-116(s0)
80003b08:	000780e7          	jalr	a5
80003b0c:	3e40006f          	j	80003ef0 <_fdoprnt2+0x648>
80003b10:	fc0409a3          	sb	zero,-45(s0)
80003b14:	fc042783          	lw	a5,-64(s0)
80003b18:	fa878793          	addi	a5,a5,-88
80003b1c:	02000713          	li	a4,32
80003b20:	1cf76863          	bltu	a4,a5,80003cf0 <_fdoprnt2+0x448>
80003b24:	00279713          	slli	a4,a5,0x2
80003b28:	800147b7          	lui	a5,0x80014
80003b2c:	d5078793          	addi	a5,a5,-688 # 80013d50 <_ctype_+0x180>
80003b30:	00f707b3          	add	a5,a4,a5
80003b34:	0007a783          	lw	a5,0(a5)
80003b38:	00078067          	jr	a5
80003b3c:	f9842783          	lw	a5,-104(s0)
80003b40:	00478713          	addi	a4,a5,4
80003b44:	f8e42c23          	sw	a4,-104(s0)
80003b48:	0007a783          	lw	a5,0(a5)
80003b4c:	0ff7f793          	zext.b	a5,a5
80003b50:	faf40623          	sb	a5,-84(s0)
80003b54:	fa0406a3          	sb	zero,-83(s0)
80003b58:	fc042e23          	sw	zero,-36(s0)
80003b5c:	02000793          	li	a5,32
80003b60:	fef401a3          	sb	a5,-29(s0)
80003b64:	1a40006f          	j	80003d08 <_fdoprnt2+0x460>
80003b68:	f9842783          	lw	a5,-104(s0)
80003b6c:	00478713          	addi	a4,a5,4
80003b70:	f8e42c23          	sw	a4,-104(s0)
80003b74:	0007a783          	lw	a5,0(a5)
80003b78:	fef42423          	sw	a5,-24(s0)
80003b7c:	fe842783          	lw	a5,-24(s0)
80003b80:	00079863          	bnez	a5,80003b90 <_fdoprnt2+0x2e8>
80003b84:	800147b7          	lui	a5,0x80014
80003b88:	d4878793          	addi	a5,a5,-696 # 80013d48 <_ctype_+0x178>
80003b8c:	fef42423          	sw	a5,-24(s0)
80003b90:	02000793          	li	a5,32
80003b94:	fef401a3          	sb	a5,-29(s0)
80003b98:	1700006f          	j	80003d08 <_fdoprnt2+0x460>
80003b9c:	f9842783          	lw	a5,-104(s0)
80003ba0:	00478713          	addi	a4,a5,4
80003ba4:	f8e42c23          	sw	a4,-104(s0)
80003ba8:	0007a783          	lw	a5,0(a5)
80003bac:	fcf42623          	sw	a5,-52(s0)
80003bb0:	fcc42783          	lw	a5,-52(s0)
80003bb4:	0007dc63          	bgez	a5,80003bcc <_fdoprnt2+0x324>
80003bb8:	02d00793          	li	a5,45
80003bbc:	fcf409a3          	sb	a5,-45(s0)
80003bc0:	fcc42783          	lw	a5,-52(s0)
80003bc4:	40f007b3          	neg	a5,a5
80003bc8:	fcf42623          	sw	a5,-52(s0)
80003bcc:	fe842583          	lw	a1,-24(s0)
80003bd0:	fcc42503          	lw	a0,-52(s0)
80003bd4:	15d000ef          	jal	80004530 <_prtl10>
80003bd8:	1300006f          	j	80003d08 <_fdoprnt2+0x460>
80003bdc:	fc040923          	sb	zero,-46(s0)
80003be0:	f9842783          	lw	a5,-104(s0)
80003be4:	00478713          	addi	a4,a5,4
80003be8:	f8e42c23          	sw	a4,-104(s0)
80003bec:	0007a783          	lw	a5,0(a5)
80003bf0:	fcf42623          	sw	a5,-52(s0)
80003bf4:	0240006f          	j	80003c18 <_fdoprnt2+0x370>
80003bf8:	fcc42703          	lw	a4,-52(s0)
80003bfc:	c46537b7          	lui	a5,0xc4653
80003c00:	60078793          	addi	a5,a5,1536 # c4653600 <nnames+0x44636104>
80003c04:	00f707b3          	add	a5,a4,a5
80003c08:	fcf42623          	sw	a5,-52(s0)
80003c0c:	fd244783          	lbu	a5,-46(s0)
80003c10:	00178793          	addi	a5,a5,1
80003c14:	fcf40923          	sb	a5,-46(s0)
80003c18:	fcc42783          	lw	a5,-52(s0)
80003c1c:	fc07cee3          	bltz	a5,80003bf8 <_fdoprnt2+0x350>
80003c20:	fe842583          	lw	a1,-24(s0)
80003c24:	fcc42503          	lw	a0,-52(s0)
80003c28:	109000ef          	jal	80004530 <_prtl10>
80003c2c:	fe842783          	lw	a5,-24(s0)
80003c30:	0007c783          	lbu	a5,0(a5)
80003c34:	fd244703          	lbu	a4,-46(s0)
80003c38:	00e787b3          	add	a5,a5,a4
80003c3c:	0ff7f713          	zext.b	a4,a5
80003c40:	fe842783          	lw	a5,-24(s0)
80003c44:	00e78023          	sb	a4,0(a5)
80003c48:	fc042e23          	sw	zero,-36(s0)
80003c4c:	0bc0006f          	j	80003d08 <_fdoprnt2+0x460>
80003c50:	f9842783          	lw	a5,-104(s0)
80003c54:	00478713          	addi	a4,a5,4
80003c58:	f8e42c23          	sw	a4,-104(s0)
80003c5c:	0007a783          	lw	a5,0(a5)
80003c60:	fcf42623          	sw	a5,-52(s0)
80003c64:	fe842583          	lw	a1,-24(s0)
80003c68:	fcc42503          	lw	a0,-52(s0)
80003c6c:	1c5000ef          	jal	80004630 <_prtl8>
80003c70:	fc042e23          	sw	zero,-36(s0)
80003c74:	0940006f          	j	80003d08 <_fdoprnt2+0x460>
80003c78:	f9842783          	lw	a5,-104(s0)
80003c7c:	00478713          	addi	a4,a5,4
80003c80:	f8e42c23          	sw	a4,-104(s0)
80003c84:	0007a783          	lw	a5,0(a5)
80003c88:	fcf42623          	sw	a5,-52(s0)
80003c8c:	fe842583          	lw	a1,-24(s0)
80003c90:	fcc42503          	lw	a0,-52(s0)
80003c94:	3a5000ef          	jal	80004838 <_prtX16>
80003c98:	fc042e23          	sw	zero,-36(s0)
80003c9c:	06c0006f          	j	80003d08 <_fdoprnt2+0x460>
80003ca0:	f9842783          	lw	a5,-104(s0)
80003ca4:	00478713          	addi	a4,a5,4
80003ca8:	f8e42c23          	sw	a4,-104(s0)
80003cac:	0007a783          	lw	a5,0(a5)
80003cb0:	fcf42623          	sw	a5,-52(s0)
80003cb4:	fe842583          	lw	a1,-24(s0)
80003cb8:	fcc42503          	lw	a0,-52(s0)
80003cbc:	281000ef          	jal	8000473c <_prtl16>
80003cc0:	fc042e23          	sw	zero,-36(s0)
80003cc4:	0440006f          	j	80003d08 <_fdoprnt2+0x460>
80003cc8:	f9842783          	lw	a5,-104(s0)
80003ccc:	00478713          	addi	a4,a5,4
80003cd0:	f8e42c23          	sw	a4,-104(s0)
80003cd4:	0007a783          	lw	a5,0(a5)
80003cd8:	fcf42623          	sw	a5,-52(s0)
80003cdc:	fe842583          	lw	a1,-24(s0)
80003ce0:	fcc42503          	lw	a0,-52(s0)
80003ce4:	451000ef          	jal	80004934 <_prtl2>
80003ce8:	fc042e23          	sw	zero,-36(s0)
80003cec:	01c0006f          	j	80003d08 <_fdoprnt2+0x460>
80003cf0:	f9442783          	lw	a5,-108(s0)
80003cf4:	fc042603          	lw	a2,-64(s0)
80003cf8:	f9042583          	lw	a1,-112(s0)
80003cfc:	f8c42503          	lw	a0,-116(s0)
80003d00:	000780e7          	jalr	a5
80003d04:	00000013          	nop
80003d08:	fe042223          	sw	zero,-28(s0)
80003d0c:	0100006f          	j	80003d1c <_fdoprnt2+0x474>
80003d10:	fe442783          	lw	a5,-28(s0)
80003d14:	00178793          	addi	a5,a5,1
80003d18:	fef42223          	sw	a5,-28(s0)
80003d1c:	fe442783          	lw	a5,-28(s0)
80003d20:	fe842703          	lw	a4,-24(s0)
80003d24:	00f707b3          	add	a5,a4,a5
80003d28:	0007c783          	lbu	a5,0(a5)
80003d2c:	fe0792e3          	bnez	a5,80003d10 <_fdoprnt2+0x468>
80003d30:	fd842703          	lw	a4,-40(s0)
80003d34:	05000793          	li	a5,80
80003d38:	00e7c663          	blt	a5,a4,80003d44 <_fdoprnt2+0x49c>
80003d3c:	fd842783          	lw	a5,-40(s0)
80003d40:	0007d463          	bgez	a5,80003d48 <_fdoprnt2+0x4a0>
80003d44:	fc042c23          	sw	zero,-40(s0)
80003d48:	fdc42703          	lw	a4,-36(s0)
80003d4c:	05000793          	li	a5,80
80003d50:	00e7c663          	blt	a5,a4,80003d5c <_fdoprnt2+0x4b4>
80003d54:	fdc42783          	lw	a5,-36(s0)
80003d58:	0007d463          	bgez	a5,80003d60 <_fdoprnt2+0x4b8>
80003d5c:	fc042e23          	sw	zero,-36(s0)
80003d60:	fc042a23          	sw	zero,-44(s0)
80003d64:	fdc42783          	lw	a5,-36(s0)
80003d68:	00079663          	bnez	a5,80003d74 <_fdoprnt2+0x4cc>
80003d6c:	fd842783          	lw	a5,-40(s0)
80003d70:	04078863          	beqz	a5,80003dc0 <_fdoprnt2+0x518>
80003d74:	fdc42783          	lw	a5,-36(s0)
80003d78:	00078c63          	beqz	a5,80003d90 <_fdoprnt2+0x4e8>
80003d7c:	fe442703          	lw	a4,-28(s0)
80003d80:	fdc42783          	lw	a5,-36(s0)
80003d84:	00e7d663          	bge	a5,a4,80003d90 <_fdoprnt2+0x4e8>
80003d88:	fdc42783          	lw	a5,-36(s0)
80003d8c:	fef42223          	sw	a5,-28(s0)
80003d90:	fd842783          	lw	a5,-40(s0)
80003d94:	00078a63          	beqz	a5,80003da8 <_fdoprnt2+0x500>
80003d98:	fd842703          	lw	a4,-40(s0)
80003d9c:	fe442783          	lw	a5,-28(s0)
80003da0:	40f707b3          	sub	a5,a4,a5
80003da4:	fcf42a23          	sw	a5,-44(s0)
80003da8:	fd344703          	lbu	a4,-45(s0)
80003dac:	02d00793          	li	a5,45
80003db0:	00f71863          	bne	a4,a5,80003dc0 <_fdoprnt2+0x518>
80003db4:	fd442783          	lw	a5,-44(s0)
80003db8:	fff78793          	addi	a5,a5,-1
80003dbc:	fcf42a23          	sw	a5,-44(s0)
80003dc0:	fd344703          	lbu	a4,-45(s0)
80003dc4:	02d00793          	li	a5,45
80003dc8:	02f71463          	bne	a4,a5,80003df0 <_fdoprnt2+0x548>
80003dcc:	fe344703          	lbu	a4,-29(s0)
80003dd0:	03000793          	li	a5,48
80003dd4:	00f71e63          	bne	a4,a5,80003df0 <_fdoprnt2+0x548>
80003dd8:	fd344703          	lbu	a4,-45(s0)
80003ddc:	f9442783          	lw	a5,-108(s0)
80003de0:	00070613          	mv	a2,a4
80003de4:	f9042583          	lw	a1,-112(s0)
80003de8:	f8c42503          	lw	a0,-116(s0)
80003dec:	000780e7          	jalr	a5
80003df0:	fc442783          	lw	a5,-60(s0)
80003df4:	02079e63          	bnez	a5,80003e30 <_fdoprnt2+0x588>
80003df8:	fe042623          	sw	zero,-20(s0)
80003dfc:	0280006f          	j	80003e24 <_fdoprnt2+0x57c>
80003e00:	fe344703          	lbu	a4,-29(s0)
80003e04:	f9442783          	lw	a5,-108(s0)
80003e08:	00070613          	mv	a2,a4
80003e0c:	f9042583          	lw	a1,-112(s0)
80003e10:	f8c42503          	lw	a0,-116(s0)
80003e14:	000780e7          	jalr	a5
80003e18:	fec42783          	lw	a5,-20(s0)
80003e1c:	00178793          	addi	a5,a5,1
80003e20:	fef42623          	sw	a5,-20(s0)
80003e24:	fec42703          	lw	a4,-20(s0)
80003e28:	fd442783          	lw	a5,-44(s0)
80003e2c:	fcf74ae3          	blt	a4,a5,80003e00 <_fdoprnt2+0x558>
80003e30:	fd344703          	lbu	a4,-45(s0)
80003e34:	02d00793          	li	a5,45
80003e38:	02f71463          	bne	a4,a5,80003e60 <_fdoprnt2+0x5b8>
80003e3c:	fe344703          	lbu	a4,-29(s0)
80003e40:	02000793          	li	a5,32
80003e44:	00f71e63          	bne	a4,a5,80003e60 <_fdoprnt2+0x5b8>
80003e48:	fd344703          	lbu	a4,-45(s0)
80003e4c:	f9442783          	lw	a5,-108(s0)
80003e50:	00070613          	mv	a2,a4
80003e54:	f9042583          	lw	a1,-112(s0)
80003e58:	f8c42503          	lw	a0,-116(s0)
80003e5c:	000780e7          	jalr	a5
80003e60:	fe042623          	sw	zero,-20(s0)
80003e64:	0380006f          	j	80003e9c <_fdoprnt2+0x5f4>
80003e68:	fec42783          	lw	a5,-20(s0)
80003e6c:	fe842703          	lw	a4,-24(s0)
80003e70:	00f707b3          	add	a5,a4,a5
80003e74:	0007c783          	lbu	a5,0(a5)
80003e78:	00078713          	mv	a4,a5
80003e7c:	f9442783          	lw	a5,-108(s0)
80003e80:	00070613          	mv	a2,a4
80003e84:	f9042583          	lw	a1,-112(s0)
80003e88:	f8c42503          	lw	a0,-116(s0)
80003e8c:	000780e7          	jalr	a5
80003e90:	fec42783          	lw	a5,-20(s0)
80003e94:	00178793          	addi	a5,a5,1
80003e98:	fef42623          	sw	a5,-20(s0)
80003e9c:	fec42703          	lw	a4,-20(s0)
80003ea0:	fe442783          	lw	a5,-28(s0)
80003ea4:	fcf742e3          	blt	a4,a5,80003e68 <_fdoprnt2+0x5c0>
80003ea8:	fc442783          	lw	a5,-60(s0)
80003eac:	a40780e3          	beqz	a5,800038ec <_fdoprnt2+0x44>
80003eb0:	fe042623          	sw	zero,-20(s0)
80003eb4:	0280006f          	j	80003edc <_fdoprnt2+0x634>
80003eb8:	fe344703          	lbu	a4,-29(s0)
80003ebc:	f9442783          	lw	a5,-108(s0)
80003ec0:	00070613          	mv	a2,a4
80003ec4:	f9042583          	lw	a1,-112(s0)
80003ec8:	f8c42503          	lw	a0,-116(s0)
80003ecc:	000780e7          	jalr	a5
80003ed0:	fec42783          	lw	a5,-20(s0)
80003ed4:	00178793          	addi	a5,a5,1
80003ed8:	fef42623          	sw	a5,-20(s0)
80003edc:	fec42703          	lw	a4,-20(s0)
80003ee0:	fd442783          	lw	a5,-44(s0)
80003ee4:	fcf74ae3          	blt	a4,a5,80003eb8 <_fdoprnt2+0x610>
80003ee8:	a05ff06f          	j	800038ec <_fdoprnt2+0x44>
80003eec:	00000013          	nop
80003ef0:	07c12083          	lw	ra,124(sp)
80003ef4:	07812403          	lw	s0,120(sp)
80003ef8:	08010113          	addi	sp,sp,128
80003efc:	00008067          	ret

80003f00 <_fdoprnt>:
80003f00:	f9010113          	addi	sp,sp,-112
80003f04:	06112623          	sw	ra,108(sp)
80003f08:	06812423          	sw	s0,104(sp)
80003f0c:	07010413          	addi	s0,sp,112
80003f10:	f8a42e23          	sw	a0,-100(s0)
80003f14:	f8b42c23          	sw	a1,-104(s0)
80003f18:	f8c42a23          	sw	a2,-108(s0)
80003f1c:	f8d42823          	sw	a3,-112(s0)
80003f20:	01c0006f          	j	80003f3c <_fdoprnt+0x3c>
80003f24:	fc842783          	lw	a5,-56(s0)
80003f28:	5e078a63          	beqz	a5,8000451c <_fdoprnt+0x61c>
80003f2c:	f9442783          	lw	a5,-108(s0)
80003f30:	fc842583          	lw	a1,-56(s0)
80003f34:	f9042503          	lw	a0,-112(s0)
80003f38:	000780e7          	jalr	a5
80003f3c:	f9c42783          	lw	a5,-100(s0)
80003f40:	00178713          	addi	a4,a5,1
80003f44:	f8e42e23          	sw	a4,-100(s0)
80003f48:	0007c783          	lbu	a5,0(a5)
80003f4c:	fcf42423          	sw	a5,-56(s0)
80003f50:	fc842703          	lw	a4,-56(s0)
80003f54:	02500793          	li	a5,37
80003f58:	fcf716e3          	bne	a4,a5,80003f24 <_fdoprnt+0x24>
80003f5c:	f9c42783          	lw	a5,-100(s0)
80003f60:	0007c703          	lbu	a4,0(a5)
80003f64:	02500793          	li	a5,37
80003f68:	02f71663          	bne	a4,a5,80003f94 <_fdoprnt+0x94>
80003f6c:	f9c42783          	lw	a5,-100(s0)
80003f70:	00178713          	addi	a4,a5,1
80003f74:	f8e42e23          	sw	a4,-100(s0)
80003f78:	0007c783          	lbu	a5,0(a5)
80003f7c:	00078713          	mv	a4,a5
80003f80:	f9442783          	lw	a5,-108(s0)
80003f84:	00070593          	mv	a1,a4
80003f88:	f9042503          	lw	a0,-112(s0)
80003f8c:	000780e7          	jalr	a5
80003f90:	5880006f          	j	80004518 <_fdoprnt+0x618>
80003f94:	f9c42783          	lw	a5,-100(s0)
80003f98:	0007c783          	lbu	a5,0(a5)
80003f9c:	fd378793          	addi	a5,a5,-45
80003fa0:	0017b793          	seqz	a5,a5
80003fa4:	0ff7f793          	zext.b	a5,a5
80003fa8:	fcf42223          	sw	a5,-60(s0)
80003fac:	fc442783          	lw	a5,-60(s0)
80003fb0:	00078863          	beqz	a5,80003fc0 <_fdoprnt+0xc0>
80003fb4:	f9c42783          	lw	a5,-100(s0)
80003fb8:	00178793          	addi	a5,a5,1
80003fbc:	f8f42e23          	sw	a5,-100(s0)
80003fc0:	f9c42783          	lw	a5,-100(s0)
80003fc4:	0007c703          	lbu	a4,0(a5)
80003fc8:	03000793          	li	a5,48
80003fcc:	00f71c63          	bne	a4,a5,80003fe4 <_fdoprnt+0xe4>
80003fd0:	f9c42783          	lw	a5,-100(s0)
80003fd4:	00178713          	addi	a4,a5,1
80003fd8:	f8e42e23          	sw	a4,-100(s0)
80003fdc:	0007c783          	lbu	a5,0(a5)
80003fe0:	0080006f          	j	80003fe8 <_fdoprnt+0xe8>
80003fe4:	02000793          	li	a5,32
80003fe8:	fef401a3          	sb	a5,-29(s0)
80003fec:	fc042c23          	sw	zero,-40(s0)
80003ff0:	f9c42783          	lw	a5,-100(s0)
80003ff4:	0007c703          	lbu	a4,0(a5)
80003ff8:	02a00793          	li	a5,42
80003ffc:	04f71e63          	bne	a4,a5,80004058 <_fdoprnt+0x158>
80004000:	f9842783          	lw	a5,-104(s0)
80004004:	00478713          	addi	a4,a5,4
80004008:	f8e42c23          	sw	a4,-104(s0)
8000400c:	0007a783          	lw	a5,0(a5)
80004010:	fcf42c23          	sw	a5,-40(s0)
80004014:	f9c42783          	lw	a5,-100(s0)
80004018:	00178793          	addi	a5,a5,1
8000401c:	f8f42e23          	sw	a5,-100(s0)
80004020:	0580006f          	j	80004078 <_fdoprnt+0x178>
80004024:	fd842703          	lw	a4,-40(s0)
80004028:	00070793          	mv	a5,a4
8000402c:	00279793          	slli	a5,a5,0x2
80004030:	00e787b3          	add	a5,a5,a4
80004034:	00179793          	slli	a5,a5,0x1
80004038:	00078693          	mv	a3,a5
8000403c:	f9c42783          	lw	a5,-100(s0)
80004040:	00178713          	addi	a4,a5,1
80004044:	f8e42e23          	sw	a4,-100(s0)
80004048:	0007c783          	lbu	a5,0(a5)
8000404c:	00f687b3          	add	a5,a3,a5
80004050:	fd078793          	addi	a5,a5,-48
80004054:	fcf42c23          	sw	a5,-40(s0)
80004058:	f9c42783          	lw	a5,-100(s0)
8000405c:	0007c703          	lbu	a4,0(a5)
80004060:	02f00793          	li	a5,47
80004064:	00e7fa63          	bgeu	a5,a4,80004078 <_fdoprnt+0x178>
80004068:	f9c42783          	lw	a5,-100(s0)
8000406c:	0007c703          	lbu	a4,0(a5)
80004070:	03900793          	li	a5,57
80004074:	fae7f8e3          	bgeu	a5,a4,80004024 <_fdoprnt+0x124>
80004078:	fc042e23          	sw	zero,-36(s0)
8000407c:	f9c42783          	lw	a5,-100(s0)
80004080:	0007c703          	lbu	a4,0(a5)
80004084:	02e00793          	li	a5,46
80004088:	08f71c63          	bne	a4,a5,80004120 <_fdoprnt+0x220>
8000408c:	f9c42783          	lw	a5,-100(s0)
80004090:	00178793          	addi	a5,a5,1
80004094:	f8f42e23          	sw	a5,-100(s0)
80004098:	f9c42783          	lw	a5,-100(s0)
8000409c:	0007c703          	lbu	a4,0(a5)
800040a0:	02a00793          	li	a5,42
800040a4:	04f71e63          	bne	a4,a5,80004100 <_fdoprnt+0x200>
800040a8:	f9842783          	lw	a5,-104(s0)
800040ac:	00478713          	addi	a4,a5,4
800040b0:	f8e42c23          	sw	a4,-104(s0)
800040b4:	0007a783          	lw	a5,0(a5)
800040b8:	fcf42e23          	sw	a5,-36(s0)
800040bc:	f9c42783          	lw	a5,-100(s0)
800040c0:	00178793          	addi	a5,a5,1
800040c4:	f8f42e23          	sw	a5,-100(s0)
800040c8:	0580006f          	j	80004120 <_fdoprnt+0x220>
800040cc:	fdc42703          	lw	a4,-36(s0)
800040d0:	00070793          	mv	a5,a4
800040d4:	00279793          	slli	a5,a5,0x2
800040d8:	00e787b3          	add	a5,a5,a4
800040dc:	00179793          	slli	a5,a5,0x1
800040e0:	00078693          	mv	a3,a5
800040e4:	f9c42783          	lw	a5,-100(s0)
800040e8:	00178713          	addi	a4,a5,1
800040ec:	f8e42e23          	sw	a4,-100(s0)
800040f0:	0007c783          	lbu	a5,0(a5)
800040f4:	00f687b3          	add	a5,a3,a5
800040f8:	fd078793          	addi	a5,a5,-48
800040fc:	fcf42e23          	sw	a5,-36(s0)
80004100:	f9c42783          	lw	a5,-100(s0)
80004104:	0007c703          	lbu	a4,0(a5)
80004108:	02f00793          	li	a5,47
8000410c:	00e7fa63          	bgeu	a5,a4,80004120 <_fdoprnt+0x220>
80004110:	f9c42783          	lw	a5,-100(s0)
80004114:	0007c703          	lbu	a4,0(a5)
80004118:	03900793          	li	a5,57
8000411c:	fae7f8e3          	bgeu	a5,a4,800040cc <_fdoprnt+0x1cc>
80004120:	fac40793          	addi	a5,s0,-84
80004124:	fef42423          	sw	a5,-24(s0)
80004128:	f9c42783          	lw	a5,-100(s0)
8000412c:	00178713          	addi	a4,a5,1
80004130:	f8e42e23          	sw	a4,-100(s0)
80004134:	0007c783          	lbu	a5,0(a5)
80004138:	fcf42023          	sw	a5,-64(s0)
8000413c:	fc042783          	lw	a5,-64(s0)
80004140:	00079c63          	bnez	a5,80004158 <_fdoprnt+0x258>
80004144:	f9442783          	lw	a5,-108(s0)
80004148:	02500593          	li	a1,37
8000414c:	f9042503          	lw	a0,-112(s0)
80004150:	000780e7          	jalr	a5
80004154:	3cc0006f          	j	80004520 <_fdoprnt+0x620>
80004158:	fc0409a3          	sb	zero,-45(s0)
8000415c:	fc042783          	lw	a5,-64(s0)
80004160:	fa878793          	addi	a5,a5,-88
80004164:	02000713          	li	a4,32
80004168:	1cf76863          	bltu	a4,a5,80004338 <_fdoprnt+0x438>
8000416c:	00279713          	slli	a4,a5,0x2
80004170:	800147b7          	lui	a5,0x80014
80004174:	dd478793          	addi	a5,a5,-556 # 80013dd4 <_ctype_+0x204>
80004178:	00f707b3          	add	a5,a4,a5
8000417c:	0007a783          	lw	a5,0(a5)
80004180:	00078067          	jr	a5
80004184:	f9842783          	lw	a5,-104(s0)
80004188:	00478713          	addi	a4,a5,4
8000418c:	f8e42c23          	sw	a4,-104(s0)
80004190:	0007a783          	lw	a5,0(a5)
80004194:	0ff7f793          	zext.b	a5,a5
80004198:	faf40623          	sb	a5,-84(s0)
8000419c:	fa0406a3          	sb	zero,-83(s0)
800041a0:	fc042e23          	sw	zero,-36(s0)
800041a4:	02000793          	li	a5,32
800041a8:	fef401a3          	sb	a5,-29(s0)
800041ac:	1a00006f          	j	8000434c <_fdoprnt+0x44c>
800041b0:	f9842783          	lw	a5,-104(s0)
800041b4:	00478713          	addi	a4,a5,4
800041b8:	f8e42c23          	sw	a4,-104(s0)
800041bc:	0007a783          	lw	a5,0(a5)
800041c0:	fef42423          	sw	a5,-24(s0)
800041c4:	fe842783          	lw	a5,-24(s0)
800041c8:	00079863          	bnez	a5,800041d8 <_fdoprnt+0x2d8>
800041cc:	800147b7          	lui	a5,0x80014
800041d0:	d4878793          	addi	a5,a5,-696 # 80013d48 <_ctype_+0x178>
800041d4:	fef42423          	sw	a5,-24(s0)
800041d8:	02000793          	li	a5,32
800041dc:	fef401a3          	sb	a5,-29(s0)
800041e0:	16c0006f          	j	8000434c <_fdoprnt+0x44c>
800041e4:	f9842783          	lw	a5,-104(s0)
800041e8:	00478713          	addi	a4,a5,4
800041ec:	f8e42c23          	sw	a4,-104(s0)
800041f0:	0007a783          	lw	a5,0(a5)
800041f4:	fcf42623          	sw	a5,-52(s0)
800041f8:	fcc42783          	lw	a5,-52(s0)
800041fc:	0007dc63          	bgez	a5,80004214 <_fdoprnt+0x314>
80004200:	02d00793          	li	a5,45
80004204:	fcf409a3          	sb	a5,-45(s0)
80004208:	fcc42783          	lw	a5,-52(s0)
8000420c:	40f007b3          	neg	a5,a5
80004210:	fcf42623          	sw	a5,-52(s0)
80004214:	fe842583          	lw	a1,-24(s0)
80004218:	fcc42503          	lw	a0,-52(s0)
8000421c:	314000ef          	jal	80004530 <_prtl10>
80004220:	12c0006f          	j	8000434c <_fdoprnt+0x44c>
80004224:	fc040923          	sb	zero,-46(s0)
80004228:	f9842783          	lw	a5,-104(s0)
8000422c:	00478713          	addi	a4,a5,4
80004230:	f8e42c23          	sw	a4,-104(s0)
80004234:	0007a783          	lw	a5,0(a5)
80004238:	fcf42623          	sw	a5,-52(s0)
8000423c:	0240006f          	j	80004260 <_fdoprnt+0x360>
80004240:	fcc42703          	lw	a4,-52(s0)
80004244:	c46537b7          	lui	a5,0xc4653
80004248:	60078793          	addi	a5,a5,1536 # c4653600 <nnames+0x44636104>
8000424c:	00f707b3          	add	a5,a4,a5
80004250:	fcf42623          	sw	a5,-52(s0)
80004254:	fd244783          	lbu	a5,-46(s0)
80004258:	00178793          	addi	a5,a5,1
8000425c:	fcf40923          	sb	a5,-46(s0)
80004260:	fcc42783          	lw	a5,-52(s0)
80004264:	fc07cee3          	bltz	a5,80004240 <_fdoprnt+0x340>
80004268:	fe842583          	lw	a1,-24(s0)
8000426c:	fcc42503          	lw	a0,-52(s0)
80004270:	2c0000ef          	jal	80004530 <_prtl10>
80004274:	fe842783          	lw	a5,-24(s0)
80004278:	0007c783          	lbu	a5,0(a5)
8000427c:	fd244703          	lbu	a4,-46(s0)
80004280:	00e787b3          	add	a5,a5,a4
80004284:	0ff7f713          	zext.b	a4,a5
80004288:	fe842783          	lw	a5,-24(s0)
8000428c:	00e78023          	sb	a4,0(a5)
80004290:	fc042e23          	sw	zero,-36(s0)
80004294:	0b80006f          	j	8000434c <_fdoprnt+0x44c>
80004298:	f9842783          	lw	a5,-104(s0)
8000429c:	00478713          	addi	a4,a5,4
800042a0:	f8e42c23          	sw	a4,-104(s0)
800042a4:	0007a783          	lw	a5,0(a5)
800042a8:	fcf42623          	sw	a5,-52(s0)
800042ac:	fe842583          	lw	a1,-24(s0)
800042b0:	fcc42503          	lw	a0,-52(s0)
800042b4:	37c000ef          	jal	80004630 <_prtl8>
800042b8:	fc042e23          	sw	zero,-36(s0)
800042bc:	0900006f          	j	8000434c <_fdoprnt+0x44c>
800042c0:	f9842783          	lw	a5,-104(s0)
800042c4:	00478713          	addi	a4,a5,4
800042c8:	f8e42c23          	sw	a4,-104(s0)
800042cc:	0007a783          	lw	a5,0(a5)
800042d0:	fcf42623          	sw	a5,-52(s0)
800042d4:	fe842583          	lw	a1,-24(s0)
800042d8:	fcc42503          	lw	a0,-52(s0)
800042dc:	55c000ef          	jal	80004838 <_prtX16>
800042e0:	fc042e23          	sw	zero,-36(s0)
800042e4:	0680006f          	j	8000434c <_fdoprnt+0x44c>
800042e8:	f9842783          	lw	a5,-104(s0)
800042ec:	00478713          	addi	a4,a5,4
800042f0:	f8e42c23          	sw	a4,-104(s0)
800042f4:	0007a783          	lw	a5,0(a5)
800042f8:	fcf42623          	sw	a5,-52(s0)
800042fc:	fe842583          	lw	a1,-24(s0)
80004300:	fcc42503          	lw	a0,-52(s0)
80004304:	438000ef          	jal	8000473c <_prtl16>
80004308:	fc042e23          	sw	zero,-36(s0)
8000430c:	0400006f          	j	8000434c <_fdoprnt+0x44c>
80004310:	f9842783          	lw	a5,-104(s0)
80004314:	00478713          	addi	a4,a5,4
80004318:	f8e42c23          	sw	a4,-104(s0)
8000431c:	0007a783          	lw	a5,0(a5)
80004320:	fcf42623          	sw	a5,-52(s0)
80004324:	fe842583          	lw	a1,-24(s0)
80004328:	fcc42503          	lw	a0,-52(s0)
8000432c:	608000ef          	jal	80004934 <_prtl2>
80004330:	fc042e23          	sw	zero,-36(s0)
80004334:	0180006f          	j	8000434c <_fdoprnt+0x44c>
80004338:	f9442783          	lw	a5,-108(s0)
8000433c:	fc042583          	lw	a1,-64(s0)
80004340:	f9042503          	lw	a0,-112(s0)
80004344:	000780e7          	jalr	a5
80004348:	00000013          	nop
8000434c:	fe042223          	sw	zero,-28(s0)
80004350:	0100006f          	j	80004360 <_fdoprnt+0x460>
80004354:	fe442783          	lw	a5,-28(s0)
80004358:	00178793          	addi	a5,a5,1
8000435c:	fef42223          	sw	a5,-28(s0)
80004360:	fe442783          	lw	a5,-28(s0)
80004364:	fe842703          	lw	a4,-24(s0)
80004368:	00f707b3          	add	a5,a4,a5
8000436c:	0007c783          	lbu	a5,0(a5)
80004370:	fe0792e3          	bnez	a5,80004354 <_fdoprnt+0x454>
80004374:	fd842703          	lw	a4,-40(s0)
80004378:	05000793          	li	a5,80
8000437c:	00e7c663          	blt	a5,a4,80004388 <_fdoprnt+0x488>
80004380:	fd842783          	lw	a5,-40(s0)
80004384:	0007d463          	bgez	a5,8000438c <_fdoprnt+0x48c>
80004388:	fc042c23          	sw	zero,-40(s0)
8000438c:	fdc42703          	lw	a4,-36(s0)
80004390:	05000793          	li	a5,80
80004394:	00e7c663          	blt	a5,a4,800043a0 <_fdoprnt+0x4a0>
80004398:	fdc42783          	lw	a5,-36(s0)
8000439c:	0007d463          	bgez	a5,800043a4 <_fdoprnt+0x4a4>
800043a0:	fc042e23          	sw	zero,-36(s0)
800043a4:	fc042a23          	sw	zero,-44(s0)
800043a8:	fdc42783          	lw	a5,-36(s0)
800043ac:	00079663          	bnez	a5,800043b8 <_fdoprnt+0x4b8>
800043b0:	fd842783          	lw	a5,-40(s0)
800043b4:	04078863          	beqz	a5,80004404 <_fdoprnt+0x504>
800043b8:	fdc42783          	lw	a5,-36(s0)
800043bc:	00078c63          	beqz	a5,800043d4 <_fdoprnt+0x4d4>
800043c0:	fe442703          	lw	a4,-28(s0)
800043c4:	fdc42783          	lw	a5,-36(s0)
800043c8:	00e7d663          	bge	a5,a4,800043d4 <_fdoprnt+0x4d4>
800043cc:	fdc42783          	lw	a5,-36(s0)
800043d0:	fef42223          	sw	a5,-28(s0)
800043d4:	fd842783          	lw	a5,-40(s0)
800043d8:	00078a63          	beqz	a5,800043ec <_fdoprnt+0x4ec>
800043dc:	fd842703          	lw	a4,-40(s0)
800043e0:	fe442783          	lw	a5,-28(s0)
800043e4:	40f707b3          	sub	a5,a4,a5
800043e8:	fcf42a23          	sw	a5,-44(s0)
800043ec:	fd344703          	lbu	a4,-45(s0)
800043f0:	02d00793          	li	a5,45
800043f4:	00f71863          	bne	a4,a5,80004404 <_fdoprnt+0x504>
800043f8:	fd442783          	lw	a5,-44(s0)
800043fc:	fff78793          	addi	a5,a5,-1
80004400:	fcf42a23          	sw	a5,-44(s0)
80004404:	fd344703          	lbu	a4,-45(s0)
80004408:	02d00793          	li	a5,45
8000440c:	02f71263          	bne	a4,a5,80004430 <_fdoprnt+0x530>
80004410:	fe344703          	lbu	a4,-29(s0)
80004414:	03000793          	li	a5,48
80004418:	00f71c63          	bne	a4,a5,80004430 <_fdoprnt+0x530>
8000441c:	fd344703          	lbu	a4,-45(s0)
80004420:	f9442783          	lw	a5,-108(s0)
80004424:	00070593          	mv	a1,a4
80004428:	f9042503          	lw	a0,-112(s0)
8000442c:	000780e7          	jalr	a5
80004430:	fc442783          	lw	a5,-60(s0)
80004434:	02079c63          	bnez	a5,8000446c <_fdoprnt+0x56c>
80004438:	fe042623          	sw	zero,-20(s0)
8000443c:	0240006f          	j	80004460 <_fdoprnt+0x560>
80004440:	fe344703          	lbu	a4,-29(s0)
80004444:	f9442783          	lw	a5,-108(s0)
80004448:	00070593          	mv	a1,a4
8000444c:	f9042503          	lw	a0,-112(s0)
80004450:	000780e7          	jalr	a5
80004454:	fec42783          	lw	a5,-20(s0)
80004458:	00178793          	addi	a5,a5,1
8000445c:	fef42623          	sw	a5,-20(s0)
80004460:	fec42703          	lw	a4,-20(s0)
80004464:	fd442783          	lw	a5,-44(s0)
80004468:	fcf74ce3          	blt	a4,a5,80004440 <_fdoprnt+0x540>
8000446c:	fd344703          	lbu	a4,-45(s0)
80004470:	02d00793          	li	a5,45
80004474:	02f71263          	bne	a4,a5,80004498 <_fdoprnt+0x598>
80004478:	fe344703          	lbu	a4,-29(s0)
8000447c:	02000793          	li	a5,32
80004480:	00f71c63          	bne	a4,a5,80004498 <_fdoprnt+0x598>
80004484:	fd344703          	lbu	a4,-45(s0)
80004488:	f9442783          	lw	a5,-108(s0)
8000448c:	00070593          	mv	a1,a4
80004490:	f9042503          	lw	a0,-112(s0)
80004494:	000780e7          	jalr	a5
80004498:	fe042623          	sw	zero,-20(s0)
8000449c:	0340006f          	j	800044d0 <_fdoprnt+0x5d0>
800044a0:	fec42783          	lw	a5,-20(s0)
800044a4:	fe842703          	lw	a4,-24(s0)
800044a8:	00f707b3          	add	a5,a4,a5
800044ac:	0007c783          	lbu	a5,0(a5)
800044b0:	00078713          	mv	a4,a5
800044b4:	f9442783          	lw	a5,-108(s0)
800044b8:	00070593          	mv	a1,a4
800044bc:	f9042503          	lw	a0,-112(s0)
800044c0:	000780e7          	jalr	a5
800044c4:	fec42783          	lw	a5,-20(s0)
800044c8:	00178793          	addi	a5,a5,1
800044cc:	fef42623          	sw	a5,-20(s0)
800044d0:	fec42703          	lw	a4,-20(s0)
800044d4:	fe442783          	lw	a5,-28(s0)
800044d8:	fcf744e3          	blt	a4,a5,800044a0 <_fdoprnt+0x5a0>
800044dc:	fc442783          	lw	a5,-60(s0)
800044e0:	a4078ee3          	beqz	a5,80003f3c <_fdoprnt+0x3c>
800044e4:	fe042623          	sw	zero,-20(s0)
800044e8:	0240006f          	j	8000450c <_fdoprnt+0x60c>
800044ec:	fe344703          	lbu	a4,-29(s0)
800044f0:	f9442783          	lw	a5,-108(s0)
800044f4:	00070593          	mv	a1,a4
800044f8:	f9042503          	lw	a0,-112(s0)
800044fc:	000780e7          	jalr	a5
80004500:	fec42783          	lw	a5,-20(s0)
80004504:	00178793          	addi	a5,a5,1
80004508:	fef42623          	sw	a5,-20(s0)
8000450c:	fec42703          	lw	a4,-20(s0)
80004510:	fd442783          	lw	a5,-44(s0)
80004514:	fcf74ce3          	blt	a4,a5,800044ec <_fdoprnt+0x5ec>
80004518:	a25ff06f          	j	80003f3c <_fdoprnt+0x3c>
8000451c:	00000013          	nop
80004520:	06c12083          	lw	ra,108(sp)
80004524:	06812403          	lw	s0,104(sp)
80004528:	07010113          	addi	sp,sp,112
8000452c:	00008067          	ret

80004530 <_prtl10>:
80004530:	fd010113          	addi	sp,sp,-48
80004534:	02812623          	sw	s0,44(sp)
80004538:	03010413          	addi	s0,sp,48
8000453c:	fca42e23          	sw	a0,-36(s0)
80004540:	fcb42c23          	sw	a1,-40(s0)
80004544:	fe040023          	sb	zero,-32(s0)
80004548:	00100793          	li	a5,1
8000454c:	fef42623          	sw	a5,-20(s0)
80004550:	0480006f          	j	80004598 <_prtl10+0x68>
80004554:	fdc42703          	lw	a4,-36(s0)
80004558:	00a00793          	li	a5,10
8000455c:	02f767b3          	rem	a5,a4,a5
80004560:	0ff7f793          	zext.b	a5,a5
80004564:	03078793          	addi	a5,a5,48
80004568:	0ff7f713          	zext.b	a4,a5
8000456c:	fec42783          	lw	a5,-20(s0)
80004570:	ff078793          	addi	a5,a5,-16
80004574:	008787b3          	add	a5,a5,s0
80004578:	fee78823          	sb	a4,-16(a5)
8000457c:	fdc42703          	lw	a4,-36(s0)
80004580:	00a00793          	li	a5,10
80004584:	02f747b3          	div	a5,a4,a5
80004588:	fcf42e23          	sw	a5,-36(s0)
8000458c:	fec42783          	lw	a5,-20(s0)
80004590:	00178793          	addi	a5,a5,1
80004594:	fef42623          	sw	a5,-20(s0)
80004598:	fec42703          	lw	a4,-20(s0)
8000459c:	00a00793          	li	a5,10
800045a0:	fae7dae3          	bge	a5,a4,80004554 <_prtl10+0x24>
800045a4:	00a00793          	li	a5,10
800045a8:	fef42623          	sw	a5,-20(s0)
800045ac:	0100006f          	j	800045bc <_prtl10+0x8c>
800045b0:	fec42783          	lw	a5,-20(s0)
800045b4:	fff78793          	addi	a5,a5,-1
800045b8:	fef42623          	sw	a5,-20(s0)
800045bc:	fec42783          	lw	a5,-20(s0)
800045c0:	ff078793          	addi	a5,a5,-16
800045c4:	008787b3          	add	a5,a5,s0
800045c8:	ff07c703          	lbu	a4,-16(a5)
800045cc:	03000793          	li	a5,48
800045d0:	fef700e3          	beq	a4,a5,800045b0 <_prtl10+0x80>
800045d4:	fec42783          	lw	a5,-20(s0)
800045d8:	02079e63          	bnez	a5,80004614 <_prtl10+0xe4>
800045dc:	fec42783          	lw	a5,-20(s0)
800045e0:	00178793          	addi	a5,a5,1
800045e4:	fef42623          	sw	a5,-20(s0)
800045e8:	02c0006f          	j	80004614 <_prtl10+0xe4>
800045ec:	fec42703          	lw	a4,-20(s0)
800045f0:	fff70793          	addi	a5,a4,-1
800045f4:	fef42623          	sw	a5,-20(s0)
800045f8:	fd842783          	lw	a5,-40(s0)
800045fc:	00178693          	addi	a3,a5,1
80004600:	fcd42c23          	sw	a3,-40(s0)
80004604:	ff070713          	addi	a4,a4,-16
80004608:	00870733          	add	a4,a4,s0
8000460c:	ff074703          	lbu	a4,-16(a4)
80004610:	00e78023          	sb	a4,0(a5)
80004614:	fec42783          	lw	a5,-20(s0)
80004618:	fc07dae3          	bgez	a5,800045ec <_prtl10+0xbc>
8000461c:	00000013          	nop
80004620:	00000013          	nop
80004624:	02c12403          	lw	s0,44(sp)
80004628:	03010113          	addi	sp,sp,48
8000462c:	00008067          	ret

80004630 <_prtl8>:
80004630:	fd010113          	addi	sp,sp,-48
80004634:	02812623          	sw	s0,44(sp)
80004638:	03010413          	addi	s0,sp,48
8000463c:	fca42e23          	sw	a0,-36(s0)
80004640:	fcb42c23          	sw	a1,-40(s0)
80004644:	fe040023          	sb	zero,-32(s0)
80004648:	00100793          	li	a5,1
8000464c:	fef42623          	sw	a5,-20(s0)
80004650:	0440006f          	j	80004694 <_prtl8+0x64>
80004654:	fdc42783          	lw	a5,-36(s0)
80004658:	0ff7f793          	zext.b	a5,a5
8000465c:	0077f793          	andi	a5,a5,7
80004660:	0ff7f793          	zext.b	a5,a5
80004664:	03078793          	addi	a5,a5,48
80004668:	0ff7f713          	zext.b	a4,a5
8000466c:	fec42783          	lw	a5,-20(s0)
80004670:	ff078793          	addi	a5,a5,-16
80004674:	008787b3          	add	a5,a5,s0
80004678:	fee78823          	sb	a4,-16(a5)
8000467c:	fdc42783          	lw	a5,-36(s0)
80004680:	4037d793          	srai	a5,a5,0x3
80004684:	fcf42e23          	sw	a5,-36(s0)
80004688:	fec42783          	lw	a5,-20(s0)
8000468c:	00178793          	addi	a5,a5,1
80004690:	fef42623          	sw	a5,-20(s0)
80004694:	fec42703          	lw	a4,-20(s0)
80004698:	00b00793          	li	a5,11
8000469c:	fae7dce3          	bge	a5,a4,80004654 <_prtl8+0x24>
800046a0:	feb44783          	lbu	a5,-21(s0)
800046a4:	0337f793          	andi	a5,a5,51
800046a8:	0ff7f793          	zext.b	a5,a5
800046ac:	fef405a3          	sb	a5,-21(s0)
800046b0:	00b00793          	li	a5,11
800046b4:	fef42623          	sw	a5,-20(s0)
800046b8:	0100006f          	j	800046c8 <_prtl8+0x98>
800046bc:	fec42783          	lw	a5,-20(s0)
800046c0:	fff78793          	addi	a5,a5,-1
800046c4:	fef42623          	sw	a5,-20(s0)
800046c8:	fec42783          	lw	a5,-20(s0)
800046cc:	ff078793          	addi	a5,a5,-16
800046d0:	008787b3          	add	a5,a5,s0
800046d4:	ff07c703          	lbu	a4,-16(a5)
800046d8:	03000793          	li	a5,48
800046dc:	fef700e3          	beq	a4,a5,800046bc <_prtl8+0x8c>
800046e0:	fec42783          	lw	a5,-20(s0)
800046e4:	02079e63          	bnez	a5,80004720 <_prtl8+0xf0>
800046e8:	fec42783          	lw	a5,-20(s0)
800046ec:	00178793          	addi	a5,a5,1
800046f0:	fef42623          	sw	a5,-20(s0)
800046f4:	02c0006f          	j	80004720 <_prtl8+0xf0>
800046f8:	fec42703          	lw	a4,-20(s0)
800046fc:	fff70793          	addi	a5,a4,-1
80004700:	fef42623          	sw	a5,-20(s0)
80004704:	fd842783          	lw	a5,-40(s0)
80004708:	00178693          	addi	a3,a5,1
8000470c:	fcd42c23          	sw	a3,-40(s0)
80004710:	ff070713          	addi	a4,a4,-16
80004714:	00870733          	add	a4,a4,s0
80004718:	ff074703          	lbu	a4,-16(a4)
8000471c:	00e78023          	sb	a4,0(a5)
80004720:	fec42783          	lw	a5,-20(s0)
80004724:	fc07dae3          	bgez	a5,800046f8 <_prtl8+0xc8>
80004728:	00000013          	nop
8000472c:	00000013          	nop
80004730:	02c12403          	lw	s0,44(sp)
80004734:	03010113          	addi	sp,sp,48
80004738:	00008067          	ret

8000473c <_prtl16>:
8000473c:	fd010113          	addi	sp,sp,-48
80004740:	02812623          	sw	s0,44(sp)
80004744:	03010413          	addi	s0,sp,48
80004748:	fca42e23          	sw	a0,-36(s0)
8000474c:	fcb42c23          	sw	a1,-40(s0)
80004750:	fe040023          	sb	zero,-32(s0)
80004754:	00100793          	li	a5,1
80004758:	fef42623          	sw	a5,-20(s0)
8000475c:	0440006f          	j	800047a0 <_prtl16+0x64>
80004760:	fdc42783          	lw	a5,-36(s0)
80004764:	00f7f793          	andi	a5,a5,15
80004768:	80014737          	lui	a4,0x80014
8000476c:	e5870713          	addi	a4,a4,-424 # 80013e58 <_ctype_+0x288>
80004770:	00f707b3          	add	a5,a4,a5
80004774:	0007c703          	lbu	a4,0(a5)
80004778:	fec42783          	lw	a5,-20(s0)
8000477c:	ff078793          	addi	a5,a5,-16
80004780:	008787b3          	add	a5,a5,s0
80004784:	fee78823          	sb	a4,-16(a5)
80004788:	fdc42783          	lw	a5,-36(s0)
8000478c:	4047d793          	srai	a5,a5,0x4
80004790:	fcf42e23          	sw	a5,-36(s0)
80004794:	fec42783          	lw	a5,-20(s0)
80004798:	00178793          	addi	a5,a5,1
8000479c:	fef42623          	sw	a5,-20(s0)
800047a0:	fec42703          	lw	a4,-20(s0)
800047a4:	00800793          	li	a5,8
800047a8:	fae7dce3          	bge	a5,a4,80004760 <_prtl16+0x24>
800047ac:	00800793          	li	a5,8
800047b0:	fef42623          	sw	a5,-20(s0)
800047b4:	0100006f          	j	800047c4 <_prtl16+0x88>
800047b8:	fec42783          	lw	a5,-20(s0)
800047bc:	fff78793          	addi	a5,a5,-1
800047c0:	fef42623          	sw	a5,-20(s0)
800047c4:	fec42783          	lw	a5,-20(s0)
800047c8:	ff078793          	addi	a5,a5,-16
800047cc:	008787b3          	add	a5,a5,s0
800047d0:	ff07c703          	lbu	a4,-16(a5)
800047d4:	03000793          	li	a5,48
800047d8:	fef700e3          	beq	a4,a5,800047b8 <_prtl16+0x7c>
800047dc:	fec42783          	lw	a5,-20(s0)
800047e0:	02079e63          	bnez	a5,8000481c <_prtl16+0xe0>
800047e4:	fec42783          	lw	a5,-20(s0)
800047e8:	00178793          	addi	a5,a5,1
800047ec:	fef42623          	sw	a5,-20(s0)
800047f0:	02c0006f          	j	8000481c <_prtl16+0xe0>
800047f4:	fec42703          	lw	a4,-20(s0)
800047f8:	fff70793          	addi	a5,a4,-1
800047fc:	fef42623          	sw	a5,-20(s0)
80004800:	fd842783          	lw	a5,-40(s0)
80004804:	00178693          	addi	a3,a5,1
80004808:	fcd42c23          	sw	a3,-40(s0)
8000480c:	ff070713          	addi	a4,a4,-16
80004810:	00870733          	add	a4,a4,s0
80004814:	ff074703          	lbu	a4,-16(a4)
80004818:	00e78023          	sb	a4,0(a5)
8000481c:	fec42783          	lw	a5,-20(s0)
80004820:	fc07dae3          	bgez	a5,800047f4 <_prtl16+0xb8>
80004824:	00000013          	nop
80004828:	00000013          	nop
8000482c:	02c12403          	lw	s0,44(sp)
80004830:	03010113          	addi	sp,sp,48
80004834:	00008067          	ret

80004838 <_prtX16>:
80004838:	fd010113          	addi	sp,sp,-48
8000483c:	02812623          	sw	s0,44(sp)
80004840:	03010413          	addi	s0,sp,48
80004844:	fca42e23          	sw	a0,-36(s0)
80004848:	fcb42c23          	sw	a1,-40(s0)
8000484c:	fe040023          	sb	zero,-32(s0)
80004850:	00100793          	li	a5,1
80004854:	fef42623          	sw	a5,-20(s0)
80004858:	0440006f          	j	8000489c <_prtX16+0x64>
8000485c:	fdc42783          	lw	a5,-36(s0)
80004860:	00f7f793          	andi	a5,a5,15
80004864:	80014737          	lui	a4,0x80014
80004868:	e6c70713          	addi	a4,a4,-404 # 80013e6c <_ctype_+0x29c>
8000486c:	00f707b3          	add	a5,a4,a5
80004870:	0007c703          	lbu	a4,0(a5)
80004874:	fec42783          	lw	a5,-20(s0)
80004878:	ff078793          	addi	a5,a5,-16
8000487c:	008787b3          	add	a5,a5,s0
80004880:	fee78823          	sb	a4,-16(a5)
80004884:	fdc42783          	lw	a5,-36(s0)
80004888:	4047d793          	srai	a5,a5,0x4
8000488c:	fcf42e23          	sw	a5,-36(s0)
80004890:	fec42783          	lw	a5,-20(s0)
80004894:	00178793          	addi	a5,a5,1
80004898:	fef42623          	sw	a5,-20(s0)
8000489c:	fec42703          	lw	a4,-20(s0)
800048a0:	00800793          	li	a5,8
800048a4:	fae7dce3          	bge	a5,a4,8000485c <_prtX16+0x24>
800048a8:	00800793          	li	a5,8
800048ac:	fef42623          	sw	a5,-20(s0)
800048b0:	0100006f          	j	800048c0 <_prtX16+0x88>
800048b4:	fec42783          	lw	a5,-20(s0)
800048b8:	fff78793          	addi	a5,a5,-1
800048bc:	fef42623          	sw	a5,-20(s0)
800048c0:	fec42783          	lw	a5,-20(s0)
800048c4:	ff078793          	addi	a5,a5,-16
800048c8:	008787b3          	add	a5,a5,s0
800048cc:	ff07c703          	lbu	a4,-16(a5)
800048d0:	03000793          	li	a5,48
800048d4:	fef700e3          	beq	a4,a5,800048b4 <_prtX16+0x7c>
800048d8:	fec42783          	lw	a5,-20(s0)
800048dc:	02079e63          	bnez	a5,80004918 <_prtX16+0xe0>
800048e0:	fec42783          	lw	a5,-20(s0)
800048e4:	00178793          	addi	a5,a5,1
800048e8:	fef42623          	sw	a5,-20(s0)
800048ec:	02c0006f          	j	80004918 <_prtX16+0xe0>
800048f0:	fec42703          	lw	a4,-20(s0)
800048f4:	fff70793          	addi	a5,a4,-1
800048f8:	fef42623          	sw	a5,-20(s0)
800048fc:	fd842783          	lw	a5,-40(s0)
80004900:	00178693          	addi	a3,a5,1
80004904:	fcd42c23          	sw	a3,-40(s0)
80004908:	ff070713          	addi	a4,a4,-16
8000490c:	00870733          	add	a4,a4,s0
80004910:	ff074703          	lbu	a4,-16(a4)
80004914:	00e78023          	sb	a4,0(a5)
80004918:	fec42783          	lw	a5,-20(s0)
8000491c:	fc07dae3          	bgez	a5,800048f0 <_prtX16+0xb8>
80004920:	00000013          	nop
80004924:	00000013          	nop
80004928:	02c12403          	lw	s0,44(sp)
8000492c:	03010113          	addi	sp,sp,48
80004930:	00008067          	ret

80004934 <_prtl2>:
80004934:	fb010113          	addi	sp,sp,-80
80004938:	04812623          	sw	s0,76(sp)
8000493c:	05010413          	addi	s0,sp,80
80004940:	faa42e23          	sw	a0,-68(s0)
80004944:	fab42c23          	sw	a1,-72(s0)
80004948:	fc040423          	sb	zero,-56(s0)
8000494c:	00100793          	li	a5,1
80004950:	fef42623          	sw	a5,-20(s0)
80004954:	0440006f          	j	80004998 <_prtl2+0x64>
80004958:	fbc42783          	lw	a5,-68(s0)
8000495c:	0017f793          	andi	a5,a5,1
80004960:	00079663          	bnez	a5,8000496c <_prtl2+0x38>
80004964:	03000793          	li	a5,48
80004968:	0080006f          	j	80004970 <_prtl2+0x3c>
8000496c:	03100793          	li	a5,49
80004970:	fec42703          	lw	a4,-20(s0)
80004974:	ff070713          	addi	a4,a4,-16
80004978:	00870733          	add	a4,a4,s0
8000497c:	fcf70c23          	sb	a5,-40(a4)
80004980:	fbc42783          	lw	a5,-68(s0)
80004984:	4017d793          	srai	a5,a5,0x1
80004988:	faf42e23          	sw	a5,-68(s0)
8000498c:	fec42783          	lw	a5,-20(s0)
80004990:	00178793          	addi	a5,a5,1
80004994:	fef42623          	sw	a5,-20(s0)
80004998:	fec42703          	lw	a4,-20(s0)
8000499c:	02000793          	li	a5,32
800049a0:	fae7dce3          	bge	a5,a4,80004958 <_prtl2+0x24>
800049a4:	02000793          	li	a5,32
800049a8:	fef42623          	sw	a5,-20(s0)
800049ac:	0100006f          	j	800049bc <_prtl2+0x88>
800049b0:	fec42783          	lw	a5,-20(s0)
800049b4:	fff78793          	addi	a5,a5,-1
800049b8:	fef42623          	sw	a5,-20(s0)
800049bc:	fec42783          	lw	a5,-20(s0)
800049c0:	ff078793          	addi	a5,a5,-16
800049c4:	008787b3          	add	a5,a5,s0
800049c8:	fd87c703          	lbu	a4,-40(a5)
800049cc:	03000793          	li	a5,48
800049d0:	fef700e3          	beq	a4,a5,800049b0 <_prtl2+0x7c>
800049d4:	fec42783          	lw	a5,-20(s0)
800049d8:	02079e63          	bnez	a5,80004a14 <_prtl2+0xe0>
800049dc:	fec42783          	lw	a5,-20(s0)
800049e0:	00178793          	addi	a5,a5,1
800049e4:	fef42623          	sw	a5,-20(s0)
800049e8:	02c0006f          	j	80004a14 <_prtl2+0xe0>
800049ec:	fec42703          	lw	a4,-20(s0)
800049f0:	fff70793          	addi	a5,a4,-1
800049f4:	fef42623          	sw	a5,-20(s0)
800049f8:	fb842783          	lw	a5,-72(s0)
800049fc:	00178693          	addi	a3,a5,1
80004a00:	fad42c23          	sw	a3,-72(s0)
80004a04:	ff070713          	addi	a4,a4,-16
80004a08:	00870733          	add	a4,a4,s0
80004a0c:	fd874703          	lbu	a4,-40(a4)
80004a10:	00e78023          	sb	a4,0(a5)
80004a14:	fec42783          	lw	a5,-20(s0)
80004a18:	fc07dae3          	bgez	a5,800049ec <_prtl2+0xb8>
80004a1c:	00000013          	nop
80004a20:	00000013          	nop
80004a24:	04c12403          	lw	s0,76(sp)
80004a28:	05010113          	addi	sp,sp,80
80004a2c:	00008067          	ret

80004a30 <context_irq_enable>:
80004a30:	fe010113          	addi	sp,sp,-32
80004a34:	00812e23          	sw	s0,28(sp)
80004a38:	02010413          	addi	s0,sp,32
80004a3c:	fea42623          	sw	a0,-20(s0)
80004a40:	feb42423          	sw	a1,-24(s0)
80004a44:	fec42783          	lw	a5,-20(s0)
80004a48:	0047a783          	lw	a5,4(a5)
80004a4c:	f7f7f713          	andi	a4,a5,-129
80004a50:	fec42783          	lw	a5,-20(s0)
80004a54:	00e7a223          	sw	a4,4(a5)
80004a58:	fec42783          	lw	a5,-20(s0)
80004a5c:	0047a703          	lw	a4,4(a5)
80004a60:	fe842783          	lw	a5,-24(s0)
80004a64:	00078663          	beqz	a5,80004a70 <context_irq_enable+0x40>
80004a68:	08000793          	li	a5,128
80004a6c:	0080006f          	j	80004a74 <context_irq_enable+0x44>
80004a70:	00000793          	li	a5,0
80004a74:	00e7e733          	or	a4,a5,a4
80004a78:	fec42783          	lw	a5,-20(s0)
80004a7c:	00e7a223          	sw	a4,4(a5)
80004a80:	00000013          	nop
80004a84:	01c12403          	lw	s0,28(sp)
80004a88:	02010113          	addi	sp,sp,32
80004a8c:	00008067          	ret

80004a90 <timer_diff>:
80004a90:	fe010113          	addi	sp,sp,-32
80004a94:	00812e23          	sw	s0,28(sp)
80004a98:	02010413          	addi	s0,sp,32
80004a9c:	fea42623          	sw	a0,-20(s0)
80004aa0:	feb42423          	sw	a1,-24(s0)
80004aa4:	fec42703          	lw	a4,-20(s0)
80004aa8:	fe842783          	lw	a5,-24(s0)
80004aac:	40f707b3          	sub	a5,a4,a5
80004ab0:	00078513          	mv	a0,a5
80004ab4:	01c12403          	lw	s0,28(sp)
80004ab8:	02010113          	addi	sp,sp,32
80004abc:	00008067          	ret

80004ac0 <fprintf>:
80004ac0:	fb010113          	addi	sp,sp,-80
80004ac4:	02112623          	sw	ra,44(sp)
80004ac8:	02812423          	sw	s0,40(sp)
80004acc:	03010413          	addi	s0,sp,48
80004ad0:	fca42e23          	sw	a0,-36(s0)
80004ad4:	fcb42c23          	sw	a1,-40(s0)
80004ad8:	00c42423          	sw	a2,8(s0)
80004adc:	00d42623          	sw	a3,12(s0)
80004ae0:	00e42823          	sw	a4,16(s0)
80004ae4:	00f42a23          	sw	a5,20(s0)
80004ae8:	01042c23          	sw	a6,24(s0)
80004aec:	01142e23          	sw	a7,28(s0)
80004af0:	02040793          	addi	a5,s0,32
80004af4:	fcf42a23          	sw	a5,-44(s0)
80004af8:	fd442783          	lw	a5,-44(s0)
80004afc:	fe878793          	addi	a5,a5,-24
80004b00:	fef42623          	sw	a5,-20(s0)
80004b04:	fec42703          	lw	a4,-20(s0)
80004b08:	fdc42683          	lw	a3,-36(s0)
80004b0c:	8000c7b7          	lui	a5,0x8000c
80004b10:	18878613          	addi	a2,a5,392 # 8000c188 <putc>
80004b14:	00070593          	mv	a1,a4
80004b18:	fd842503          	lw	a0,-40(s0)
80004b1c:	be4ff0ef          	jal	80003f00 <_fdoprnt>
80004b20:	00000793          	li	a5,0
80004b24:	00078513          	mv	a0,a5
80004b28:	02c12083          	lw	ra,44(sp)
80004b2c:	02812403          	lw	s0,40(sp)
80004b30:	05010113          	addi	sp,sp,80
80004b34:	00008067          	ret

80004b38 <heap_init>:
80004b38:	fd010113          	addi	sp,sp,-48
80004b3c:	02812623          	sw	s0,44(sp)
80004b40:	03010413          	addi	s0,sp,48
80004b44:	fca42e23          	sw	a0,-36(s0)
80004b48:	8001d7b7          	lui	a5,0x8001d
80004b4c:	fdc42703          	lw	a4,-36(s0)
80004b50:	4ce7a023          	sw	a4,1216(a5) # 8001d4c0 <minheap>
80004b54:	8001d7b7          	lui	a5,0x8001d
80004b58:	8001d737          	lui	a4,0x8001d
80004b5c:	4c070713          	addi	a4,a4,1216 # 8001d4c0 <minheap>
80004b60:	4ce7a223          	sw	a4,1220(a5) # 8001d4c4 <maxheap>
80004b64:	8001d7b7          	lui	a5,0x8001d
80004b68:	4c07a703          	lw	a4,1216(a5) # 8001d4c0 <minheap>
80004b6c:	8001d7b7          	lui	a5,0x8001d
80004b70:	4e478793          	addi	a5,a5,1252 # 8001d4e4 <memlist>
80004b74:	00e7a023          	sw	a4,0(a5)
80004b78:	8001d7b7          	lui	a5,0x8001d
80004b7c:	4e478793          	addi	a5,a5,1252 # 8001d4e4 <memlist>
80004b80:	0007a783          	lw	a5,0(a5)
80004b84:	fef42623          	sw	a5,-20(s0)
80004b88:	fec42783          	lw	a5,-20(s0)
80004b8c:	0007a023          	sw	zero,0(a5)
80004b90:	8001d7b7          	lui	a5,0x8001d
80004b94:	4c47a783          	lw	a5,1220(a5) # 8001d4c4 <maxheap>
80004b98:	00078713          	mv	a4,a5
80004b9c:	8001d7b7          	lui	a5,0x8001d
80004ba0:	4c07a783          	lw	a5,1216(a5) # 8001d4c0 <minheap>
80004ba4:	40f70733          	sub	a4,a4,a5
80004ba8:	fec42783          	lw	a5,-20(s0)
80004bac:	00e7a223          	sw	a4,4(a5)
80004bb0:	fec42783          	lw	a5,-20(s0)
80004bb4:	0047a703          	lw	a4,4(a5)
80004bb8:	8001d7b7          	lui	a5,0x8001d
80004bbc:	4e478793          	addi	a5,a5,1252 # 8001d4e4 <memlist>
80004bc0:	00e7a223          	sw	a4,4(a5)
80004bc4:	00000013          	nop
80004bc8:	02c12403          	lw	s0,44(sp)
80004bcc:	03010113          	addi	sp,sp,48
80004bd0:	00008067          	ret

80004bd4 <heap_free>:
80004bd4:	fe010113          	addi	sp,sp,-32
80004bd8:	00812e23          	sw	s0,28(sp)
80004bdc:	02010413          	addi	s0,sp,32
80004be0:	fe042423          	sw	zero,-24(s0)
80004be4:	8001d7b7          	lui	a5,0x8001d
80004be8:	4e478793          	addi	a5,a5,1252 # 8001d4e4 <memlist>
80004bec:	0007a783          	lw	a5,0(a5)
80004bf0:	fef42623          	sw	a5,-20(s0)
80004bf4:	0240006f          	j	80004c18 <heap_free+0x44>
80004bf8:	fec42783          	lw	a5,-20(s0)
80004bfc:	0047a783          	lw	a5,4(a5)
80004c00:	fe842703          	lw	a4,-24(s0)
80004c04:	00f707b3          	add	a5,a4,a5
80004c08:	fef42423          	sw	a5,-24(s0)
80004c0c:	fec42783          	lw	a5,-20(s0)
80004c10:	0007a783          	lw	a5,0(a5)
80004c14:	fef42623          	sw	a5,-20(s0)
80004c18:	fec42783          	lw	a5,-20(s0)
80004c1c:	fc079ee3          	bnez	a5,80004bf8 <heap_free+0x24>
80004c20:	fe842783          	lw	a5,-24(s0)
80004c24:	00078513          	mv	a0,a5
80004c28:	01c12403          	lw	s0,28(sp)
80004c2c:	02010113          	addi	sp,sp,32
80004c30:	00008067          	ret

80004c34 <freemem>:
80004c34:	fc010113          	addi	sp,sp,-64
80004c38:	02112e23          	sw	ra,60(sp)
80004c3c:	02812c23          	sw	s0,56(sp)
80004c40:	04010413          	addi	s0,sp,64
80004c44:	fca42623          	sw	a0,-52(s0)
80004c48:	fcb42423          	sw	a1,-56(s0)
80004c4c:	e40fb0ef          	jal	8000028c <disable>
80004c50:	fca42e23          	sw	a0,-36(s0)
80004c54:	fc842783          	lw	a5,-56(s0)
80004c58:	02078263          	beqz	a5,80004c7c <freemem+0x48>
80004c5c:	fcc42783          	lw	a5,-52(s0)
80004c60:	8001d737          	lui	a4,0x8001d
80004c64:	4c072703          	lw	a4,1216(a4) # 8001d4c0 <minheap>
80004c68:	00e7ea63          	bltu	a5,a4,80004c7c <freemem+0x48>
80004c6c:	fcc42783          	lw	a5,-52(s0)
80004c70:	8001d737          	lui	a4,0x8001d
80004c74:	4c472703          	lw	a4,1220(a4) # 8001d4c4 <maxheap>
80004c78:	00f77a63          	bgeu	a4,a5,80004c8c <freemem+0x58>
80004c7c:	fdc42503          	lw	a0,-36(s0)
80004c80:	e14fb0ef          	jal	80000294 <restore>
80004c84:	fff00793          	li	a5,-1
80004c88:	19c0006f          	j	80004e24 <freemem+0x1f0>
80004c8c:	fc842783          	lw	a5,-56(s0)
80004c90:	00778793          	addi	a5,a5,7
80004c94:	ff87f793          	andi	a5,a5,-8
80004c98:	fcf42423          	sw	a5,-56(s0)
80004c9c:	fcc42783          	lw	a5,-52(s0)
80004ca0:	fef42223          	sw	a5,-28(s0)
80004ca4:	8001d7b7          	lui	a5,0x8001d
80004ca8:	4e478793          	addi	a5,a5,1252 # 8001d4e4 <memlist>
80004cac:	fef42423          	sw	a5,-24(s0)
80004cb0:	8001d7b7          	lui	a5,0x8001d
80004cb4:	4e478793          	addi	a5,a5,1252 # 8001d4e4 <memlist>
80004cb8:	0007a783          	lw	a5,0(a5)
80004cbc:	fef42623          	sw	a5,-20(s0)
80004cc0:	0180006f          	j	80004cd8 <freemem+0xa4>
80004cc4:	fec42783          	lw	a5,-20(s0)
80004cc8:	fef42423          	sw	a5,-24(s0)
80004ccc:	fec42783          	lw	a5,-20(s0)
80004cd0:	0007a783          	lw	a5,0(a5)
80004cd4:	fef42623          	sw	a5,-20(s0)
80004cd8:	fec42783          	lw	a5,-20(s0)
80004cdc:	00078863          	beqz	a5,80004cec <freemem+0xb8>
80004ce0:	fec42703          	lw	a4,-20(s0)
80004ce4:	fe442783          	lw	a5,-28(s0)
80004ce8:	fcf76ee3          	bltu	a4,a5,80004cc4 <freemem+0x90>
80004cec:	fe842703          	lw	a4,-24(s0)
80004cf0:	8001d7b7          	lui	a5,0x8001d
80004cf4:	4e478793          	addi	a5,a5,1252 # 8001d4e4 <memlist>
80004cf8:	00f71663          	bne	a4,a5,80004d04 <freemem+0xd0>
80004cfc:	fe042023          	sw	zero,-32(s0)
80004d00:	0180006f          	j	80004d18 <freemem+0xe4>
80004d04:	fe842783          	lw	a5,-24(s0)
80004d08:	0047a703          	lw	a4,4(a5)
80004d0c:	fe842783          	lw	a5,-24(s0)
80004d10:	00f707b3          	add	a5,a4,a5
80004d14:	fef42023          	sw	a5,-32(s0)
80004d18:	fe842703          	lw	a4,-24(s0)
80004d1c:	8001d7b7          	lui	a5,0x8001d
80004d20:	4e478793          	addi	a5,a5,1252 # 8001d4e4 <memlist>
80004d24:	00f70863          	beq	a4,a5,80004d34 <freemem+0x100>
80004d28:	fe442783          	lw	a5,-28(s0)
80004d2c:	fe042703          	lw	a4,-32(s0)
80004d30:	02e7e063          	bltu	a5,a4,80004d50 <freemem+0x11c>
80004d34:	fec42783          	lw	a5,-20(s0)
80004d38:	02078463          	beqz	a5,80004d60 <freemem+0x12c>
80004d3c:	fe442703          	lw	a4,-28(s0)
80004d40:	fc842783          	lw	a5,-56(s0)
80004d44:	00f70733          	add	a4,a4,a5
80004d48:	fec42783          	lw	a5,-20(s0)
80004d4c:	00e7fa63          	bgeu	a5,a4,80004d60 <freemem+0x12c>
80004d50:	fdc42503          	lw	a0,-36(s0)
80004d54:	d40fb0ef          	jal	80000294 <restore>
80004d58:	fff00793          	li	a5,-1
80004d5c:	0c80006f          	j	80004e24 <freemem+0x1f0>
80004d60:	8001d7b7          	lui	a5,0x8001d
80004d64:	4e478793          	addi	a5,a5,1252 # 8001d4e4 <memlist>
80004d68:	0047a703          	lw	a4,4(a5)
80004d6c:	fc842783          	lw	a5,-56(s0)
80004d70:	00f70733          	add	a4,a4,a5
80004d74:	8001d7b7          	lui	a5,0x8001d
80004d78:	4e478793          	addi	a5,a5,1252 # 8001d4e4 <memlist>
80004d7c:	00e7a223          	sw	a4,4(a5)
80004d80:	fe442783          	lw	a5,-28(s0)
80004d84:	fe042703          	lw	a4,-32(s0)
80004d88:	02f71463          	bne	a4,a5,80004db0 <freemem+0x17c>
80004d8c:	fe842783          	lw	a5,-24(s0)
80004d90:	0047a703          	lw	a4,4(a5)
80004d94:	fc842783          	lw	a5,-56(s0)
80004d98:	00f70733          	add	a4,a4,a5
80004d9c:	fe842783          	lw	a5,-24(s0)
80004da0:	00e7a223          	sw	a4,4(a5)
80004da4:	fe842783          	lw	a5,-24(s0)
80004da8:	fef42223          	sw	a5,-28(s0)
80004dac:	0280006f          	j	80004dd4 <freemem+0x1a0>
80004db0:	fe442783          	lw	a5,-28(s0)
80004db4:	fec42703          	lw	a4,-20(s0)
80004db8:	00e7a023          	sw	a4,0(a5)
80004dbc:	fe442783          	lw	a5,-28(s0)
80004dc0:	fc842703          	lw	a4,-56(s0)
80004dc4:	00e7a223          	sw	a4,4(a5)
80004dc8:	fe842783          	lw	a5,-24(s0)
80004dcc:	fe442703          	lw	a4,-28(s0)
80004dd0:	00e7a023          	sw	a4,0(a5)
80004dd4:	fe442783          	lw	a5,-28(s0)
80004dd8:	0047a703          	lw	a4,4(a5)
80004ddc:	fe442783          	lw	a5,-28(s0)
80004de0:	00f70733          	add	a4,a4,a5
80004de4:	fec42783          	lw	a5,-20(s0)
80004de8:	02f71863          	bne	a4,a5,80004e18 <freemem+0x1e4>
80004dec:	fe442783          	lw	a5,-28(s0)
80004df0:	0047a703          	lw	a4,4(a5)
80004df4:	fec42783          	lw	a5,-20(s0)
80004df8:	0047a783          	lw	a5,4(a5)
80004dfc:	00f70733          	add	a4,a4,a5
80004e00:	fe442783          	lw	a5,-28(s0)
80004e04:	00e7a223          	sw	a4,4(a5)
80004e08:	fec42783          	lw	a5,-20(s0)
80004e0c:	0007a703          	lw	a4,0(a5)
80004e10:	fe442783          	lw	a5,-28(s0)
80004e14:	00e7a023          	sw	a4,0(a5)
80004e18:	fdc42503          	lw	a0,-36(s0)
80004e1c:	c78fb0ef          	jal	80000294 <restore>
80004e20:	00100793          	li	a5,1
80004e24:	00078513          	mv	a0,a5
80004e28:	03c12083          	lw	ra,60(sp)
80004e2c:	03812403          	lw	s0,56(sp)
80004e30:	04010113          	addi	sp,sp,64
80004e34:	00008067          	ret

80004e38 <getmem>:
80004e38:	fd010113          	addi	sp,sp,-48
80004e3c:	02112623          	sw	ra,44(sp)
80004e40:	02812423          	sw	s0,40(sp)
80004e44:	03010413          	addi	s0,sp,48
80004e48:	fca42e23          	sw	a0,-36(s0)
80004e4c:	c40fb0ef          	jal	8000028c <disable>
80004e50:	fea42223          	sw	a0,-28(s0)
80004e54:	fdc42783          	lw	a5,-36(s0)
80004e58:	00079a63          	bnez	a5,80004e6c <getmem+0x34>
80004e5c:	fe442503          	lw	a0,-28(s0)
80004e60:	c34fb0ef          	jal	80000294 <restore>
80004e64:	fff00793          	li	a5,-1
80004e68:	1300006f          	j	80004f98 <getmem+0x160>
80004e6c:	fdc42783          	lw	a5,-36(s0)
80004e70:	00778793          	addi	a5,a5,7
80004e74:	ff87f793          	andi	a5,a5,-8
80004e78:	fcf42e23          	sw	a5,-36(s0)
80004e7c:	8001d7b7          	lui	a5,0x8001d
80004e80:	4e478793          	addi	a5,a5,1252 # 8001d4e4 <memlist>
80004e84:	fef42623          	sw	a5,-20(s0)
80004e88:	8001d7b7          	lui	a5,0x8001d
80004e8c:	4e478793          	addi	a5,a5,1252 # 8001d4e4 <memlist>
80004e90:	0007a783          	lw	a5,0(a5)
80004e94:	fef42423          	sw	a5,-24(s0)
80004e98:	0ec0006f          	j	80004f84 <getmem+0x14c>
80004e9c:	fe842783          	lw	a5,-24(s0)
80004ea0:	0047a783          	lw	a5,4(a5)
80004ea4:	fdc42703          	lw	a4,-36(s0)
80004ea8:	04f71263          	bne	a4,a5,80004eec <getmem+0xb4>
80004eac:	fe842783          	lw	a5,-24(s0)
80004eb0:	0007a703          	lw	a4,0(a5)
80004eb4:	fec42783          	lw	a5,-20(s0)
80004eb8:	00e7a023          	sw	a4,0(a5)
80004ebc:	8001d7b7          	lui	a5,0x8001d
80004ec0:	4e478793          	addi	a5,a5,1252 # 8001d4e4 <memlist>
80004ec4:	0047a703          	lw	a4,4(a5)
80004ec8:	fdc42783          	lw	a5,-36(s0)
80004ecc:	40f70733          	sub	a4,a4,a5
80004ed0:	8001d7b7          	lui	a5,0x8001d
80004ed4:	4e478793          	addi	a5,a5,1252 # 8001d4e4 <memlist>
80004ed8:	00e7a223          	sw	a4,4(a5)
80004edc:	fe442503          	lw	a0,-28(s0)
80004ee0:	bb4fb0ef          	jal	80000294 <restore>
80004ee4:	fe842783          	lw	a5,-24(s0)
80004ee8:	0b00006f          	j	80004f98 <getmem+0x160>
80004eec:	fe842783          	lw	a5,-24(s0)
80004ef0:	0047a783          	lw	a5,4(a5)
80004ef4:	fdc42703          	lw	a4,-36(s0)
80004ef8:	06f77c63          	bgeu	a4,a5,80004f70 <getmem+0x138>
80004efc:	fe842703          	lw	a4,-24(s0)
80004f00:	fdc42783          	lw	a5,-36(s0)
80004f04:	00f707b3          	add	a5,a4,a5
80004f08:	fef42023          	sw	a5,-32(s0)
80004f0c:	fec42783          	lw	a5,-20(s0)
80004f10:	fe042703          	lw	a4,-32(s0)
80004f14:	00e7a023          	sw	a4,0(a5)
80004f18:	fe842783          	lw	a5,-24(s0)
80004f1c:	0007a703          	lw	a4,0(a5)
80004f20:	fe042783          	lw	a5,-32(s0)
80004f24:	00e7a023          	sw	a4,0(a5)
80004f28:	fe842783          	lw	a5,-24(s0)
80004f2c:	0047a703          	lw	a4,4(a5)
80004f30:	fdc42783          	lw	a5,-36(s0)
80004f34:	40f70733          	sub	a4,a4,a5
80004f38:	fe042783          	lw	a5,-32(s0)
80004f3c:	00e7a223          	sw	a4,4(a5)
80004f40:	8001d7b7          	lui	a5,0x8001d
80004f44:	4e478793          	addi	a5,a5,1252 # 8001d4e4 <memlist>
80004f48:	0047a703          	lw	a4,4(a5)
80004f4c:	fdc42783          	lw	a5,-36(s0)
80004f50:	40f70733          	sub	a4,a4,a5
80004f54:	8001d7b7          	lui	a5,0x8001d
80004f58:	4e478793          	addi	a5,a5,1252 # 8001d4e4 <memlist>
80004f5c:	00e7a223          	sw	a4,4(a5)
80004f60:	fe442503          	lw	a0,-28(s0)
80004f64:	b30fb0ef          	jal	80000294 <restore>
80004f68:	fe842783          	lw	a5,-24(s0)
80004f6c:	02c0006f          	j	80004f98 <getmem+0x160>
80004f70:	fe842783          	lw	a5,-24(s0)
80004f74:	fef42623          	sw	a5,-20(s0)
80004f78:	fe842783          	lw	a5,-24(s0)
80004f7c:	0007a783          	lw	a5,0(a5)
80004f80:	fef42423          	sw	a5,-24(s0)
80004f84:	fe842783          	lw	a5,-24(s0)
80004f88:	f0079ae3          	bnez	a5,80004e9c <getmem+0x64>
80004f8c:	fe442503          	lw	a0,-28(s0)
80004f90:	b04fb0ef          	jal	80000294 <restore>
80004f94:	fff00793          	li	a5,-1
80004f98:	00078513          	mv	a0,a5
80004f9c:	02c12083          	lw	ra,44(sp)
80004fa0:	02812403          	lw	s0,40(sp)
80004fa4:	03010113          	addi	sp,sp,48
80004fa8:	00008067          	ret

80004fac <getstk>:
80004fac:	fc010113          	addi	sp,sp,-64
80004fb0:	02112e23          	sw	ra,60(sp)
80004fb4:	02812c23          	sw	s0,56(sp)
80004fb8:	04010413          	addi	s0,sp,64
80004fbc:	fca42623          	sw	a0,-52(s0)
80004fc0:	accfb0ef          	jal	8000028c <disable>
80004fc4:	fca42e23          	sw	a0,-36(s0)
80004fc8:	fcc42783          	lw	a5,-52(s0)
80004fcc:	00079a63          	bnez	a5,80004fe0 <getstk+0x34>
80004fd0:	fdc42503          	lw	a0,-36(s0)
80004fd4:	ac0fb0ef          	jal	80000294 <restore>
80004fd8:	fff00793          	li	a5,-1
80004fdc:	1180006f          	j	800050f4 <getstk+0x148>
80004fe0:	fcc42783          	lw	a5,-52(s0)
80004fe4:	00778793          	addi	a5,a5,7
80004fe8:	ff87f793          	andi	a5,a5,-8
80004fec:	fcf42623          	sw	a5,-52(s0)
80004ff0:	8001d7b7          	lui	a5,0x8001d
80004ff4:	4e478793          	addi	a5,a5,1252 # 8001d4e4 <memlist>
80004ff8:	fef42623          	sw	a5,-20(s0)
80004ffc:	8001d7b7          	lui	a5,0x8001d
80005000:	4e478793          	addi	a5,a5,1252 # 8001d4e4 <memlist>
80005004:	0007a783          	lw	a5,0(a5)
80005008:	fef42423          	sw	a5,-24(s0)
8000500c:	fe042223          	sw	zero,-28(s0)
80005010:	fe042023          	sw	zero,-32(s0)
80005014:	0380006f          	j	8000504c <getstk+0xa0>
80005018:	fe842783          	lw	a5,-24(s0)
8000501c:	0047a783          	lw	a5,4(a5)
80005020:	fcc42703          	lw	a4,-52(s0)
80005024:	00e7ea63          	bltu	a5,a4,80005038 <getstk+0x8c>
80005028:	fe842783          	lw	a5,-24(s0)
8000502c:	fef42223          	sw	a5,-28(s0)
80005030:	fec42783          	lw	a5,-20(s0)
80005034:	fef42023          	sw	a5,-32(s0)
80005038:	fe842783          	lw	a5,-24(s0)
8000503c:	fef42623          	sw	a5,-20(s0)
80005040:	fe842783          	lw	a5,-24(s0)
80005044:	0007a783          	lw	a5,0(a5)
80005048:	fef42423          	sw	a5,-24(s0)
8000504c:	fe842783          	lw	a5,-24(s0)
80005050:	fc0794e3          	bnez	a5,80005018 <getstk+0x6c>
80005054:	fe442783          	lw	a5,-28(s0)
80005058:	00079a63          	bnez	a5,8000506c <getstk+0xc0>
8000505c:	fdc42503          	lw	a0,-36(s0)
80005060:	a34fb0ef          	jal	80000294 <restore>
80005064:	fff00793          	li	a5,-1
80005068:	08c0006f          	j	800050f4 <getstk+0x148>
8000506c:	fe442783          	lw	a5,-28(s0)
80005070:	0047a783          	lw	a5,4(a5)
80005074:	fcc42703          	lw	a4,-52(s0)
80005078:	00f71c63          	bne	a4,a5,80005090 <getstk+0xe4>
8000507c:	fe442783          	lw	a5,-28(s0)
80005080:	0007a703          	lw	a4,0(a5)
80005084:	fe042783          	lw	a5,-32(s0)
80005088:	00e7a023          	sw	a4,0(a5)
8000508c:	0300006f          	j	800050bc <getstk+0x110>
80005090:	fe442783          	lw	a5,-28(s0)
80005094:	0047a703          	lw	a4,4(a5)
80005098:	fcc42783          	lw	a5,-52(s0)
8000509c:	40f70733          	sub	a4,a4,a5
800050a0:	fe442783          	lw	a5,-28(s0)
800050a4:	00e7a223          	sw	a4,4(a5)
800050a8:	fe442783          	lw	a5,-28(s0)
800050ac:	0047a703          	lw	a4,4(a5)
800050b0:	fe442783          	lw	a5,-28(s0)
800050b4:	00f707b3          	add	a5,a4,a5
800050b8:	fef42223          	sw	a5,-28(s0)
800050bc:	8001d7b7          	lui	a5,0x8001d
800050c0:	4e478793          	addi	a5,a5,1252 # 8001d4e4 <memlist>
800050c4:	0047a703          	lw	a4,4(a5)
800050c8:	fcc42783          	lw	a5,-52(s0)
800050cc:	40f70733          	sub	a4,a4,a5
800050d0:	8001d7b7          	lui	a5,0x8001d
800050d4:	4e478793          	addi	a5,a5,1252 # 8001d4e4 <memlist>
800050d8:	00e7a223          	sw	a4,4(a5)
800050dc:	fdc42503          	lw	a0,-36(s0)
800050e0:	9b4fb0ef          	jal	80000294 <restore>
800050e4:	fe442703          	lw	a4,-28(s0)
800050e8:	fcc42783          	lw	a5,-52(s0)
800050ec:	00f707b3          	add	a5,a4,a5
800050f0:	ffc78793          	addi	a5,a5,-4
800050f4:	00078513          	mv	a0,a5
800050f8:	03c12083          	lw	ra,60(sp)
800050fc:	03812403          	lw	s0,56(sp)
80005100:	04010113          	addi	sp,sp,64
80005104:	00008067          	ret

80005108 <malloc>:
80005108:	fd010113          	addi	sp,sp,-48
8000510c:	02112623          	sw	ra,44(sp)
80005110:	02812423          	sw	s0,40(sp)
80005114:	03010413          	addi	s0,sp,48
80005118:	fca42e23          	sw	a0,-36(s0)
8000511c:	fdc42783          	lw	a5,-36(s0)
80005120:	00079663          	bnez	a5,8000512c <malloc+0x24>
80005124:	00000793          	li	a5,0
80005128:	0500006f          	j	80005178 <malloc+0x70>
8000512c:	fdc42783          	lw	a5,-36(s0)
80005130:	00878793          	addi	a5,a5,8
80005134:	fcf42e23          	sw	a5,-36(s0)
80005138:	fdc42503          	lw	a0,-36(s0)
8000513c:	cfdff0ef          	jal	80004e38 <getmem>
80005140:	fea42623          	sw	a0,-20(s0)
80005144:	fec42703          	lw	a4,-20(s0)
80005148:	fff00793          	li	a5,-1
8000514c:	00f71663          	bne	a4,a5,80005158 <malloc+0x50>
80005150:	00000793          	li	a5,0
80005154:	0240006f          	j	80005178 <malloc+0x70>
80005158:	fec42783          	lw	a5,-20(s0)
8000515c:	fec42703          	lw	a4,-20(s0)
80005160:	00e7a023          	sw	a4,0(a5)
80005164:	fec42783          	lw	a5,-20(s0)
80005168:	fdc42703          	lw	a4,-36(s0)
8000516c:	00e7a223          	sw	a4,4(a5)
80005170:	fec42783          	lw	a5,-20(s0)
80005174:	00878793          	addi	a5,a5,8
80005178:	00078513          	mv	a0,a5
8000517c:	02c12083          	lw	ra,44(sp)
80005180:	02812403          	lw	s0,40(sp)
80005184:	03010113          	addi	sp,sp,48
80005188:	00008067          	ret

8000518c <free>:
8000518c:	fd010113          	addi	sp,sp,-48
80005190:	02112623          	sw	ra,44(sp)
80005194:	02812423          	sw	s0,40(sp)
80005198:	03010413          	addi	s0,sp,48
8000519c:	fca42e23          	sw	a0,-36(s0)
800051a0:	fdc42783          	lw	a5,-36(s0)
800051a4:	fef42623          	sw	a5,-20(s0)
800051a8:	fec42783          	lw	a5,-20(s0)
800051ac:	ff878793          	addi	a5,a5,-8
800051b0:	fef42623          	sw	a5,-20(s0)
800051b4:	fec42783          	lw	a5,-20(s0)
800051b8:	0007a783          	lw	a5,0(a5)
800051bc:	fec42703          	lw	a4,-20(s0)
800051c0:	00f71e63          	bne	a4,a5,800051dc <free+0x50>
800051c4:	fec42783          	lw	a5,-20(s0)
800051c8:	0047a783          	lw	a5,4(a5)
800051cc:	00078593          	mv	a1,a5
800051d0:	fec42503          	lw	a0,-20(s0)
800051d4:	a61ff0ef          	jal	80004c34 <freemem>
800051d8:	0080006f          	j	800051e0 <free+0x54>
800051dc:	00000013          	nop
800051e0:	02c12083          	lw	ra,44(sp)
800051e4:	02812403          	lw	s0,40(sp)
800051e8:	03010113          	addi	sp,sp,48
800051ec:	00008067          	ret

800051f0 <realloc>:
800051f0:	fd010113          	addi	sp,sp,-48
800051f4:	02112623          	sw	ra,44(sp)
800051f8:	02812423          	sw	s0,40(sp)
800051fc:	03010413          	addi	s0,sp,48
80005200:	fca42e23          	sw	a0,-36(s0)
80005204:	fcb42c23          	sw	a1,-40(s0)
80005208:	fe042623          	sw	zero,-20(s0)
8000520c:	fd842783          	lw	a5,-40(s0)
80005210:	04078663          	beqz	a5,8000525c <realloc+0x6c>
80005214:	fdc42783          	lw	a5,-36(s0)
80005218:	00079a63          	bnez	a5,8000522c <realloc+0x3c>
8000521c:	fd842503          	lw	a0,-40(s0)
80005220:	ee9ff0ef          	jal	80005108 <malloc>
80005224:	00050793          	mv	a5,a0
80005228:	0380006f          	j	80005260 <realloc+0x70>
8000522c:	fd842503          	lw	a0,-40(s0)
80005230:	ed9ff0ef          	jal	80005108 <malloc>
80005234:	fea42623          	sw	a0,-20(s0)
80005238:	fec42783          	lw	a5,-20(s0)
8000523c:	02078063          	beqz	a5,8000525c <realloc+0x6c>
80005240:	fd842783          	lw	a5,-40(s0)
80005244:	00078613          	mv	a2,a5
80005248:	fdc42583          	lw	a1,-36(s0)
8000524c:	fec42503          	lw	a0,-20(s0)
80005250:	08c030ef          	jal	800082dc <memcpy>
80005254:	fdc42503          	lw	a0,-36(s0)
80005258:	f35ff0ef          	jal	8000518c <free>
8000525c:	fec42783          	lw	a5,-20(s0)
80005260:	00078513          	mv	a0,a5
80005264:	02c12083          	lw	ra,44(sp)
80005268:	02812403          	lw	s0,40(sp)
8000526c:	03010113          	addi	sp,sp,48
80005270:	00008067          	ret

80005274 <calloc>:
80005274:	fd010113          	addi	sp,sp,-48
80005278:	02112623          	sw	ra,44(sp)
8000527c:	02812423          	sw	s0,40(sp)
80005280:	03010413          	addi	s0,sp,48
80005284:	fca42e23          	sw	a0,-36(s0)
80005288:	fcb42c23          	sw	a1,-40(s0)
8000528c:	fdc42703          	lw	a4,-36(s0)
80005290:	fd842783          	lw	a5,-40(s0)
80005294:	02f707b3          	mul	a5,a4,a5
80005298:	fef42623          	sw	a5,-20(s0)
8000529c:	fec42503          	lw	a0,-20(s0)
800052a0:	e69ff0ef          	jal	80005108 <malloc>
800052a4:	fea42423          	sw	a0,-24(s0)
800052a8:	fe842783          	lw	a5,-24(s0)
800052ac:	00079663          	bnez	a5,800052b8 <calloc+0x44>
800052b0:	00000793          	li	a5,0
800052b4:	0180006f          	j	800052cc <calloc+0x58>
800052b8:	fec42603          	lw	a2,-20(s0)
800052bc:	00000593          	li	a1,0
800052c0:	fe842503          	lw	a0,-24(s0)
800052c4:	7b1020ef          	jal	80008274 <memset>
800052c8:	fe842783          	lw	a5,-24(s0)
800052cc:	00078513          	mv	a0,a5
800052d0:	02c12083          	lw	ra,44(sp)
800052d4:	02812403          	lw	s0,40(sp)
800052d8:	03010113          	addi	sp,sp,48
800052dc:	00008067          	ret

800052e0 <atangentf>:
800052e0:	fb010113          	addi	sp,sp,-80
800052e4:	04112623          	sw	ra,76(sp)
800052e8:	04812423          	sw	s0,72(sp)
800052ec:	04912223          	sw	s1,68(sp)
800052f0:	05010413          	addi	s0,sp,80
800052f4:	faa42e23          	sw	a0,-68(s0)
800052f8:	fab42c23          	sw	a1,-72(s0)
800052fc:	fac42a23          	sw	a2,-76(s0)
80005300:	fad42823          	sw	a3,-80(s0)
80005304:	fe042023          	sw	zero,-32(s0)
80005308:	fb042783          	lw	a5,-80(s0)
8000530c:	0c078663          	beqz	a5,800053d8 <atangentf+0xf8>
80005310:	00000593          	li	a1,0
80005314:	fb442503          	lw	a0,-76(s0)
80005318:	540040ef          	jal	80009858 <__eqsf2>
8000531c:	00050793          	mv	a5,a0
80005320:	02079c63          	bnez	a5,80005358 <atangentf+0x78>
80005324:	00000593          	li	a1,0
80005328:	fb842503          	lw	a0,-72(s0)
8000532c:	52c040ef          	jal	80009858 <__eqsf2>
80005330:	00050793          	mv	a5,a0
80005334:	00079863          	bnez	a5,80005344 <atangentf+0x64>
80005338:	800147b7          	lui	a5,0x80014
8000533c:	e907a783          	lw	a5,-368(a5) # 80013e90 <a+0x10>
80005340:	3a80006f          	j	800056e8 <atangentf+0x408>
80005344:	00100793          	li	a5,1
80005348:	fef42023          	sw	a5,-32(s0)
8000534c:	800147b7          	lui	a5,0x80014
80005350:	e947a783          	lw	a5,-364(a5) # 80013e94 <a+0x14>
80005354:	fef42423          	sw	a5,-24(s0)
80005358:	fe042783          	lw	a5,-32(s0)
8000535c:	06079e63          	bnez	a5,800053d8 <atangentf+0xf8>
80005360:	fc440793          	addi	a5,s0,-60
80005364:	00078593          	mv	a1,a5
80005368:	fb842503          	lw	a0,-72(s0)
8000536c:	760000ef          	jal	80005acc <frexpf>
80005370:	fca42e23          	sw	a0,-36(s0)
80005374:	fc040793          	addi	a5,s0,-64
80005378:	00078593          	mv	a1,a5
8000537c:	fb442503          	lw	a0,-76(s0)
80005380:	74c000ef          	jal	80005acc <frexpf>
80005384:	fca42e23          	sw	a0,-36(s0)
80005388:	fc442703          	lw	a4,-60(s0)
8000538c:	fc042783          	lw	a5,-64(s0)
80005390:	40f707b3          	sub	a5,a4,a5
80005394:	fcf42c23          	sw	a5,-40(s0)
80005398:	fd842703          	lw	a4,-40(s0)
8000539c:	08000793          	li	a5,128
800053a0:	00e7de63          	bge	a5,a4,800053bc <atangentf+0xdc>
800053a4:	00100793          	li	a5,1
800053a8:	fef42023          	sw	a5,-32(s0)
800053ac:	800147b7          	lui	a5,0x80014
800053b0:	e947a783          	lw	a5,-364(a5) # 80013e94 <a+0x14>
800053b4:	fef42423          	sw	a5,-24(s0)
800053b8:	0200006f          	j	800053d8 <atangentf+0xf8>
800053bc:	fd842703          	lw	a4,-40(s0)
800053c0:	f8300793          	li	a5,-125
800053c4:	00f75a63          	bge	a4,a5,800053d8 <atangentf+0xf8>
800053c8:	00200793          	li	a5,2
800053cc:	fef42023          	sw	a5,-32(s0)
800053d0:	00000793          	li	a5,0
800053d4:	fef42423          	sw	a5,-24(s0)
800053d8:	fe042783          	lw	a5,-32(s0)
800053dc:	28079463          	bnez	a5,80005664 <atangentf+0x384>
800053e0:	fb042783          	lw	a5,-80(s0)
800053e4:	02078263          	beqz	a5,80005408 <atangentf+0x128>
800053e8:	fb442583          	lw	a1,-76(s0)
800053ec:	fb842503          	lw	a0,-72(s0)
800053f0:	294040ef          	jal	80009684 <__divsf3>
800053f4:	00050793          	mv	a5,a0
800053f8:	00078513          	mv	a0,a5
800053fc:	444010ef          	jal	80006840 <fabsf>
80005400:	fea42623          	sw	a0,-20(s0)
80005404:	0100006f          	j	80005414 <atangentf+0x134>
80005408:	fbc42503          	lw	a0,-68(s0)
8000540c:	434010ef          	jal	80006840 <fabsf>
80005410:	fea42623          	sw	a0,-20(s0)
80005414:	800147b7          	lui	a5,0x80014
80005418:	e987a583          	lw	a1,-360(a5) # 80013e98 <a+0x18>
8000541c:	fec42503          	lw	a0,-20(s0)
80005420:	4c5040ef          	jal	8000a0e4 <__gtsf2>
80005424:	00050793          	mv	a5,a0
80005428:	02f05463          	blez	a5,80005450 <atangentf+0x170>
8000542c:	800147b7          	lui	a5,0x80014
80005430:	fec42583          	lw	a1,-20(s0)
80005434:	e987a503          	lw	a0,-360(a5) # 80013e98 <a+0x18>
80005438:	24c040ef          	jal	80009684 <__divsf3>
8000543c:	00050793          	mv	a5,a0
80005440:	fef42623          	sw	a5,-20(s0)
80005444:	00200793          	li	a5,2
80005448:	fef42223          	sw	a5,-28(s0)
8000544c:	0080006f          	j	80005454 <atangentf+0x174>
80005450:	fe042223          	sw	zero,-28(s0)
80005454:	800147b7          	lui	a5,0x80014
80005458:	e9c7a703          	lw	a4,-356(a5) # 80013e9c <a+0x1c>
8000545c:	800147b7          	lui	a5,0x80014
80005460:	00070593          	mv	a1,a4
80005464:	ea07a503          	lw	a0,-352(a5) # 80013ea0 <a+0x20>
80005468:	4b9030ef          	jal	80009120 <__subsf3>
8000546c:	00050793          	mv	a5,a0
80005470:	00078593          	mv	a1,a5
80005474:	fec42503          	lw	a0,-20(s0)
80005478:	46d040ef          	jal	8000a0e4 <__gtsf2>
8000547c:	00050793          	mv	a5,a0
80005480:	0af05863          	blez	a5,80005530 <atangentf+0x250>
80005484:	800147b7          	lui	a5,0x80014
80005488:	e9c7a703          	lw	a4,-356(a5) # 80013e9c <a+0x1c>
8000548c:	800147b7          	lui	a5,0x80014
80005490:	e987a583          	lw	a1,-360(a5) # 80013e98 <a+0x18>
80005494:	00070513          	mv	a0,a4
80005498:	489030ef          	jal	80009120 <__subsf3>
8000549c:	00050793          	mv	a5,a0
800054a0:	fcf42a23          	sw	a5,-44(s0)
800054a4:	fec42583          	lw	a1,-20(s0)
800054a8:	fd442503          	lw	a0,-44(s0)
800054ac:	07c050ef          	jal	8000a528 <__mulsf3>
800054b0:	00050793          	mv	a5,a0
800054b4:	00078713          	mv	a4,a5
800054b8:	800147b7          	lui	a5,0x80014
800054bc:	ea47a583          	lw	a1,-348(a5) # 80013ea4 <a+0x24>
800054c0:	00070513          	mv	a0,a4
800054c4:	45d030ef          	jal	80009120 <__subsf3>
800054c8:	00050793          	mv	a5,a0
800054cc:	00078713          	mv	a4,a5
800054d0:	800147b7          	lui	a5,0x80014
800054d4:	ea47a583          	lw	a1,-348(a5) # 80013ea4 <a+0x24>
800054d8:	00070513          	mv	a0,a4
800054dc:	445030ef          	jal	80009120 <__subsf3>
800054e0:	00050793          	mv	a5,a0
800054e4:	fec42583          	lw	a1,-20(s0)
800054e8:	00078513          	mv	a0,a5
800054ec:	43d030ef          	jal	80009128 <__addsf3>
800054f0:	00050793          	mv	a5,a0
800054f4:	00078493          	mv	s1,a5
800054f8:	800147b7          	lui	a5,0x80014
800054fc:	e9c7a783          	lw	a5,-356(a5) # 80013e9c <a+0x1c>
80005500:	fec42583          	lw	a1,-20(s0)
80005504:	00078513          	mv	a0,a5
80005508:	421030ef          	jal	80009128 <__addsf3>
8000550c:	00050793          	mv	a5,a0
80005510:	00078593          	mv	a1,a5
80005514:	00048513          	mv	a0,s1
80005518:	16c040ef          	jal	80009684 <__divsf3>
8000551c:	00050793          	mv	a5,a0
80005520:	fef42623          	sw	a5,-20(s0)
80005524:	fe442783          	lw	a5,-28(s0)
80005528:	00178793          	addi	a5,a5,1
8000552c:	fef42223          	sw	a5,-28(s0)
80005530:	800147b7          	lui	a5,0x80014
80005534:	ea87a583          	lw	a1,-344(a5) # 80013ea8 <a+0x28>
80005538:	fec42503          	lw	a0,-20(s0)
8000553c:	3a9040ef          	jal	8000a0e4 <__gtsf2>
80005540:	00050793          	mv	a5,a0
80005544:	02f05463          	blez	a5,8000556c <atangentf+0x28c>
80005548:	800147b7          	lui	a5,0x80014
8000554c:	eac7a583          	lw	a1,-340(a5) # 80013eac <a+0x2c>
80005550:	fec42503          	lw	a0,-20(s0)
80005554:	50d040ef          	jal	8000a260 <__ltsf2>
80005558:	00050793          	mv	a5,a0
8000555c:	0007d863          	bgez	a5,8000556c <atangentf+0x28c>
80005560:	fec42783          	lw	a5,-20(s0)
80005564:	fef42423          	sw	a5,-24(s0)
80005568:	0b40006f          	j	8000561c <atangentf+0x33c>
8000556c:	fec42583          	lw	a1,-20(s0)
80005570:	fec42503          	lw	a0,-20(s0)
80005574:	7b5040ef          	jal	8000a528 <__mulsf3>
80005578:	00050793          	mv	a5,a0
8000557c:	fcf42e23          	sw	a5,-36(s0)
80005580:	800147b7          	lui	a5,0x80014
80005584:	eb07a783          	lw	a5,-336(a5) # 80013eb0 <a+0x30>
80005588:	fdc42583          	lw	a1,-36(s0)
8000558c:	00078513          	mv	a0,a5
80005590:	799040ef          	jal	8000a528 <__mulsf3>
80005594:	00050793          	mv	a5,a0
80005598:	00078713          	mv	a4,a5
8000559c:	800147b7          	lui	a5,0x80014
800055a0:	eb47a783          	lw	a5,-332(a5) # 80013eb4 <a+0x34>
800055a4:	00078593          	mv	a1,a5
800055a8:	00070513          	mv	a0,a4
800055ac:	37d030ef          	jal	80009128 <__addsf3>
800055b0:	00050793          	mv	a5,a0
800055b4:	00078593          	mv	a1,a5
800055b8:	fdc42503          	lw	a0,-36(s0)
800055bc:	76d040ef          	jal	8000a528 <__mulsf3>
800055c0:	00050793          	mv	a5,a0
800055c4:	fcf42823          	sw	a5,-48(s0)
800055c8:	800147b7          	lui	a5,0x80014
800055cc:	eb87a783          	lw	a5,-328(a5) # 80013eb8 <a+0x38>
800055d0:	00078593          	mv	a1,a5
800055d4:	fdc42503          	lw	a0,-36(s0)
800055d8:	351030ef          	jal	80009128 <__addsf3>
800055dc:	00050793          	mv	a5,a0
800055e0:	fcf42623          	sw	a5,-52(s0)
800055e4:	fcc42583          	lw	a1,-52(s0)
800055e8:	fd042503          	lw	a0,-48(s0)
800055ec:	098040ef          	jal	80009684 <__divsf3>
800055f0:	00050793          	mv	a5,a0
800055f4:	fcf42423          	sw	a5,-56(s0)
800055f8:	fc842583          	lw	a1,-56(s0)
800055fc:	fec42503          	lw	a0,-20(s0)
80005600:	729040ef          	jal	8000a528 <__mulsf3>
80005604:	00050793          	mv	a5,a0
80005608:	00078593          	mv	a1,a5
8000560c:	fec42503          	lw	a0,-20(s0)
80005610:	319030ef          	jal	80009128 <__addsf3>
80005614:	00050793          	mv	a5,a0
80005618:	fef42423          	sw	a5,-24(s0)
8000561c:	fe442703          	lw	a4,-28(s0)
80005620:	00100793          	li	a5,1
80005624:	00e7da63          	bge	a5,a4,80005638 <atangentf+0x358>
80005628:	fe842703          	lw	a4,-24(s0)
8000562c:	800007b7          	lui	a5,0x80000
80005630:	00f747b3          	xor	a5,a4,a5
80005634:	fef42423          	sw	a5,-24(s0)
80005638:	800147b7          	lui	a5,0x80014
8000563c:	e8078713          	addi	a4,a5,-384 # 80013e80 <a>
80005640:	fe442783          	lw	a5,-28(s0)
80005644:	00279793          	slli	a5,a5,0x2
80005648:	00f707b3          	add	a5,a4,a5
8000564c:	0007a783          	lw	a5,0(a5)
80005650:	00078593          	mv	a1,a5
80005654:	fe842503          	lw	a0,-24(s0)
80005658:	2d1030ef          	jal	80009128 <__addsf3>
8000565c:	00050793          	mv	a5,a0
80005660:	fef42423          	sw	a5,-24(s0)
80005664:	fb042783          	lw	a5,-80(s0)
80005668:	04078c63          	beqz	a5,800056c0 <atangentf+0x3e0>
8000566c:	00000593          	li	a1,0
80005670:	fb442503          	lw	a0,-76(s0)
80005674:	3ed040ef          	jal	8000a260 <__ltsf2>
80005678:	00050793          	mv	a5,a0
8000567c:	0007de63          	bgez	a5,80005698 <atangentf+0x3b8>
80005680:	800147b7          	lui	a5,0x80014
80005684:	fe842583          	lw	a1,-24(s0)
80005688:	ebc7a503          	lw	a0,-324(a5) # 80013ebc <a+0x3c>
8000568c:	295030ef          	jal	80009120 <__subsf3>
80005690:	00050793          	mv	a5,a0
80005694:	fef42423          	sw	a5,-24(s0)
80005698:	00000593          	li	a1,0
8000569c:	fb842503          	lw	a0,-72(s0)
800056a0:	3c1040ef          	jal	8000a260 <__ltsf2>
800056a4:	00050793          	mv	a5,a0
800056a8:	0207de63          	bgez	a5,800056e4 <atangentf+0x404>
800056ac:	fe842703          	lw	a4,-24(s0)
800056b0:	800007b7          	lui	a5,0x80000
800056b4:	00f747b3          	xor	a5,a4,a5
800056b8:	fef42423          	sw	a5,-24(s0)
800056bc:	0280006f          	j	800056e4 <atangentf+0x404>
800056c0:	00000593          	li	a1,0
800056c4:	fbc42503          	lw	a0,-68(s0)
800056c8:	399040ef          	jal	8000a260 <__ltsf2>
800056cc:	00050793          	mv	a5,a0
800056d0:	0007da63          	bgez	a5,800056e4 <atangentf+0x404>
800056d4:	fe842703          	lw	a4,-24(s0)
800056d8:	800007b7          	lui	a5,0x80000
800056dc:	00f747b3          	xor	a5,a4,a5
800056e0:	fef42423          	sw	a5,-24(s0)
800056e4:	fe842783          	lw	a5,-24(s0)
800056e8:	00078513          	mv	a0,a5
800056ec:	04c12083          	lw	ra,76(sp)
800056f0:	04812403          	lw	s0,72(sp)
800056f4:	04412483          	lw	s1,68(sp)
800056f8:	05010113          	addi	sp,sp,80
800056fc:	00008067          	ret

80005700 <atanf>:
80005700:	fe010113          	addi	sp,sp,-32
80005704:	00112e23          	sw	ra,28(sp)
80005708:	00812c23          	sw	s0,24(sp)
8000570c:	02010413          	addi	s0,sp,32
80005710:	fea42623          	sw	a0,-20(s0)
80005714:	fec42503          	lw	a0,-20(s0)
80005718:	478000ef          	jal	80005b90 <numtestf>
8000571c:	00050793          	mv	a5,a0
80005720:	00200713          	li	a4,2
80005724:	00e78e63          	beq	a5,a4,80005740 <atanf+0x40>
80005728:	00200713          	li	a4,2
8000572c:	02f74863          	blt	a4,a5,8000575c <atanf+0x5c>
80005730:	02078263          	beqz	a5,80005754 <atanf+0x54>
80005734:	00100713          	li	a4,1
80005738:	00e78863          	beq	a5,a4,80005748 <atanf+0x48>
8000573c:	0200006f          	j	8000575c <atanf+0x5c>
80005740:	fec42783          	lw	a5,-20(s0)
80005744:	0300006f          	j	80005774 <atanf+0x74>
80005748:	800147b7          	lui	a5,0x80014
8000574c:	e947a783          	lw	a5,-364(a5) # 80013e94 <a+0x14>
80005750:	0240006f          	j	80005774 <atanf+0x74>
80005754:	00000793          	li	a5,0
80005758:	01c0006f          	j	80005774 <atanf+0x74>
8000575c:	00000693          	li	a3,0
80005760:	00000613          	li	a2,0
80005764:	00000593          	li	a1,0
80005768:	fec42503          	lw	a0,-20(s0)
8000576c:	b75ff0ef          	jal	800052e0 <atangentf>
80005770:	00050793          	mv	a5,a0
80005774:	00078513          	mv	a0,a5
80005778:	01c12083          	lw	ra,28(sp)
8000577c:	01812403          	lw	s0,24(sp)
80005780:	02010113          	addi	sp,sp,32
80005784:	00008067          	ret

80005788 <logarithm>:
80005788:	fb010113          	addi	sp,sp,-80
8000578c:	04112623          	sw	ra,76(sp)
80005790:	04812423          	sw	s0,72(sp)
80005794:	04912223          	sw	s1,68(sp)
80005798:	05010413          	addi	s0,sp,80
8000579c:	faa42e23          	sw	a0,-68(s0)
800057a0:	fab42c23          	sw	a1,-72(s0)
800057a4:	00000593          	li	a1,0
800057a8:	fbc42503          	lw	a0,-68(s0)
800057ac:	0ac040ef          	jal	80009858 <__eqsf2>
800057b0:	00050793          	mv	a5,a0
800057b4:	00079863          	bnez	a5,800057c4 <logarithm+0x3c>
800057b8:	800147b7          	lui	a5,0x80014
800057bc:	ec07a783          	lw	a5,-320(a5) # 80013ec0 <a+0x40>
800057c0:	2f40006f          	j	80005ab4 <logarithm+0x32c>
800057c4:	00000593          	li	a1,0
800057c8:	fbc42503          	lw	a0,-68(s0)
800057cc:	295040ef          	jal	8000a260 <__ltsf2>
800057d0:	00050793          	mv	a5,a0
800057d4:	0007d863          	bgez	a5,800057e4 <logarithm+0x5c>
800057d8:	800147b7          	lui	a5,0x80014
800057dc:	ec47a783          	lw	a5,-316(a5) # 80013ec4 <a+0x44>
800057e0:	2d40006f          	j	80005ab4 <logarithm+0x32c>
800057e4:	fbc42783          	lw	a5,-68(s0)
800057e8:	fef42023          	sw	a5,-32(s0)
800057ec:	fe042783          	lw	a5,-32(s0)
800057f0:	fcf42e23          	sw	a5,-36(s0)
800057f4:	fdc42783          	lw	a5,-36(s0)
800057f8:	fcf42423          	sw	a5,-56(s0)
800057fc:	fc842703          	lw	a4,-56(s0)
80005800:	800007b7          	lui	a5,0x80000
80005804:	fff78793          	addi	a5,a5,-1 # 7fffffff <_start-0x1>
80005808:	00f77733          	and	a4,a4,a5
8000580c:	801007b7          	lui	a5,0x80100
80005810:	00f707b3          	add	a5,a4,a5
80005814:	01f7d793          	srli	a5,a5,0x1f
80005818:	0ff7f793          	zext.b	a5,a5
8000581c:	04079e63          	bnez	a5,80005878 <logarithm+0xf0>
80005820:	fbc42783          	lw	a5,-68(s0)
80005824:	fcf42c23          	sw	a5,-40(s0)
80005828:	fd842783          	lw	a5,-40(s0)
8000582c:	fcf42a23          	sw	a5,-44(s0)
80005830:	fd442783          	lw	a5,-44(s0)
80005834:	fcf42623          	sw	a5,-52(s0)
80005838:	fcc42703          	lw	a4,-52(s0)
8000583c:	800007b7          	lui	a5,0x80000
80005840:	fff78793          	addi	a5,a5,-1 # 7fffffff <_start-0x1>
80005844:	00f77733          	and	a4,a4,a5
80005848:	7f8007b7          	lui	a5,0x7f800
8000584c:	00178793          	addi	a5,a5,1 # 7f800001 <_start-0x7fffff>
80005850:	00f737b3          	sltu	a5,a4,a5
80005854:	0017b793          	seqz	a5,a5
80005858:	0ff7f793          	zext.b	a5,a5
8000585c:	00078863          	beqz	a5,8000586c <logarithm+0xe4>
80005860:	800147b7          	lui	a5,0x80014
80005864:	ec47a783          	lw	a5,-316(a5) # 80013ec4 <a+0x44>
80005868:	24c0006f          	j	80005ab4 <logarithm+0x32c>
8000586c:	800147b7          	lui	a5,0x80014
80005870:	ec87a783          	lw	a5,-312(a5) # 80013ec8 <a+0x48>
80005874:	2400006f          	j	80005ab4 <logarithm+0x32c>
80005878:	fd040793          	addi	a5,s0,-48
8000587c:	00078593          	mv	a1,a5
80005880:	fbc42503          	lw	a0,-68(s0)
80005884:	248000ef          	jal	80005acc <frexpf>
80005888:	fea42423          	sw	a0,-24(s0)
8000588c:	800147b7          	lui	a5,0x80014
80005890:	ecc7a583          	lw	a1,-308(a5) # 80013ecc <a+0x4c>
80005894:	fe842503          	lw	a0,-24(s0)
80005898:	089030ef          	jal	80009120 <__subsf3>
8000589c:	00050793          	mv	a5,a0
800058a0:	fef42623          	sw	a5,-20(s0)
800058a4:	800147b7          	lui	a5,0x80014
800058a8:	ed07a583          	lw	a1,-304(a5) # 80013ed0 <a+0x50>
800058ac:	fe842503          	lw	a0,-24(s0)
800058b0:	035040ef          	jal	8000a0e4 <__gtsf2>
800058b4:	00050793          	mv	a5,a0
800058b8:	06f05063          	blez	a5,80005918 <logarithm+0x190>
800058bc:	800147b7          	lui	a5,0x80014
800058c0:	ecc7a583          	lw	a1,-308(a5) # 80013ecc <a+0x4c>
800058c4:	fec42503          	lw	a0,-20(s0)
800058c8:	059030ef          	jal	80009120 <__subsf3>
800058cc:	00050793          	mv	a5,a0
800058d0:	00078493          	mv	s1,a5
800058d4:	800147b7          	lui	a5,0x80014
800058d8:	ecc7a583          	lw	a1,-308(a5) # 80013ecc <a+0x4c>
800058dc:	fe842503          	lw	a0,-24(s0)
800058e0:	449040ef          	jal	8000a528 <__mulsf3>
800058e4:	00050793          	mv	a5,a0
800058e8:	00078713          	mv	a4,a5
800058ec:	800147b7          	lui	a5,0x80014
800058f0:	ecc7a583          	lw	a1,-308(a5) # 80013ecc <a+0x4c>
800058f4:	00070513          	mv	a0,a4
800058f8:	031030ef          	jal	80009128 <__addsf3>
800058fc:	00050793          	mv	a5,a0
80005900:	00078593          	mv	a1,a5
80005904:	00048513          	mv	a0,s1
80005908:	57d030ef          	jal	80009684 <__divsf3>
8000590c:	00050793          	mv	a5,a0
80005910:	fef42623          	sw	a5,-20(s0)
80005914:	0500006f          	j	80005964 <logarithm+0x1dc>
80005918:	fd042783          	lw	a5,-48(s0)
8000591c:	fff78793          	addi	a5,a5,-1
80005920:	fcf42823          	sw	a5,-48(s0)
80005924:	800147b7          	lui	a5,0x80014
80005928:	ecc7a583          	lw	a1,-308(a5) # 80013ecc <a+0x4c>
8000592c:	fec42503          	lw	a0,-20(s0)
80005930:	3f9040ef          	jal	8000a528 <__mulsf3>
80005934:	00050793          	mv	a5,a0
80005938:	00078713          	mv	a4,a5
8000593c:	800147b7          	lui	a5,0x80014
80005940:	ecc7a583          	lw	a1,-308(a5) # 80013ecc <a+0x4c>
80005944:	00070513          	mv	a0,a4
80005948:	7e0030ef          	jal	80009128 <__addsf3>
8000594c:	00050793          	mv	a5,a0
80005950:	00078593          	mv	a1,a5
80005954:	fec42503          	lw	a0,-20(s0)
80005958:	52d030ef          	jal	80009684 <__divsf3>
8000595c:	00050793          	mv	a5,a0
80005960:	fef42623          	sw	a5,-20(s0)
80005964:	fec42583          	lw	a1,-20(s0)
80005968:	fec42503          	lw	a0,-20(s0)
8000596c:	3bd040ef          	jal	8000a528 <__mulsf3>
80005970:	00050793          	mv	a5,a0
80005974:	fef42223          	sw	a5,-28(s0)
80005978:	fe442583          	lw	a1,-28(s0)
8000597c:	fec42503          	lw	a0,-20(s0)
80005980:	3a9040ef          	jal	8000a528 <__mulsf3>
80005984:	00050793          	mv	a5,a0
80005988:	00078713          	mv	a4,a5
8000598c:	800147b7          	lui	a5,0x80014
80005990:	ed47a783          	lw	a5,-300(a5) # 80013ed4 <a+0x54>
80005994:	00078593          	mv	a1,a5
80005998:	00070513          	mv	a0,a4
8000599c:	38d040ef          	jal	8000a528 <__mulsf3>
800059a0:	00050793          	mv	a5,a0
800059a4:	00078493          	mv	s1,a5
800059a8:	800147b7          	lui	a5,0x80014
800059ac:	ed87a583          	lw	a1,-296(a5) # 80013ed8 <a+0x58>
800059b0:	fe442503          	lw	a0,-28(s0)
800059b4:	774030ef          	jal	80009128 <__addsf3>
800059b8:	00050793          	mv	a5,a0
800059bc:	fe442583          	lw	a1,-28(s0)
800059c0:	00078513          	mv	a0,a5
800059c4:	365040ef          	jal	8000a528 <__mulsf3>
800059c8:	00050793          	mv	a5,a0
800059cc:	00078713          	mv	a4,a5
800059d0:	800147b7          	lui	a5,0x80014
800059d4:	edc7a783          	lw	a5,-292(a5) # 80013edc <a+0x5c>
800059d8:	00078593          	mv	a1,a5
800059dc:	00070513          	mv	a0,a4
800059e0:	748030ef          	jal	80009128 <__addsf3>
800059e4:	00050793          	mv	a5,a0
800059e8:	00078593          	mv	a1,a5
800059ec:	00048513          	mv	a0,s1
800059f0:	495030ef          	jal	80009684 <__divsf3>
800059f4:	00050793          	mv	a5,a0
800059f8:	00078593          	mv	a1,a5
800059fc:	fec42503          	lw	a0,-20(s0)
80005a00:	728030ef          	jal	80009128 <__addsf3>
80005a04:	00050793          	mv	a5,a0
80005a08:	fef42623          	sw	a5,-20(s0)
80005a0c:	fd042783          	lw	a5,-48(s0)
80005a10:	06078e63          	beqz	a5,80005a8c <logarithm+0x304>
80005a14:	fd042783          	lw	a5,-48(s0)
80005a18:	00078513          	mv	a0,a5
80005a1c:	3c4040ef          	jal	80009de0 <__floatsisf>
80005a20:	00050713          	mv	a4,a0
80005a24:	800147b7          	lui	a5,0x80014
80005a28:	ee07a783          	lw	a5,-288(a5) # 80013ee0 <a+0x60>
80005a2c:	00078593          	mv	a1,a5
80005a30:	00070513          	mv	a0,a4
80005a34:	2f5040ef          	jal	8000a528 <__mulsf3>
80005a38:	00050793          	mv	a5,a0
80005a3c:	fec42583          	lw	a1,-20(s0)
80005a40:	00078513          	mv	a0,a5
80005a44:	6e4030ef          	jal	80009128 <__addsf3>
80005a48:	00050793          	mv	a5,a0
80005a4c:	00078493          	mv	s1,a5
80005a50:	fd042783          	lw	a5,-48(s0)
80005a54:	00078513          	mv	a0,a5
80005a58:	388040ef          	jal	80009de0 <__floatsisf>
80005a5c:	00050713          	mv	a4,a0
80005a60:	800147b7          	lui	a5,0x80014
80005a64:	ee47a783          	lw	a5,-284(a5) # 80013ee4 <a+0x64>
80005a68:	00078593          	mv	a1,a5
80005a6c:	00070513          	mv	a0,a4
80005a70:	2b9040ef          	jal	8000a528 <__mulsf3>
80005a74:	00050793          	mv	a5,a0
80005a78:	00078593          	mv	a1,a5
80005a7c:	00048513          	mv	a0,s1
80005a80:	6a8030ef          	jal	80009128 <__addsf3>
80005a84:	00050793          	mv	a5,a0
80005a88:	fef42623          	sw	a5,-20(s0)
80005a8c:	fb842783          	lw	a5,-72(s0)
80005a90:	02078063          	beqz	a5,80005ab0 <logarithm+0x328>
80005a94:	800147b7          	lui	a5,0x80014
80005a98:	ee87a783          	lw	a5,-280(a5) # 80013ee8 <a+0x68>
80005a9c:	00078593          	mv	a1,a5
80005aa0:	fec42503          	lw	a0,-20(s0)
80005aa4:	285040ef          	jal	8000a528 <__mulsf3>
80005aa8:	00050793          	mv	a5,a0
80005aac:	fef42623          	sw	a5,-20(s0)
80005ab0:	fec42783          	lw	a5,-20(s0)
80005ab4:	00078513          	mv	a0,a5
80005ab8:	04c12083          	lw	ra,76(sp)
80005abc:	04812403          	lw	s0,72(sp)
80005ac0:	04412483          	lw	s1,68(sp)
80005ac4:	05010113          	addi	sp,sp,80
80005ac8:	00008067          	ret

80005acc <frexpf>:
80005acc:	fc010113          	addi	sp,sp,-64
80005ad0:	02112e23          	sw	ra,60(sp)
80005ad4:	02812c23          	sw	s0,56(sp)
80005ad8:	04010413          	addi	s0,sp,64
80005adc:	fca42623          	sw	a0,-52(s0)
80005ae0:	fcb42423          	sw	a1,-56(s0)
80005ae4:	fcc42503          	lw	a0,-52(s0)
80005ae8:	0a8000ef          	jal	80005b90 <numtestf>
80005aec:	00050793          	mv	a5,a0
80005af0:	00078713          	mv	a4,a5
80005af4:	00200793          	li	a5,2
80005af8:	00e7ea63          	bltu	a5,a4,80005b0c <frexpf+0x40>
80005afc:	fc842783          	lw	a5,-56(s0)
80005b00:	0007a023          	sw	zero,0(a5)
80005b04:	fcc42783          	lw	a5,-52(s0)
80005b08:	0740006f          	j	80005b7c <frexpf+0xb0>
80005b0c:	fcc42783          	lw	a5,-52(s0)
80005b10:	fcf42e23          	sw	a5,-36(s0)
80005b14:	fdc42783          	lw	a5,-36(s0)
80005b18:	fcf42c23          	sw	a5,-40(s0)
80005b1c:	fd842783          	lw	a5,-40(s0)
80005b20:	fef42623          	sw	a5,-20(s0)
80005b24:	fec42783          	lw	a5,-20(s0)
80005b28:	4177d793          	srai	a5,a5,0x17
80005b2c:	0ff7f793          	zext.b	a5,a5
80005b30:	f8278713          	addi	a4,a5,-126
80005b34:	fc842783          	lw	a5,-56(s0)
80005b38:	00e7a023          	sw	a4,0(a5)
80005b3c:	fec42703          	lw	a4,-20(s0)
80005b40:	008007b7          	lui	a5,0x800
80005b44:	fff78793          	addi	a5,a5,-1 # 7fffff <_start-0x7f800001>
80005b48:	00f777b3          	and	a5,a4,a5
80005b4c:	fef42423          	sw	a5,-24(s0)
80005b50:	fe842703          	lw	a4,-24(s0)
80005b54:	3f0007b7          	lui	a5,0x3f000
80005b58:	00f767b3          	or	a5,a4,a5
80005b5c:	fef42423          	sw	a5,-24(s0)
80005b60:	fe842783          	lw	a5,-24(s0)
80005b64:	fef42023          	sw	a5,-32(s0)
80005b68:	fe042783          	lw	a5,-32(s0)
80005b6c:	fcf42a23          	sw	a5,-44(s0)
80005b70:	fd442783          	lw	a5,-44(s0)
80005b74:	fef42223          	sw	a5,-28(s0)
80005b78:	fe442783          	lw	a5,-28(s0)
80005b7c:	00078513          	mv	a0,a5
80005b80:	03c12083          	lw	ra,60(sp)
80005b84:	03812403          	lw	s0,56(sp)
80005b88:	04010113          	addi	sp,sp,64
80005b8c:	00008067          	ret

80005b90 <numtestf>:
80005b90:	fd010113          	addi	sp,sp,-48
80005b94:	02112623          	sw	ra,44(sp)
80005b98:	02812423          	sw	s0,40(sp)
80005b9c:	03010413          	addi	s0,sp,48
80005ba0:	fca42e23          	sw	a0,-36(s0)
80005ba4:	fdc42783          	lw	a5,-36(s0)
80005ba8:	fef42223          	sw	a5,-28(s0)
80005bac:	fe442783          	lw	a5,-28(s0)
80005bb0:	fef42023          	sw	a5,-32(s0)
80005bb4:	fe042783          	lw	a5,-32(s0)
80005bb8:	fef42623          	sw	a5,-20(s0)
80005bbc:	fec42783          	lw	a5,-20(s0)
80005bc0:	4177d793          	srai	a5,a5,0x17
80005bc4:	0ff7f793          	zext.b	a5,a5
80005bc8:	fef42423          	sw	a5,-24(s0)
80005bcc:	00000593          	li	a1,0
80005bd0:	fdc42503          	lw	a0,-36(s0)
80005bd4:	485030ef          	jal	80009858 <__eqsf2>
80005bd8:	00050793          	mv	a5,a0
80005bdc:	00079663          	bnez	a5,80005be8 <numtestf+0x58>
80005be0:	00000793          	li	a5,0
80005be4:	0380006f          	j	80005c1c <numtestf+0x8c>
80005be8:	fe842703          	lw	a4,-24(s0)
80005bec:	7f800793          	li	a5,2040
80005bf0:	02f71463          	bne	a4,a5,80005c18 <numtestf+0x88>
80005bf4:	fec42703          	lw	a4,-20(s0)
80005bf8:	008007b7          	lui	a5,0x800
80005bfc:	fff78793          	addi	a5,a5,-1 # 7fffff <_start-0x7f800001>
80005c00:	00f777b3          	and	a5,a4,a5
80005c04:	00078663          	beqz	a5,80005c10 <numtestf+0x80>
80005c08:	00200793          	li	a5,2
80005c0c:	0100006f          	j	80005c1c <numtestf+0x8c>
80005c10:	00100793          	li	a5,1
80005c14:	0080006f          	j	80005c1c <numtestf+0x8c>
80005c18:	00300793          	li	a5,3
80005c1c:	00078513          	mv	a0,a5
80005c20:	02c12083          	lw	ra,44(sp)
80005c24:	02812403          	lw	s0,40(sp)
80005c28:	03010113          	addi	sp,sp,48
80005c2c:	00008067          	ret

80005c30 <floorf>:
80005c30:	fd010113          	addi	sp,sp,-48
80005c34:	02112623          	sw	ra,44(sp)
80005c38:	02812423          	sw	s0,40(sp)
80005c3c:	03010413          	addi	s0,sp,48
80005c40:	fca42e23          	sw	a0,-36(s0)
80005c44:	800147b7          	lui	a5,0x80014
80005c48:	eec7a583          	lw	a1,-276(a5) # 80013eec <a+0x6c>
80005c4c:	fdc42503          	lw	a0,-36(s0)
80005c50:	494040ef          	jal	8000a0e4 <__gtsf2>
80005c54:	00050793          	mv	a5,a0
80005c58:	04f05263          	blez	a5,80005c9c <floorf+0x6c>
80005c5c:	800147b7          	lui	a5,0x80014
80005c60:	ed87a583          	lw	a1,-296(a5) # 80013ed8 <a+0x58>
80005c64:	fdc42503          	lw	a0,-36(s0)
80005c68:	5f8040ef          	jal	8000a260 <__ltsf2>
80005c6c:	00050793          	mv	a5,a0
80005c70:	0207d663          	bgez	a5,80005c9c <floorf+0x6c>
80005c74:	00000593          	li	a1,0
80005c78:	fdc42503          	lw	a0,-36(s0)
80005c7c:	3a8040ef          	jal	8000a024 <__gesf2>
80005c80:	00050793          	mv	a5,a0
80005c84:	0007c663          	bltz	a5,80005c90 <floorf+0x60>
80005c88:	00000793          	li	a5,0
80005c8c:	0740006f          	j	80005d00 <floorf+0xd0>
80005c90:	800147b7          	lui	a5,0x80014
80005c94:	eec7a783          	lw	a5,-276(a5) # 80013eec <a+0x6c>
80005c98:	0680006f          	j	80005d00 <floorf+0xd0>
80005c9c:	fe840793          	addi	a5,s0,-24
80005ca0:	00078593          	mv	a1,a5
80005ca4:	fdc42503          	lw	a0,-36(s0)
80005ca8:	06c000ef          	jal	80005d14 <modff>
80005cac:	fea42623          	sw	a0,-20(s0)
80005cb0:	00000593          	li	a1,0
80005cb4:	fec42503          	lw	a0,-20(s0)
80005cb8:	3a1030ef          	jal	80009858 <__eqsf2>
80005cbc:	00050793          	mv	a5,a0
80005cc0:	00079663          	bnez	a5,80005ccc <floorf+0x9c>
80005cc4:	fdc42783          	lw	a5,-36(s0)
80005cc8:	0380006f          	j	80005d00 <floorf+0xd0>
80005ccc:	00000593          	li	a1,0
80005cd0:	fdc42503          	lw	a0,-36(s0)
80005cd4:	350040ef          	jal	8000a024 <__gesf2>
80005cd8:	00050793          	mv	a5,a0
80005cdc:	0007c663          	bltz	a5,80005ce8 <floorf+0xb8>
80005ce0:	fe842783          	lw	a5,-24(s0)
80005ce4:	01c0006f          	j	80005d00 <floorf+0xd0>
80005ce8:	fe842703          	lw	a4,-24(s0)
80005cec:	800147b7          	lui	a5,0x80014
80005cf0:	ed87a583          	lw	a1,-296(a5) # 80013ed8 <a+0x58>
80005cf4:	00070513          	mv	a0,a4
80005cf8:	428030ef          	jal	80009120 <__subsf3>
80005cfc:	00050793          	mv	a5,a0
80005d00:	00078513          	mv	a0,a5
80005d04:	02c12083          	lw	ra,44(sp)
80005d08:	02812403          	lw	s0,40(sp)
80005d0c:	03010113          	addi	sp,sp,48
80005d10:	00008067          	ret

80005d14 <modff>:
80005d14:	f9010113          	addi	sp,sp,-112
80005d18:	06112623          	sw	ra,108(sp)
80005d1c:	06812423          	sw	s0,104(sp)
80005d20:	07010413          	addi	s0,sp,112
80005d24:	f8a42e23          	sw	a0,-100(s0)
80005d28:	f8b42c23          	sw	a1,-104(s0)
80005d2c:	f9c42783          	lw	a5,-100(s0)
80005d30:	fcf42c23          	sw	a5,-40(s0)
80005d34:	fd842783          	lw	a5,-40(s0)
80005d38:	faf42a23          	sw	a5,-76(s0)
80005d3c:	fb442783          	lw	a5,-76(s0)
80005d40:	fef42623          	sw	a5,-20(s0)
80005d44:	fec42783          	lw	a5,-20(s0)
80005d48:	4177d793          	srai	a5,a5,0x17
80005d4c:	0ff7f793          	zext.b	a5,a5
80005d50:	f8178793          	addi	a5,a5,-127
80005d54:	fef42423          	sw	a5,-24(s0)
80005d58:	fe842703          	lw	a4,-24(s0)
80005d5c:	01600793          	li	a5,22
80005d60:	0ee7c663          	blt	a5,a4,80005e4c <modff+0x138>
80005d64:	fe842783          	lw	a5,-24(s0)
80005d68:	0207d863          	bgez	a5,80005d98 <modff+0x84>
80005d6c:	fec42703          	lw	a4,-20(s0)
80005d70:	800007b7          	lui	a5,0x80000
80005d74:	00f777b3          	and	a5,a4,a5
80005d78:	fcf42a23          	sw	a5,-44(s0)
80005d7c:	fd442783          	lw	a5,-44(s0)
80005d80:	faf42c23          	sw	a5,-72(s0)
80005d84:	fb842703          	lw	a4,-72(s0)
80005d88:	f9842783          	lw	a5,-104(s0)
80005d8c:	00e7a023          	sw	a4,0(a5) # 80000000 <_start>
80005d90:	f9c42783          	lw	a5,-100(s0)
80005d94:	1180006f          	j	80005eac <modff+0x198>
80005d98:	fe842783          	lw	a5,-24(s0)
80005d9c:	00800737          	lui	a4,0x800
80005da0:	fff70713          	addi	a4,a4,-1 # 7fffff <_start-0x7f800001>
80005da4:	40f757b3          	sra	a5,a4,a5
80005da8:	fef42023          	sw	a5,-32(s0)
80005dac:	fec42703          	lw	a4,-20(s0)
80005db0:	fe042783          	lw	a5,-32(s0)
80005db4:	00f777b3          	and	a5,a4,a5
80005db8:	04079863          	bnez	a5,80005e08 <modff+0xf4>
80005dbc:	f9842783          	lw	a5,-104(s0)
80005dc0:	f9c42703          	lw	a4,-100(s0)
80005dc4:	00e7a023          	sw	a4,0(a5)
80005dc8:	f9c42783          	lw	a5,-100(s0)
80005dcc:	fcf42623          	sw	a5,-52(s0)
80005dd0:	fcc42783          	lw	a5,-52(s0)
80005dd4:	faf42823          	sw	a5,-80(s0)
80005dd8:	fb042783          	lw	a5,-80(s0)
80005ddc:	fcf42e23          	sw	a5,-36(s0)
80005de0:	fdc42703          	lw	a4,-36(s0)
80005de4:	800007b7          	lui	a5,0x80000
80005de8:	00f777b3          	and	a5,a4,a5
80005dec:	fcf42823          	sw	a5,-48(s0)
80005df0:	fd042783          	lw	a5,-48(s0)
80005df4:	faf42623          	sw	a5,-84(s0)
80005df8:	fac42783          	lw	a5,-84(s0)
80005dfc:	f8f42e23          	sw	a5,-100(s0)
80005e00:	f9c42783          	lw	a5,-100(s0)
80005e04:	0a80006f          	j	80005eac <modff+0x198>
80005e08:	fe042783          	lw	a5,-32(s0)
80005e0c:	fff7c713          	not	a4,a5
80005e10:	fec42783          	lw	a5,-20(s0)
80005e14:	00f777b3          	and	a5,a4,a5
80005e18:	fcf42423          	sw	a5,-56(s0)
80005e1c:	fc842783          	lw	a5,-56(s0)
80005e20:	faf42e23          	sw	a5,-68(s0)
80005e24:	fbc42703          	lw	a4,-68(s0)
80005e28:	f9842783          	lw	a5,-104(s0)
80005e2c:	00e7a023          	sw	a4,0(a5) # 80000000 <_start>
80005e30:	f9842783          	lw	a5,-104(s0)
80005e34:	0007a783          	lw	a5,0(a5)
80005e38:	00078593          	mv	a1,a5
80005e3c:	f9c42503          	lw	a0,-100(s0)
80005e40:	2e0030ef          	jal	80009120 <__subsf3>
80005e44:	00050793          	mv	a5,a0
80005e48:	0640006f          	j	80005eac <modff+0x198>
80005e4c:	800147b7          	lui	a5,0x80014
80005e50:	ed87a783          	lw	a5,-296(a5) # 80013ed8 <a+0x58>
80005e54:	f9c42583          	lw	a1,-100(s0)
80005e58:	00078513          	mv	a0,a5
80005e5c:	6cc040ef          	jal	8000a528 <__mulsf3>
80005e60:	00050793          	mv	a5,a0
80005e64:	00078713          	mv	a4,a5
80005e68:	f9842783          	lw	a5,-104(s0)
80005e6c:	00e7a023          	sw	a4,0(a5)
80005e70:	f9c42783          	lw	a5,-100(s0)
80005e74:	fcf42023          	sw	a5,-64(s0)
80005e78:	fc042783          	lw	a5,-64(s0)
80005e7c:	faf42423          	sw	a5,-88(s0)
80005e80:	fa842783          	lw	a5,-88(s0)
80005e84:	fef42223          	sw	a5,-28(s0)
80005e88:	fe442703          	lw	a4,-28(s0)
80005e8c:	800007b7          	lui	a5,0x80000
80005e90:	00f777b3          	and	a5,a4,a5
80005e94:	fcf42223          	sw	a5,-60(s0)
80005e98:	fc442783          	lw	a5,-60(s0)
80005e9c:	faf42223          	sw	a5,-92(s0)
80005ea0:	fa442783          	lw	a5,-92(s0)
80005ea4:	f8f42e23          	sw	a5,-100(s0)
80005ea8:	f9c42783          	lw	a5,-100(s0)
80005eac:	00078513          	mv	a0,a5
80005eb0:	06c12083          	lw	ra,108(sp)
80005eb4:	06812403          	lw	s0,104(sp)
80005eb8:	07010113          	addi	sp,sp,112
80005ebc:	00008067          	ret

80005ec0 <powf>:
80005ec0:	fa010113          	addi	sp,sp,-96
80005ec4:	04112e23          	sw	ra,92(sp)
80005ec8:	04812c23          	sw	s0,88(sp)
80005ecc:	06010413          	addi	s0,sp,96
80005ed0:	faa42623          	sw	a0,-84(s0)
80005ed4:	fab42423          	sw	a1,-88(s0)
80005ed8:	800147b7          	lui	a5,0x80014
80005edc:	ed87a783          	lw	a5,-296(a5) # 80013ed8 <a+0x58>
80005ee0:	fef42623          	sw	a5,-20(s0)
80005ee4:	fe042223          	sw	zero,-28(s0)
80005ee8:	fac42783          	lw	a5,-84(s0)
80005eec:	fcf42a23          	sw	a5,-44(s0)
80005ef0:	fd442783          	lw	a5,-44(s0)
80005ef4:	faf42c23          	sw	a5,-72(s0)
80005ef8:	fb842783          	lw	a5,-72(s0)
80005efc:	fef42023          	sw	a5,-32(s0)
80005f00:	fc840793          	addi	a5,s0,-56
80005f04:	00078593          	mv	a1,a5
80005f08:	fa842503          	lw	a0,-88(s0)
80005f0c:	e09ff0ef          	jal	80005d14 <modff>
80005f10:	fca42e23          	sw	a0,-36(s0)
80005f14:	00000593          	li	a1,0
80005f18:	fdc42503          	lw	a0,-36(s0)
80005f1c:	13d030ef          	jal	80009858 <__eqsf2>
80005f20:	00050793          	mv	a5,a0
80005f24:	04079663          	bnez	a5,80005f70 <powf+0xb0>
80005f28:	fff00593          	li	a1,-1
80005f2c:	fa842503          	lw	a0,-88(s0)
80005f30:	2ac000ef          	jal	800061dc <ldexpf>
80005f34:	00050713          	mv	a4,a0
80005f38:	fc440793          	addi	a5,s0,-60
80005f3c:	00078593          	mv	a1,a5
80005f40:	00070513          	mv	a0,a4
80005f44:	dd1ff0ef          	jal	80005d14 <modff>
80005f48:	00050793          	mv	a5,a0
80005f4c:	00000593          	li	a1,0
80005f50:	00078513          	mv	a0,a5
80005f54:	105030ef          	jal	80009858 <__eqsf2>
80005f58:	00050793          	mv	a5,a0
80005f5c:	00078663          	beqz	a5,80005f68 <powf+0xa8>
80005f60:	fe042223          	sw	zero,-28(s0)
80005f64:	00c0006f          	j	80005f70 <powf+0xb0>
80005f68:	00100793          	li	a5,1
80005f6c:	fef42223          	sw	a5,-28(s0)
80005f70:	00000593          	li	a1,0
80005f74:	fac42503          	lw	a0,-84(s0)
80005f78:	0e1030ef          	jal	80009858 <__eqsf2>
80005f7c:	00050793          	mv	a5,a0
80005f80:	24078263          	beqz	a5,800061c4 <powf+0x304>
80005f84:	fac42503          	lw	a0,-84(s0)
80005f88:	0b9000ef          	jal	80006840 <fabsf>
80005f8c:	00050793          	mv	a5,a0
80005f90:	00000593          	li	a1,0
80005f94:	00078513          	mv	a0,a5
80005f98:	ff0ff0ef          	jal	80005788 <logarithm>
80005f9c:	00050793          	mv	a5,a0
80005fa0:	fa842583          	lw	a1,-88(s0)
80005fa4:	00078513          	mv	a0,a5
80005fa8:	580040ef          	jal	8000a528 <__mulsf3>
80005fac:	00050793          	mv	a5,a0
80005fb0:	fcf42223          	sw	a5,-60(s0)
80005fb4:	fc442703          	lw	a4,-60(s0)
80005fb8:	800147b7          	lui	a5,0x80014
80005fbc:	ef07a583          	lw	a1,-272(a5) # 80013ef0 <a+0x70>
80005fc0:	00070513          	mv	a0,a4
80005fc4:	060040ef          	jal	8000a024 <__gesf2>
80005fc8:	00050793          	mv	a5,a0
80005fcc:	0607c263          	bltz	a5,80006030 <powf+0x170>
80005fd0:	fe042783          	lw	a5,-32(s0)
80005fd4:	0407d663          	bgez	a5,80006020 <powf+0x160>
80005fd8:	00000593          	li	a1,0
80005fdc:	fdc42503          	lw	a0,-36(s0)
80005fe0:	079030ef          	jal	80009858 <__eqsf2>
80005fe4:	00050793          	mv	a5,a0
80005fe8:	00078863          	beqz	a5,80005ff8 <powf+0x138>
80005fec:	00000793          	li	a5,0
80005ff0:	faf42623          	sw	a5,-84(s0)
80005ff4:	1d00006f          	j	800061c4 <powf+0x304>
80005ff8:	fe442783          	lw	a5,-28(s0)
80005ffc:	00078a63          	beqz	a5,80006010 <powf+0x150>
80006000:	800147b7          	lui	a5,0x80014
80006004:	ec87a783          	lw	a5,-312(a5) # 80013ec8 <a+0x48>
80006008:	faf42623          	sw	a5,-84(s0)
8000600c:	1b80006f          	j	800061c4 <powf+0x304>
80006010:	800147b7          	lui	a5,0x80014
80006014:	ec07a783          	lw	a5,-320(a5) # 80013ec0 <a+0x40>
80006018:	faf42623          	sw	a5,-84(s0)
8000601c:	1a80006f          	j	800061c4 <powf+0x304>
80006020:	800147b7          	lui	a5,0x80014
80006024:	ec87a783          	lw	a5,-312(a5) # 80013ec8 <a+0x48>
80006028:	faf42623          	sw	a5,-84(s0)
8000602c:	1980006f          	j	800061c4 <powf+0x304>
80006030:	fc442703          	lw	a4,-60(s0)
80006034:	800147b7          	lui	a5,0x80014
80006038:	ef47a583          	lw	a1,-268(a5) # 80013ef4 <a+0x74>
8000603c:	00070513          	mv	a0,a4
80006040:	220040ef          	jal	8000a260 <__ltsf2>
80006044:	00050793          	mv	a5,a0
80006048:	0007d863          	bgez	a5,80006058 <powf+0x198>
8000604c:	00000793          	li	a5,0
80006050:	faf42623          	sw	a5,-84(s0)
80006054:	1700006f          	j	800061c4 <powf+0x304>
80006058:	00000593          	li	a1,0
8000605c:	fdc42503          	lw	a0,-36(s0)
80006060:	7f8030ef          	jal	80009858 <__eqsf2>
80006064:	00050793          	mv	a5,a0
80006068:	0c079c63          	bnez	a5,80006140 <powf+0x280>
8000606c:	fc842783          	lw	a5,-56(s0)
80006070:	00078513          	mv	a0,a5
80006074:	7cc000ef          	jal	80006840 <fabsf>
80006078:	00050713          	mv	a4,a0
8000607c:	800147b7          	lui	a5,0x80014
80006080:	ef87a583          	lw	a1,-264(a5) # 80013ef8 <a+0x78>
80006084:	00070513          	mv	a0,a4
80006088:	114040ef          	jal	8000a19c <__lesf2>
8000608c:	00050793          	mv	a5,a0
80006090:	0af04863          	bgtz	a5,80006140 <powf+0x280>
80006094:	fc842783          	lw	a5,-56(s0)
80006098:	00078513          	mv	a0,a5
8000609c:	20d030ef          	jal	80009aa8 <__fixsfsi>
800060a0:	00050793          	mv	a5,a0
800060a4:	fef42423          	sw	a5,-24(s0)
800060a8:	fe842783          	lw	a5,-24(s0)
800060ac:	01f7d793          	srli	a5,a5,0x1f
800060b0:	0ff7f793          	zext.b	a5,a5
800060b4:	fcf42c23          	sw	a5,-40(s0)
800060b8:	fd842783          	lw	a5,-40(s0)
800060bc:	04078a63          	beqz	a5,80006110 <powf+0x250>
800060c0:	fe842783          	lw	a5,-24(s0)
800060c4:	40f007b3          	neg	a5,a5
800060c8:	fef42423          	sw	a5,-24(s0)
800060cc:	0440006f          	j	80006110 <powf+0x250>
800060d0:	fe842783          	lw	a5,-24(s0)
800060d4:	0017f793          	andi	a5,a5,1
800060d8:	00078c63          	beqz	a5,800060f0 <powf+0x230>
800060dc:	fac42583          	lw	a1,-84(s0)
800060e0:	fec42503          	lw	a0,-20(s0)
800060e4:	444040ef          	jal	8000a528 <__mulsf3>
800060e8:	00050793          	mv	a5,a0
800060ec:	fef42623          	sw	a5,-20(s0)
800060f0:	fac42583          	lw	a1,-84(s0)
800060f4:	fac42503          	lw	a0,-84(s0)
800060f8:	430040ef          	jal	8000a528 <__mulsf3>
800060fc:	00050793          	mv	a5,a0
80006100:	faf42623          	sw	a5,-84(s0)
80006104:	fe842783          	lw	a5,-24(s0)
80006108:	0017d793          	srli	a5,a5,0x1
8000610c:	fef42423          	sw	a5,-24(s0)
80006110:	fe842783          	lw	a5,-24(s0)
80006114:	faf04ee3          	bgtz	a5,800060d0 <powf+0x210>
80006118:	fd842783          	lw	a5,-40(s0)
8000611c:	00078e63          	beqz	a5,80006138 <powf+0x278>
80006120:	800147b7          	lui	a5,0x80014
80006124:	fec42583          	lw	a1,-20(s0)
80006128:	ed87a503          	lw	a0,-296(a5) # 80013ed8 <a+0x58>
8000612c:	558030ef          	jal	80009684 <__divsf3>
80006130:	00050793          	mv	a5,a0
80006134:	fef42623          	sw	a5,-20(s0)
80006138:	fec42783          	lw	a5,-20(s0)
8000613c:	08c0006f          	j	800061c8 <powf+0x308>
80006140:	fe042783          	lw	a5,-32(s0)
80006144:	0207d063          	bgez	a5,80006164 <powf+0x2a4>
80006148:	00000593          	li	a1,0
8000614c:	fdc42503          	lw	a0,-36(s0)
80006150:	708030ef          	jal	80009858 <__eqsf2>
80006154:	00050793          	mv	a5,a0
80006158:	00078663          	beqz	a5,80006164 <powf+0x2a4>
8000615c:	00000793          	li	a5,0
80006160:	0680006f          	j	800061c8 <powf+0x308>
80006164:	fc442783          	lw	a5,-60(s0)
80006168:	00078513          	mv	a0,a5
8000616c:	19c000ef          	jal	80006308 <expf>
80006170:	faa42623          	sw	a0,-84(s0)
80006174:	fe442783          	lw	a5,-28(s0)
80006178:	04079663          	bnez	a5,800061c4 <powf+0x304>
8000617c:	fe042783          	lw	a5,-32(s0)
80006180:	0407d263          	bgez	a5,800061c4 <powf+0x304>
80006184:	fac42783          	lw	a5,-84(s0)
80006188:	fcf42623          	sw	a5,-52(s0)
8000618c:	fcc42783          	lw	a5,-52(s0)
80006190:	fcf42023          	sw	a5,-64(s0)
80006194:	fc042783          	lw	a5,-64(s0)
80006198:	fef42023          	sw	a5,-32(s0)
8000619c:	fe042703          	lw	a4,-32(s0)
800061a0:	800007b7          	lui	a5,0x80000
800061a4:	00f767b3          	or	a5,a4,a5
800061a8:	fef42023          	sw	a5,-32(s0)
800061ac:	fe042783          	lw	a5,-32(s0)
800061b0:	fcf42823          	sw	a5,-48(s0)
800061b4:	fd042783          	lw	a5,-48(s0)
800061b8:	faf42e23          	sw	a5,-68(s0)
800061bc:	fbc42783          	lw	a5,-68(s0)
800061c0:	faf42623          	sw	a5,-84(s0)
800061c4:	fac42783          	lw	a5,-84(s0)
800061c8:	00078513          	mv	a0,a5
800061cc:	05c12083          	lw	ra,92(sp)
800061d0:	05812403          	lw	s0,88(sp)
800061d4:	06010113          	addi	sp,sp,96
800061d8:	00008067          	ret

800061dc <ldexpf>:
800061dc:	fc010113          	addi	sp,sp,-64
800061e0:	02112e23          	sw	ra,60(sp)
800061e4:	02812c23          	sw	s0,56(sp)
800061e8:	04010413          	addi	s0,sp,64
800061ec:	fca42623          	sw	a0,-52(s0)
800061f0:	fcb42423          	sw	a1,-56(s0)
800061f4:	fcc42783          	lw	a5,-52(s0)
800061f8:	fef42223          	sw	a5,-28(s0)
800061fc:	fe442783          	lw	a5,-28(s0)
80006200:	fcf42c23          	sw	a5,-40(s0)
80006204:	fd842783          	lw	a5,-40(s0)
80006208:	fef42623          	sw	a5,-20(s0)
8000620c:	fec42503          	lw	a0,-20(s0)
80006210:	3d1030ef          	jal	80009de0 <__floatsisf>
80006214:	00050793          	mv	a5,a0
80006218:	00078513          	mv	a0,a5
8000621c:	975ff0ef          	jal	80005b90 <numtestf>
80006220:	00050793          	mv	a5,a0
80006224:	00200713          	li	a4,2
80006228:	0ae78a63          	beq	a5,a4,800062dc <ldexpf+0x100>
8000622c:	00200713          	li	a4,2
80006230:	00f74863          	blt	a4,a5,80006240 <ldexpf+0x64>
80006234:	0a078863          	beqz	a5,800062e4 <ldexpf+0x108>
80006238:	00100713          	li	a4,1
8000623c:	0ae78863          	beq	a5,a4,800062ec <ldexpf+0x110>
80006240:	fec42783          	lw	a5,-20(s0)
80006244:	4177d793          	srai	a5,a5,0x17
80006248:	0ff7f793          	zext.b	a5,a5
8000624c:	fef42423          	sw	a5,-24(s0)
80006250:	fe842703          	lw	a4,-24(s0)
80006254:	fc842783          	lw	a5,-56(s0)
80006258:	00f707b3          	add	a5,a4,a5
8000625c:	fef42423          	sw	a5,-24(s0)
80006260:	fe842703          	lw	a4,-24(s0)
80006264:	0ff00793          	li	a5,255
80006268:	00e7da63          	bge	a5,a4,8000627c <ldexpf+0xa0>
8000626c:	800147b7          	lui	a5,0x80014
80006270:	ec87a783          	lw	a5,-312(a5) # 80013ec8 <a+0x48>
80006274:	fcf42623          	sw	a5,-52(s0)
80006278:	0780006f          	j	800062f0 <ldexpf+0x114>
8000627c:	fe842703          	lw	a4,-24(s0)
80006280:	00100793          	li	a5,1
80006284:	00e7ca63          	blt	a5,a4,80006298 <ldexpf+0xbc>
80006288:	800147b7          	lui	a5,0x80014
8000628c:	ec07a783          	lw	a5,-320(a5) # 80013ec0 <a+0x40>
80006290:	fcf42623          	sw	a5,-52(s0)
80006294:	05c0006f          	j	800062f0 <ldexpf+0x114>
80006298:	fec42703          	lw	a4,-20(s0)
8000629c:	808007b7          	lui	a5,0x80800
800062a0:	fff78793          	addi	a5,a5,-1 # 807fffff <nnames+0x7e2b03>
800062a4:	00f777b3          	and	a5,a4,a5
800062a8:	fef42623          	sw	a5,-20(s0)
800062ac:	fe842783          	lw	a5,-24(s0)
800062b0:	01779793          	slli	a5,a5,0x17
800062b4:	fec42703          	lw	a4,-20(s0)
800062b8:	00f767b3          	or	a5,a4,a5
800062bc:	fef42623          	sw	a5,-20(s0)
800062c0:	fec42783          	lw	a5,-20(s0)
800062c4:	fef42023          	sw	a5,-32(s0)
800062c8:	fe042783          	lw	a5,-32(s0)
800062cc:	fcf42e23          	sw	a5,-36(s0)
800062d0:	fdc42783          	lw	a5,-36(s0)
800062d4:	fcf42623          	sw	a5,-52(s0)
800062d8:	0180006f          	j	800062f0 <ldexpf+0x114>
800062dc:	00000013          	nop
800062e0:	0100006f          	j	800062f0 <ldexpf+0x114>
800062e4:	00000013          	nop
800062e8:	0080006f          	j	800062f0 <ldexpf+0x114>
800062ec:	00000013          	nop
800062f0:	fcc42783          	lw	a5,-52(s0)
800062f4:	00078513          	mv	a0,a5
800062f8:	03c12083          	lw	ra,60(sp)
800062fc:	03812403          	lw	s0,56(sp)
80006300:	04010113          	addi	sp,sp,64
80006304:	00008067          	ret

80006308 <expf>:
80006308:	fb010113          	addi	sp,sp,-80
8000630c:	04112623          	sw	ra,76(sp)
80006310:	04812423          	sw	s0,72(sp)
80006314:	05010413          	addi	s0,sp,80
80006318:	faa42e23          	sw	a0,-68(s0)
8000631c:	fbc42503          	lw	a0,-68(s0)
80006320:	871ff0ef          	jal	80005b90 <numtestf>
80006324:	00050793          	mv	a5,a0
80006328:	00200713          	li	a4,2
8000632c:	00e78e63          	beq	a5,a4,80006348 <expf+0x40>
80006330:	00200713          	li	a4,2
80006334:	06f74463          	blt	a4,a5,8000639c <expf+0x94>
80006338:	04078c63          	beqz	a5,80006390 <expf+0x88>
8000633c:	00100713          	li	a4,1
80006340:	00e78863          	beq	a5,a4,80006350 <expf+0x48>
80006344:	0580006f          	j	8000639c <expf+0x94>
80006348:	fbc42783          	lw	a5,-68(s0)
8000634c:	2800006f          	j	800065cc <expf+0x2c4>
80006350:	fbc42783          	lw	a5,-68(s0)
80006354:	fcf42a23          	sw	a5,-44(s0)
80006358:	fd442783          	lw	a5,-44(s0)
8000635c:	fcf42823          	sw	a5,-48(s0)
80006360:	fd042783          	lw	a5,-48(s0)
80006364:	fcf42623          	sw	a5,-52(s0)
80006368:	fcc42783          	lw	a5,-52(s0)
8000636c:	fff7c793          	not	a5,a5
80006370:	01f7d793          	srli	a5,a5,0x1f
80006374:	0ff7f793          	zext.b	a5,a5
80006378:	00078863          	beqz	a5,80006388 <expf+0x80>
8000637c:	800147b7          	lui	a5,0x80014
80006380:	ec87a783          	lw	a5,-312(a5) # 80013ec8 <a+0x48>
80006384:	2480006f          	j	800065cc <expf+0x2c4>
80006388:	00000793          	li	a5,0
8000638c:	2400006f          	j	800065cc <expf+0x2c4>
80006390:	800147b7          	lui	a5,0x80014
80006394:	ed87a783          	lw	a5,-296(a5) # 80013ed8 <a+0x58>
80006398:	2340006f          	j	800065cc <expf+0x2c4>
8000639c:	800147b7          	lui	a5,0x80014
800063a0:	ef07a583          	lw	a1,-272(a5) # 80013ef0 <a+0x70>
800063a4:	fbc42503          	lw	a0,-68(s0)
800063a8:	53d030ef          	jal	8000a0e4 <__gtsf2>
800063ac:	00050793          	mv	a5,a0
800063b0:	00f04e63          	bgtz	a5,800063cc <expf+0xc4>
800063b4:	800147b7          	lui	a5,0x80014
800063b8:	ef47a583          	lw	a1,-268(a5) # 80013ef4 <a+0x74>
800063bc:	fbc42503          	lw	a0,-68(s0)
800063c0:	6a1030ef          	jal	8000a260 <__ltsf2>
800063c4:	00050793          	mv	a5,a0
800063c8:	0007d663          	bgez	a5,800063d4 <expf+0xcc>
800063cc:	fbc42783          	lw	a5,-68(s0)
800063d0:	1fc0006f          	j	800065cc <expf+0x2c4>
800063d4:	800147b7          	lui	a5,0x80014
800063d8:	efc7a583          	lw	a1,-260(a5) # 80013efc <a+0x7c>
800063dc:	fbc42503          	lw	a0,-68(s0)
800063e0:	505030ef          	jal	8000a0e4 <__gtsf2>
800063e4:	00050793          	mv	a5,a0
800063e8:	02f05463          	blez	a5,80006410 <expf+0x108>
800063ec:	800147b7          	lui	a5,0x80014
800063f0:	f007a583          	lw	a1,-256(a5) # 80013f00 <a+0x80>
800063f4:	fbc42503          	lw	a0,-68(s0)
800063f8:	669030ef          	jal	8000a260 <__ltsf2>
800063fc:	00050793          	mv	a5,a0
80006400:	0007d863          	bgez	a5,80006410 <expf+0x108>
80006404:	800147b7          	lui	a5,0x80014
80006408:	ed87a783          	lw	a5,-296(a5) # 80013ed8 <a+0x58>
8000640c:	1c00006f          	j	800065cc <expf+0x2c4>
80006410:	00000593          	li	a1,0
80006414:	fbc42503          	lw	a0,-68(s0)
80006418:	649030ef          	jal	8000a260 <__ltsf2>
8000641c:	00050793          	mv	a5,a0
80006420:	0407d463          	bgez	a5,80006468 <expf+0x160>
80006424:	800147b7          	lui	a5,0x80014
80006428:	f047a783          	lw	a5,-252(a5) # 80013f04 <a+0x84>
8000642c:	fbc42583          	lw	a1,-68(s0)
80006430:	00078513          	mv	a0,a5
80006434:	0f4040ef          	jal	8000a528 <__mulsf3>
80006438:	00050793          	mv	a5,a0
8000643c:	00078713          	mv	a4,a5
80006440:	800147b7          	lui	a5,0x80014
80006444:	ecc7a583          	lw	a1,-308(a5) # 80013ecc <a+0x4c>
80006448:	00070513          	mv	a0,a4
8000644c:	4d5020ef          	jal	80009120 <__subsf3>
80006450:	00050793          	mv	a5,a0
80006454:	00078513          	mv	a0,a5
80006458:	650030ef          	jal	80009aa8 <__fixsfsi>
8000645c:	00050793          	mv	a5,a0
80006460:	fef42623          	sw	a5,-20(s0)
80006464:	0440006f          	j	800064a8 <expf+0x1a0>
80006468:	800147b7          	lui	a5,0x80014
8000646c:	f047a783          	lw	a5,-252(a5) # 80013f04 <a+0x84>
80006470:	fbc42583          	lw	a1,-68(s0)
80006474:	00078513          	mv	a0,a5
80006478:	0b0040ef          	jal	8000a528 <__mulsf3>
8000647c:	00050793          	mv	a5,a0
80006480:	00078713          	mv	a4,a5
80006484:	800147b7          	lui	a5,0x80014
80006488:	ecc7a583          	lw	a1,-308(a5) # 80013ecc <a+0x4c>
8000648c:	00070513          	mv	a0,a4
80006490:	499020ef          	jal	80009128 <__addsf3>
80006494:	00050793          	mv	a5,a0
80006498:	00078513          	mv	a0,a5
8000649c:	60c030ef          	jal	80009aa8 <__fixsfsi>
800064a0:	00050793          	mv	a5,a0
800064a4:	fef42623          	sw	a5,-20(s0)
800064a8:	fec42503          	lw	a0,-20(s0)
800064ac:	135030ef          	jal	80009de0 <__floatsisf>
800064b0:	00050713          	mv	a4,a0
800064b4:	800147b7          	lui	a5,0x80014
800064b8:	f087a783          	lw	a5,-248(a5) # 80013f08 <a+0x88>
800064bc:	00078593          	mv	a1,a5
800064c0:	00070513          	mv	a0,a4
800064c4:	064040ef          	jal	8000a528 <__mulsf3>
800064c8:	00050793          	mv	a5,a0
800064cc:	00078593          	mv	a1,a5
800064d0:	fbc42503          	lw	a0,-68(s0)
800064d4:	44d020ef          	jal	80009120 <__subsf3>
800064d8:	00050793          	mv	a5,a0
800064dc:	fef42423          	sw	a5,-24(s0)
800064e0:	fe842583          	lw	a1,-24(s0)
800064e4:	fe842503          	lw	a0,-24(s0)
800064e8:	040040ef          	jal	8000a528 <__mulsf3>
800064ec:	00050793          	mv	a5,a0
800064f0:	fef42223          	sw	a5,-28(s0)
800064f4:	800147b7          	lui	a5,0x80014
800064f8:	f0c7a783          	lw	a5,-244(a5) # 80013f0c <a+0x8c>
800064fc:	fe442583          	lw	a1,-28(s0)
80006500:	00078513          	mv	a0,a5
80006504:	024040ef          	jal	8000a528 <__mulsf3>
80006508:	00050793          	mv	a5,a0
8000650c:	00078713          	mv	a4,a5
80006510:	800147b7          	lui	a5,0x80014
80006514:	f107a783          	lw	a5,-240(a5) # 80013f10 <a+0x90>
80006518:	00078593          	mv	a1,a5
8000651c:	00070513          	mv	a0,a4
80006520:	409020ef          	jal	80009128 <__addsf3>
80006524:	00050793          	mv	a5,a0
80006528:	00078593          	mv	a1,a5
8000652c:	fe842503          	lw	a0,-24(s0)
80006530:	7f9030ef          	jal	8000a528 <__mulsf3>
80006534:	00050793          	mv	a5,a0
80006538:	fef42023          	sw	a5,-32(s0)
8000653c:	800147b7          	lui	a5,0x80014
80006540:	f147a783          	lw	a5,-236(a5) # 80013f14 <a+0x94>
80006544:	fe442583          	lw	a1,-28(s0)
80006548:	00078513          	mv	a0,a5
8000654c:	7dd030ef          	jal	8000a528 <__mulsf3>
80006550:	00050793          	mv	a5,a0
80006554:	00078713          	mv	a4,a5
80006558:	800147b7          	lui	a5,0x80014
8000655c:	ecc7a783          	lw	a5,-308(a5) # 80013ecc <a+0x4c>
80006560:	00078593          	mv	a1,a5
80006564:	00070513          	mv	a0,a4
80006568:	3c1020ef          	jal	80009128 <__addsf3>
8000656c:	00050793          	mv	a5,a0
80006570:	fcf42e23          	sw	a5,-36(s0)
80006574:	fe042583          	lw	a1,-32(s0)
80006578:	fdc42503          	lw	a0,-36(s0)
8000657c:	3a5020ef          	jal	80009120 <__subsf3>
80006580:	00050793          	mv	a5,a0
80006584:	00078593          	mv	a1,a5
80006588:	fe042503          	lw	a0,-32(s0)
8000658c:	0f8030ef          	jal	80009684 <__divsf3>
80006590:	00050793          	mv	a5,a0
80006594:	00078713          	mv	a4,a5
80006598:	800147b7          	lui	a5,0x80014
8000659c:	ecc7a583          	lw	a1,-308(a5) # 80013ecc <a+0x4c>
800065a0:	00070513          	mv	a0,a4
800065a4:	385020ef          	jal	80009128 <__addsf3>
800065a8:	00050793          	mv	a5,a0
800065ac:	fcf42c23          	sw	a5,-40(s0)
800065b0:	fec42783          	lw	a5,-20(s0)
800065b4:	00178793          	addi	a5,a5,1
800065b8:	fef42623          	sw	a5,-20(s0)
800065bc:	fec42583          	lw	a1,-20(s0)
800065c0:	fd842503          	lw	a0,-40(s0)
800065c4:	c19ff0ef          	jal	800061dc <ldexpf>
800065c8:	00050793          	mv	a5,a0
800065cc:	00078513          	mv	a0,a5
800065d0:	04c12083          	lw	ra,76(sp)
800065d4:	04812403          	lw	s0,72(sp)
800065d8:	05010113          	addi	sp,sp,80
800065dc:	00008067          	ret

800065e0 <sqrtf>:
800065e0:	fc010113          	addi	sp,sp,-64
800065e4:	02112e23          	sw	ra,60(sp)
800065e8:	02812c23          	sw	s0,56(sp)
800065ec:	02912a23          	sw	s1,52(sp)
800065f0:	04010413          	addi	s0,sp,64
800065f4:	fca42623          	sw	a0,-52(s0)
800065f8:	fcc42503          	lw	a0,-52(s0)
800065fc:	d94ff0ef          	jal	80005b90 <numtestf>
80006600:	00050793          	mv	a5,a0
80006604:	00100713          	li	a4,1
80006608:	00e78a63          	beq	a5,a4,8000661c <sqrtf+0x3c>
8000660c:	00200713          	li	a4,2
80006610:	04e79863          	bne	a5,a4,80006660 <sqrtf+0x80>
80006614:	fcc42783          	lw	a5,-52(s0)
80006618:	1980006f          	j	800067b0 <sqrtf+0x1d0>
8000661c:	fcc42783          	lw	a5,-52(s0)
80006620:	fcf42e23          	sw	a5,-36(s0)
80006624:	fdc42783          	lw	a5,-36(s0)
80006628:	fcf42c23          	sw	a5,-40(s0)
8000662c:	fd842783          	lw	a5,-40(s0)
80006630:	fcf42823          	sw	a5,-48(s0)
80006634:	fd042783          	lw	a5,-48(s0)
80006638:	fff7c793          	not	a5,a5
8000663c:	01f7d793          	srli	a5,a5,0x1f
80006640:	0ff7f793          	zext.b	a5,a5
80006644:	00078863          	beqz	a5,80006654 <sqrtf+0x74>
80006648:	800147b7          	lui	a5,0x80014
8000664c:	ec47a783          	lw	a5,-316(a5) # 80013ec4 <a+0x44>
80006650:	1600006f          	j	800067b0 <sqrtf+0x1d0>
80006654:	800147b7          	lui	a5,0x80014
80006658:	ec87a783          	lw	a5,-312(a5) # 80013ec8 <a+0x48>
8000665c:	1540006f          	j	800067b0 <sqrtf+0x1d0>
80006660:	00000593          	li	a1,0
80006664:	fcc42503          	lw	a0,-52(s0)
80006668:	1f0030ef          	jal	80009858 <__eqsf2>
8000666c:	00050793          	mv	a5,a0
80006670:	00079663          	bnez	a5,8000667c <sqrtf+0x9c>
80006674:	00000793          	li	a5,0
80006678:	1380006f          	j	800067b0 <sqrtf+0x1d0>
8000667c:	00000593          	li	a1,0
80006680:	fcc42503          	lw	a0,-52(s0)
80006684:	3dd030ef          	jal	8000a260 <__ltsf2>
80006688:	00050793          	mv	a5,a0
8000668c:	0007d863          	bgez	a5,8000669c <sqrtf+0xbc>
80006690:	800147b7          	lui	a5,0x80014
80006694:	ec47a783          	lw	a5,-316(a5) # 80013ec4 <a+0x44>
80006698:	1180006f          	j	800067b0 <sqrtf+0x1d0>
8000669c:	fd440793          	addi	a5,s0,-44
800066a0:	00078593          	mv	a1,a5
800066a4:	fcc42503          	lw	a0,-52(s0)
800066a8:	c24ff0ef          	jal	80005acc <frexpf>
800066ac:	fea42223          	sw	a0,-28(s0)
800066b0:	fd442783          	lw	a5,-44(s0)
800066b4:	0017f793          	andi	a5,a5,1
800066b8:	fef42023          	sw	a5,-32(s0)
800066bc:	800147b7          	lui	a5,0x80014
800066c0:	f187a583          	lw	a1,-232(a5) # 80013f18 <a+0x98>
800066c4:	fe442503          	lw	a0,-28(s0)
800066c8:	661030ef          	jal	8000a528 <__mulsf3>
800066cc:	00050793          	mv	a5,a0
800066d0:	00078713          	mv	a4,a5
800066d4:	800147b7          	lui	a5,0x80014
800066d8:	f1c7a583          	lw	a1,-228(a5) # 80013f1c <a+0x9c>
800066dc:	00070513          	mv	a0,a4
800066e0:	249020ef          	jal	80009128 <__addsf3>
800066e4:	00050793          	mv	a5,a0
800066e8:	fef42623          	sw	a5,-20(s0)
800066ec:	800147b7          	lui	a5,0x80014
800066f0:	ecc7a583          	lw	a1,-308(a5) # 80013ecc <a+0x4c>
800066f4:	fe442503          	lw	a0,-28(s0)
800066f8:	631030ef          	jal	8000a528 <__mulsf3>
800066fc:	00050793          	mv	a5,a0
80006700:	fef42223          	sw	a5,-28(s0)
80006704:	fe042423          	sw	zero,-24(s0)
80006708:	04c0006f          	j	80006754 <sqrtf+0x174>
8000670c:	800147b7          	lui	a5,0x80014
80006710:	ecc7a583          	lw	a1,-308(a5) # 80013ecc <a+0x4c>
80006714:	fec42503          	lw	a0,-20(s0)
80006718:	611030ef          	jal	8000a528 <__mulsf3>
8000671c:	00050793          	mv	a5,a0
80006720:	00078493          	mv	s1,a5
80006724:	fec42583          	lw	a1,-20(s0)
80006728:	fe442503          	lw	a0,-28(s0)
8000672c:	759020ef          	jal	80009684 <__divsf3>
80006730:	00050793          	mv	a5,a0
80006734:	00078593          	mv	a1,a5
80006738:	00048513          	mv	a0,s1
8000673c:	1ed020ef          	jal	80009128 <__addsf3>
80006740:	00050793          	mv	a5,a0
80006744:	fef42623          	sw	a5,-20(s0)
80006748:	fe842783          	lw	a5,-24(s0)
8000674c:	00178793          	addi	a5,a5,1
80006750:	fef42423          	sw	a5,-24(s0)
80006754:	fe842703          	lw	a4,-24(s0)
80006758:	00100793          	li	a5,1
8000675c:	fae7d8e3          	bge	a5,a4,8000670c <sqrtf+0x12c>
80006760:	fe042783          	lw	a5,-32(s0)
80006764:	02078463          	beqz	a5,8000678c <sqrtf+0x1ac>
80006768:	800147b7          	lui	a5,0x80014
8000676c:	ed07a583          	lw	a1,-304(a5) # 80013ed0 <a+0x50>
80006770:	fec42503          	lw	a0,-20(s0)
80006774:	5b5030ef          	jal	8000a528 <__mulsf3>
80006778:	00050793          	mv	a5,a0
8000677c:	fef42623          	sw	a5,-20(s0)
80006780:	fd442783          	lw	a5,-44(s0)
80006784:	00178793          	addi	a5,a5,1
80006788:	fcf42a23          	sw	a5,-44(s0)
8000678c:	fd442783          	lw	a5,-44(s0)
80006790:	4017d793          	srai	a5,a5,0x1
80006794:	fcf42a23          	sw	a5,-44(s0)
80006798:	fd442783          	lw	a5,-44(s0)
8000679c:	00078593          	mv	a1,a5
800067a0:	fec42503          	lw	a0,-20(s0)
800067a4:	a39ff0ef          	jal	800061dc <ldexpf>
800067a8:	fea42623          	sw	a0,-20(s0)
800067ac:	fec42783          	lw	a5,-20(s0)
800067b0:	00078513          	mv	a0,a5
800067b4:	03c12083          	lw	ra,60(sp)
800067b8:	03812403          	lw	s0,56(sp)
800067bc:	03412483          	lw	s1,52(sp)
800067c0:	04010113          	addi	sp,sp,64
800067c4:	00008067          	ret

800067c8 <lowpass>:
800067c8:	fe010113          	addi	sp,sp,-32
800067cc:	00112e23          	sw	ra,28(sp)
800067d0:	00812c23          	sw	s0,24(sp)
800067d4:	02010413          	addi	s0,sp,32
800067d8:	fea42623          	sw	a0,-20(s0)
800067dc:	feb42423          	sw	a1,-24(s0)
800067e0:	fec42223          	sw	a2,-28(s0)
800067e4:	800147b7          	lui	a5,0x80014
800067e8:	fe442583          	lw	a1,-28(s0)
800067ec:	f207a503          	lw	a0,-224(a5) # 80013f20 <a+0xa0>
800067f0:	131020ef          	jal	80009120 <__subsf3>
800067f4:	00050793          	mv	a5,a0
800067f8:	00078593          	mv	a1,a5
800067fc:	fec42503          	lw	a0,-20(s0)
80006800:	529030ef          	jal	8000a528 <__mulsf3>
80006804:	00050793          	mv	a5,a0
80006808:	fef42623          	sw	a5,-20(s0)
8000680c:	fe442583          	lw	a1,-28(s0)
80006810:	fe842503          	lw	a0,-24(s0)
80006814:	515030ef          	jal	8000a528 <__mulsf3>
80006818:	00050793          	mv	a5,a0
8000681c:	fec42583          	lw	a1,-20(s0)
80006820:	00078513          	mv	a0,a5
80006824:	105020ef          	jal	80009128 <__addsf3>
80006828:	00050793          	mv	a5,a0
8000682c:	00078513          	mv	a0,a5
80006830:	01c12083          	lw	ra,28(sp)
80006834:	01812403          	lw	s0,24(sp)
80006838:	02010113          	addi	sp,sp,32
8000683c:	00008067          	ret

80006840 <fabsf>:
80006840:	fe010113          	addi	sp,sp,-32
80006844:	00112e23          	sw	ra,28(sp)
80006848:	00812c23          	sw	s0,24(sp)
8000684c:	02010413          	addi	s0,sp,32
80006850:	fea42623          	sw	a0,-20(s0)
80006854:	00000593          	li	a1,0
80006858:	fec42503          	lw	a0,-20(s0)
8000685c:	089030ef          	jal	8000a0e4 <__gtsf2>
80006860:	00050793          	mv	a5,a0
80006864:	00f05663          	blez	a5,80006870 <fabsf+0x30>
80006868:	fec42783          	lw	a5,-20(s0)
8000686c:	0100006f          	j	8000687c <fabsf+0x3c>
80006870:	fec42703          	lw	a4,-20(s0)
80006874:	800007b7          	lui	a5,0x80000
80006878:	00f747b3          	xor	a5,a4,a5
8000687c:	00078513          	mv	a0,a5
80006880:	01c12083          	lw	ra,28(sp)
80006884:	01812403          	lw	s0,24(sp)
80006888:	02010113          	addi	sp,sp,32
8000688c:	00008067          	ret

80006890 <pow>:
80006890:	fd010113          	addi	sp,sp,-48
80006894:	02812623          	sw	s0,44(sp)
80006898:	03010413          	addi	s0,sp,48
8000689c:	fca42e23          	sw	a0,-36(s0)
800068a0:	fcb42c23          	sw	a1,-40(s0)
800068a4:	fdc42783          	lw	a5,-36(s0)
800068a8:	fef42623          	sw	a5,-20(s0)
800068ac:	fd842783          	lw	a5,-40(s0)
800068b0:	00079663          	bnez	a5,800068bc <pow+0x2c>
800068b4:	00100793          	li	a5,1
800068b8:	03c0006f          	j	800068f4 <pow+0x64>
800068bc:	fd842783          	lw	a5,-40(s0)
800068c0:	fff78793          	addi	a5,a5,-1 # 7fffffff <_start-0x1>
800068c4:	fcf42c23          	sw	a5,-40(s0)
800068c8:	0200006f          	j	800068e8 <pow+0x58>
800068cc:	fec42703          	lw	a4,-20(s0)
800068d0:	fdc42783          	lw	a5,-36(s0)
800068d4:	02f707b3          	mul	a5,a4,a5
800068d8:	fef42623          	sw	a5,-20(s0)
800068dc:	fd842783          	lw	a5,-40(s0)
800068e0:	fff78793          	addi	a5,a5,-1
800068e4:	fcf42c23          	sw	a5,-40(s0)
800068e8:	fd842783          	lw	a5,-40(s0)
800068ec:	fe0790e3          	bnez	a5,800068cc <pow+0x3c>
800068f0:	fec42783          	lw	a5,-20(s0)
800068f4:	00078513          	mv	a0,a5
800068f8:	02c12403          	lw	s0,44(sp)
800068fc:	03010113          	addi	sp,sp,48
80006900:	00008067          	ret

80006904 <sinef>:
80006904:	fc010113          	addi	sp,sp,-64
80006908:	02112e23          	sw	ra,60(sp)
8000690c:	02812c23          	sw	s0,56(sp)
80006910:	02912a23          	sw	s1,52(sp)
80006914:	04010413          	addi	s0,sp,64
80006918:	fca42623          	sw	a0,-52(s0)
8000691c:	fcb42423          	sw	a1,-56(s0)
80006920:	800147b7          	lui	a5,0x80014
80006924:	f347a783          	lw	a5,-204(a5) # 80013f34 <r+0x10>
80006928:	fcf42c23          	sw	a5,-40(s0)
8000692c:	fcc42503          	lw	a0,-52(s0)
80006930:	a60ff0ef          	jal	80005b90 <numtestf>
80006934:	00050793          	mv	a5,a0
80006938:	00100713          	li	a4,1
8000693c:	00e78a63          	beq	a5,a4,80006950 <sinef+0x4c>
80006940:	00200713          	li	a4,2
80006944:	00e79c63          	bne	a5,a4,8000695c <sinef+0x58>
80006948:	fcc42783          	lw	a5,-52(s0)
8000694c:	2f40006f          	j	80006c40 <sinef+0x33c>
80006950:	800147b7          	lui	a5,0x80014
80006954:	f387a783          	lw	a5,-200(a5) # 80013f38 <r+0x14>
80006958:	2e80006f          	j	80006c40 <sinef+0x33c>
8000695c:	fc842783          	lw	a5,-56(s0)
80006960:	02078c63          	beqz	a5,80006998 <sinef+0x94>
80006964:	00100793          	li	a5,1
80006968:	fef42623          	sw	a5,-20(s0)
8000696c:	fcc42503          	lw	a0,-52(s0)
80006970:	ed1ff0ef          	jal	80006840 <fabsf>
80006974:	00050713          	mv	a4,a0
80006978:	800147b7          	lui	a5,0x80014
8000697c:	f3c7a783          	lw	a5,-196(a5) # 80013f3c <r+0x18>
80006980:	00078593          	mv	a1,a5
80006984:	00070513          	mv	a0,a4
80006988:	7a0020ef          	jal	80009128 <__addsf3>
8000698c:	00050793          	mv	a5,a0
80006990:	fef42223          	sw	a5,-28(s0)
80006994:	0440006f          	j	800069d8 <sinef+0xd4>
80006998:	00000593          	li	a1,0
8000699c:	fcc42503          	lw	a0,-52(s0)
800069a0:	0c1030ef          	jal	8000a260 <__ltsf2>
800069a4:	00050793          	mv	a5,a0
800069a8:	0207d063          	bgez	a5,800069c8 <sinef+0xc4>
800069ac:	fff00793          	li	a5,-1
800069b0:	fef42623          	sw	a5,-20(s0)
800069b4:	fcc42703          	lw	a4,-52(s0)
800069b8:	800007b7          	lui	a5,0x80000
800069bc:	00f747b3          	xor	a5,a4,a5
800069c0:	fef42223          	sw	a5,-28(s0)
800069c4:	0140006f          	j	800069d8 <sinef+0xd4>
800069c8:	00100793          	li	a5,1
800069cc:	fef42623          	sw	a5,-20(s0)
800069d0:	fcc42783          	lw	a5,-52(s0)
800069d4:	fef42223          	sw	a5,-28(s0)
800069d8:	fd842583          	lw	a1,-40(s0)
800069dc:	fe442503          	lw	a0,-28(s0)
800069e0:	704030ef          	jal	8000a0e4 <__gtsf2>
800069e4:	00050793          	mv	a5,a0
800069e8:	00f05663          	blez	a5,800069f4 <sinef+0xf0>
800069ec:	fcc42783          	lw	a5,-52(s0)
800069f0:	2500006f          	j	80006c40 <sinef+0x33c>
800069f4:	00000593          	li	a1,0
800069f8:	fe442503          	lw	a0,-28(s0)
800069fc:	065030ef          	jal	8000a260 <__ltsf2>
80006a00:	00050793          	mv	a5,a0
80006a04:	0407d463          	bgez	a5,80006a4c <sinef+0x148>
80006a08:	800147b7          	lui	a5,0x80014
80006a0c:	f407a783          	lw	a5,-192(a5) # 80013f40 <r+0x1c>
80006a10:	fe442583          	lw	a1,-28(s0)
80006a14:	00078513          	mv	a0,a5
80006a18:	311030ef          	jal	8000a528 <__mulsf3>
80006a1c:	00050793          	mv	a5,a0
80006a20:	00078713          	mv	a4,a5
80006a24:	800147b7          	lui	a5,0x80014
80006a28:	f447a583          	lw	a1,-188(a5) # 80013f44 <r+0x20>
80006a2c:	00070513          	mv	a0,a4
80006a30:	6f0020ef          	jal	80009120 <__subsf3>
80006a34:	00050793          	mv	a5,a0
80006a38:	00078513          	mv	a0,a5
80006a3c:	06c030ef          	jal	80009aa8 <__fixsfsi>
80006a40:	00050793          	mv	a5,a0
80006a44:	fef42423          	sw	a5,-24(s0)
80006a48:	0440006f          	j	80006a8c <sinef+0x188>
80006a4c:	800147b7          	lui	a5,0x80014
80006a50:	f407a783          	lw	a5,-192(a5) # 80013f40 <r+0x1c>
80006a54:	fe442583          	lw	a1,-28(s0)
80006a58:	00078513          	mv	a0,a5
80006a5c:	2cd030ef          	jal	8000a528 <__mulsf3>
80006a60:	00050793          	mv	a5,a0
80006a64:	00078713          	mv	a4,a5
80006a68:	800147b7          	lui	a5,0x80014
80006a6c:	f447a583          	lw	a1,-188(a5) # 80013f44 <r+0x20>
80006a70:	00070513          	mv	a0,a4
80006a74:	6b4020ef          	jal	80009128 <__addsf3>
80006a78:	00050793          	mv	a5,a0
80006a7c:	00078513          	mv	a0,a5
80006a80:	028030ef          	jal	80009aa8 <__fixsfsi>
80006a84:	00050793          	mv	a5,a0
80006a88:	fef42423          	sw	a5,-24(s0)
80006a8c:	fe842503          	lw	a0,-24(s0)
80006a90:	350030ef          	jal	80009de0 <__floatsisf>
80006a94:	00050793          	mv	a5,a0
80006a98:	fef42023          	sw	a5,-32(s0)
80006a9c:	fe842783          	lw	a5,-24(s0)
80006aa0:	0017f793          	andi	a5,a5,1
80006aa4:	00078863          	beqz	a5,80006ab4 <sinef+0x1b0>
80006aa8:	fec42783          	lw	a5,-20(s0)
80006aac:	40f007b3          	neg	a5,a5
80006ab0:	fef42623          	sw	a5,-20(s0)
80006ab4:	fc842783          	lw	a5,-56(s0)
80006ab8:	00078e63          	beqz	a5,80006ad4 <sinef+0x1d0>
80006abc:	800147b7          	lui	a5,0x80014
80006ac0:	f447a583          	lw	a1,-188(a5) # 80013f44 <r+0x20>
80006ac4:	fe042503          	lw	a0,-32(s0)
80006ac8:	658020ef          	jal	80009120 <__subsf3>
80006acc:	00050793          	mv	a5,a0
80006ad0:	fef42023          	sw	a5,-32(s0)
80006ad4:	fcc42503          	lw	a0,-52(s0)
80006ad8:	d69ff0ef          	jal	80006840 <fabsf>
80006adc:	00050493          	mv	s1,a0
80006ae0:	800147b7          	lui	a5,0x80014
80006ae4:	f487a583          	lw	a1,-184(a5) # 80013f48 <r+0x24>
80006ae8:	fe042503          	lw	a0,-32(s0)
80006aec:	23d030ef          	jal	8000a528 <__mulsf3>
80006af0:	00050793          	mv	a5,a0
80006af4:	00078593          	mv	a1,a5
80006af8:	00048513          	mv	a0,s1
80006afc:	624020ef          	jal	80009120 <__subsf3>
80006b00:	00050793          	mv	a5,a0
80006b04:	fef42223          	sw	a5,-28(s0)
80006b08:	800147b7          	lui	a5,0x80014
80006b0c:	f4c7a583          	lw	a1,-180(a5) # 80013f4c <r+0x28>
80006b10:	fe442503          	lw	a0,-28(s0)
80006b14:	5d0030ef          	jal	8000a0e4 <__gtsf2>
80006b18:	00050793          	mv	a5,a0
80006b1c:	02f05463          	blez	a5,80006b44 <sinef+0x240>
80006b20:	800147b7          	lui	a5,0x80014
80006b24:	f507a583          	lw	a1,-176(a5) # 80013f50 <r+0x2c>
80006b28:	fe442503          	lw	a0,-28(s0)
80006b2c:	734030ef          	jal	8000a260 <__ltsf2>
80006b30:	00050793          	mv	a5,a0
80006b34:	0007d863          	bgez	a5,80006b44 <sinef+0x240>
80006b38:	fe442783          	lw	a5,-28(s0)
80006b3c:	fcf42e23          	sw	a5,-36(s0)
80006b40:	0dc0006f          	j	80006c1c <sinef+0x318>
80006b44:	fe442583          	lw	a1,-28(s0)
80006b48:	fe442503          	lw	a0,-28(s0)
80006b4c:	1dd030ef          	jal	8000a528 <__mulsf3>
80006b50:	00050793          	mv	a5,a0
80006b54:	fcf42a23          	sw	a5,-44(s0)
80006b58:	800147b7          	lui	a5,0x80014
80006b5c:	f547a783          	lw	a5,-172(a5) # 80013f54 <r+0x30>
80006b60:	fd442583          	lw	a1,-44(s0)
80006b64:	00078513          	mv	a0,a5
80006b68:	1c1030ef          	jal	8000a528 <__mulsf3>
80006b6c:	00050793          	mv	a5,a0
80006b70:	00078713          	mv	a4,a5
80006b74:	800147b7          	lui	a5,0x80014
80006b78:	f587a783          	lw	a5,-168(a5) # 80013f58 <r+0x34>
80006b7c:	00078593          	mv	a1,a5
80006b80:	00070513          	mv	a0,a4
80006b84:	5a4020ef          	jal	80009128 <__addsf3>
80006b88:	00050793          	mv	a5,a0
80006b8c:	fd442583          	lw	a1,-44(s0)
80006b90:	00078513          	mv	a0,a5
80006b94:	195030ef          	jal	8000a528 <__mulsf3>
80006b98:	00050793          	mv	a5,a0
80006b9c:	00078713          	mv	a4,a5
80006ba0:	800147b7          	lui	a5,0x80014
80006ba4:	f5c7a783          	lw	a5,-164(a5) # 80013f5c <r+0x38>
80006ba8:	00078593          	mv	a1,a5
80006bac:	00070513          	mv	a0,a4
80006bb0:	578020ef          	jal	80009128 <__addsf3>
80006bb4:	00050793          	mv	a5,a0
80006bb8:	fd442583          	lw	a1,-44(s0)
80006bbc:	00078513          	mv	a0,a5
80006bc0:	169030ef          	jal	8000a528 <__mulsf3>
80006bc4:	00050793          	mv	a5,a0
80006bc8:	00078713          	mv	a4,a5
80006bcc:	800147b7          	lui	a5,0x80014
80006bd0:	f607a783          	lw	a5,-160(a5) # 80013f60 <r+0x3c>
80006bd4:	00078593          	mv	a1,a5
80006bd8:	00070513          	mv	a0,a4
80006bdc:	54c020ef          	jal	80009128 <__addsf3>
80006be0:	00050793          	mv	a5,a0
80006be4:	00078593          	mv	a1,a5
80006be8:	fd442503          	lw	a0,-44(s0)
80006bec:	13d030ef          	jal	8000a528 <__mulsf3>
80006bf0:	00050793          	mv	a5,a0
80006bf4:	fcf42823          	sw	a5,-48(s0)
80006bf8:	fd042583          	lw	a1,-48(s0)
80006bfc:	fe442503          	lw	a0,-28(s0)
80006c00:	129030ef          	jal	8000a528 <__mulsf3>
80006c04:	00050793          	mv	a5,a0
80006c08:	00078593          	mv	a1,a5
80006c0c:	fe442503          	lw	a0,-28(s0)
80006c10:	518020ef          	jal	80009128 <__addsf3>
80006c14:	00050793          	mv	a5,a0
80006c18:	fcf42e23          	sw	a5,-36(s0)
80006c1c:	fec42503          	lw	a0,-20(s0)
80006c20:	1c0030ef          	jal	80009de0 <__floatsisf>
80006c24:	00050793          	mv	a5,a0
80006c28:	00078593          	mv	a1,a5
80006c2c:	fdc42503          	lw	a0,-36(s0)
80006c30:	0f9030ef          	jal	8000a528 <__mulsf3>
80006c34:	00050793          	mv	a5,a0
80006c38:	fcf42e23          	sw	a5,-36(s0)
80006c3c:	fdc42783          	lw	a5,-36(s0)
80006c40:	00078513          	mv	a0,a5
80006c44:	03c12083          	lw	ra,60(sp)
80006c48:	03812403          	lw	s0,56(sp)
80006c4c:	03412483          	lw	s1,52(sp)
80006c50:	04010113          	addi	sp,sp,64
80006c54:	00008067          	ret

80006c58 <asinef>:
80006c58:	fb010113          	addi	sp,sp,-80
80006c5c:	04112623          	sw	ra,76(sp)
80006c60:	04812423          	sw	s0,72(sp)
80006c64:	05010413          	addi	s0,sp,80
80006c68:	faa42e23          	sw	a0,-68(s0)
80006c6c:	fab42c23          	sw	a1,-72(s0)
80006c70:	fe042423          	sw	zero,-24(s0)
80006c74:	00000793          	li	a5,0
80006c78:	fef42023          	sw	a5,-32(s0)
80006c7c:	00000793          	li	a5,0
80006c80:	fcf42e23          	sw	a5,-36(s0)
80006c84:	fbc42503          	lw	a0,-68(s0)
80006c88:	f09fe0ef          	jal	80005b90 <numtestf>
80006c8c:	00050793          	mv	a5,a0
80006c90:	fef42623          	sw	a5,-20(s0)
80006c94:	fec42703          	lw	a4,-20(s0)
80006c98:	00200793          	li	a5,2
80006c9c:	00f70863          	beq	a4,a5,80006cac <asinef+0x54>
80006ca0:	fec42703          	lw	a4,-20(s0)
80006ca4:	00100793          	li	a5,1
80006ca8:	02f71263          	bne	a4,a5,80006ccc <asinef+0x74>
80006cac:	fec42703          	lw	a4,-20(s0)
80006cb0:	00200793          	li	a5,2
80006cb4:	00f71663          	bne	a4,a5,80006cc0 <asinef+0x68>
80006cb8:	fbc42783          	lw	a5,-68(s0)
80006cbc:	3500006f          	j	8000700c <asinef+0x3b4>
80006cc0:	800147b7          	lui	a5,0x80014
80006cc4:	f647a783          	lw	a5,-156(a5) # 80013f64 <r+0x40>
80006cc8:	3440006f          	j	8000700c <asinef+0x3b4>
80006ccc:	fbc42503          	lw	a0,-68(s0)
80006cd0:	b71ff0ef          	jal	80006840 <fabsf>
80006cd4:	fea42223          	sw	a0,-28(s0)
80006cd8:	fb842783          	lw	a5,-72(s0)
80006cdc:	fcf42c23          	sw	a5,-40(s0)
80006ce0:	800147b7          	lui	a5,0x80014
80006ce4:	f447a583          	lw	a1,-188(a5) # 80013f44 <r+0x20>
80006ce8:	fe442503          	lw	a0,-28(s0)
80006cec:	3f8030ef          	jal	8000a0e4 <__gtsf2>
80006cf0:	00050793          	mv	a5,a0
80006cf4:	08f05c63          	blez	a5,80006d8c <asinef+0x134>
80006cf8:	00100713          	li	a4,1
80006cfc:	fd842783          	lw	a5,-40(s0)
80006d00:	40f707b3          	sub	a5,a4,a5
80006d04:	fef42623          	sw	a5,-20(s0)
80006d08:	800147b7          	lui	a5,0x80014
80006d0c:	f687a583          	lw	a1,-152(a5) # 80013f68 <r+0x44>
80006d10:	fe442503          	lw	a0,-28(s0)
80006d14:	3d0030ef          	jal	8000a0e4 <__gtsf2>
80006d18:	00050793          	mv	a5,a0
80006d1c:	00f05863          	blez	a5,80006d2c <asinef+0xd4>
80006d20:	800147b7          	lui	a5,0x80014
80006d24:	f387a783          	lw	a5,-200(a5) # 80013f38 <r+0x14>
80006d28:	2e40006f          	j	8000700c <asinef+0x3b4>
80006d2c:	800147b7          	lui	a5,0x80014
80006d30:	fe442583          	lw	a1,-28(s0)
80006d34:	f687a503          	lw	a0,-152(a5) # 80013f68 <r+0x44>
80006d38:	3e8020ef          	jal	80009120 <__subsf3>
80006d3c:	00050793          	mv	a5,a0
80006d40:	00078713          	mv	a4,a5
80006d44:	800147b7          	lui	a5,0x80014
80006d48:	f6c7a583          	lw	a1,-148(a5) # 80013f6c <r+0x48>
80006d4c:	00070513          	mv	a0,a4
80006d50:	135020ef          	jal	80009684 <__divsf3>
80006d54:	00050793          	mv	a5,a0
80006d58:	fef42023          	sw	a5,-32(s0)
80006d5c:	fe042503          	lw	a0,-32(s0)
80006d60:	881ff0ef          	jal	800065e0 <sqrtf>
80006d64:	00050713          	mv	a4,a0
80006d68:	800147b7          	lui	a5,0x80014
80006d6c:	f707a583          	lw	a1,-144(a5) # 80013f70 <r+0x4c>
80006d70:	00070513          	mv	a0,a4
80006d74:	7b4030ef          	jal	8000a528 <__mulsf3>
80006d78:	00050793          	mv	a5,a0
80006d7c:	fef42223          	sw	a5,-28(s0)
80006d80:	00100793          	li	a5,1
80006d84:	fef42423          	sw	a5,-24(s0)
80006d88:	0440006f          	j	80006dcc <asinef+0x174>
80006d8c:	fd842783          	lw	a5,-40(s0)
80006d90:	fef42623          	sw	a5,-20(s0)
80006d94:	800147b7          	lui	a5,0x80014
80006d98:	f507a583          	lw	a1,-176(a5) # 80013f50 <r+0x2c>
80006d9c:	fe442503          	lw	a0,-28(s0)
80006da0:	4c0030ef          	jal	8000a260 <__ltsf2>
80006da4:	00050793          	mv	a5,a0
80006da8:	0007d863          	bgez	a5,80006db8 <asinef+0x160>
80006dac:	fe442783          	lw	a5,-28(s0)
80006db0:	fcf42e23          	sw	a5,-36(s0)
80006db4:	0180006f          	j	80006dcc <asinef+0x174>
80006db8:	fe442583          	lw	a1,-28(s0)
80006dbc:	fe442503          	lw	a0,-28(s0)
80006dc0:	768030ef          	jal	8000a528 <__mulsf3>
80006dc4:	00050793          	mv	a5,a0
80006dc8:	fef42023          	sw	a5,-32(s0)
80006dcc:	800147b7          	lui	a5,0x80014
80006dd0:	f507a583          	lw	a1,-176(a5) # 80013f50 <r+0x2c>
80006dd4:	fe442503          	lw	a0,-28(s0)
80006dd8:	24c030ef          	jal	8000a024 <__gesf2>
80006ddc:	00050793          	mv	a5,a0
80006de0:	0007d863          	bgez	a5,80006df0 <asinef+0x198>
80006de4:	fe842703          	lw	a4,-24(s0)
80006de8:	00100793          	li	a5,1
80006dec:	0cf71663          	bne	a4,a5,80006eb8 <asinef+0x260>
80006df0:	800147b7          	lui	a5,0x80014
80006df4:	f747a783          	lw	a5,-140(a5) # 80013f74 <r+0x50>
80006df8:	fe042583          	lw	a1,-32(s0)
80006dfc:	00078513          	mv	a0,a5
80006e00:	728030ef          	jal	8000a528 <__mulsf3>
80006e04:	00050793          	mv	a5,a0
80006e08:	00078713          	mv	a4,a5
80006e0c:	800147b7          	lui	a5,0x80014
80006e10:	f787a783          	lw	a5,-136(a5) # 80013f78 <r+0x54>
80006e14:	00078593          	mv	a1,a5
80006e18:	00070513          	mv	a0,a4
80006e1c:	30c020ef          	jal	80009128 <__addsf3>
80006e20:	00050793          	mv	a5,a0
80006e24:	00078593          	mv	a1,a5
80006e28:	fe042503          	lw	a0,-32(s0)
80006e2c:	6fc030ef          	jal	8000a528 <__mulsf3>
80006e30:	00050793          	mv	a5,a0
80006e34:	fcf42a23          	sw	a5,-44(s0)
80006e38:	800147b7          	lui	a5,0x80014
80006e3c:	f7c7a783          	lw	a5,-132(a5) # 80013f7c <r+0x58>
80006e40:	fe042583          	lw	a1,-32(s0)
80006e44:	00078513          	mv	a0,a5
80006e48:	2e0020ef          	jal	80009128 <__addsf3>
80006e4c:	00050793          	mv	a5,a0
80006e50:	fe042583          	lw	a1,-32(s0)
80006e54:	00078513          	mv	a0,a5
80006e58:	6d0030ef          	jal	8000a528 <__mulsf3>
80006e5c:	00050793          	mv	a5,a0
80006e60:	00078713          	mv	a4,a5
80006e64:	800147b7          	lui	a5,0x80014
80006e68:	f807a783          	lw	a5,-128(a5) # 80013f80 <r+0x5c>
80006e6c:	00078593          	mv	a1,a5
80006e70:	00070513          	mv	a0,a4
80006e74:	2b4020ef          	jal	80009128 <__addsf3>
80006e78:	00050793          	mv	a5,a0
80006e7c:	fcf42823          	sw	a5,-48(s0)
80006e80:	fd042583          	lw	a1,-48(s0)
80006e84:	fd442503          	lw	a0,-44(s0)
80006e88:	7fc020ef          	jal	80009684 <__divsf3>
80006e8c:	00050793          	mv	a5,a0
80006e90:	fcf42623          	sw	a5,-52(s0)
80006e94:	fcc42583          	lw	a1,-52(s0)
80006e98:	fe442503          	lw	a0,-28(s0)
80006e9c:	68c030ef          	jal	8000a528 <__mulsf3>
80006ea0:	00050793          	mv	a5,a0
80006ea4:	00078593          	mv	a1,a5
80006ea8:	fe442503          	lw	a0,-28(s0)
80006eac:	27c020ef          	jal	80009128 <__addsf3>
80006eb0:	00050793          	mv	a5,a0
80006eb4:	fcf42e23          	sw	a5,-36(s0)
80006eb8:	fd842783          	lw	a5,-40(s0)
80006ebc:	08079263          	bnez	a5,80006f40 <asinef+0x2e8>
80006ec0:	800157b7          	lui	a5,0x80015
80006ec4:	fa478713          	addi	a4,a5,-92 # 80014fa4 <a>
80006ec8:	fec42783          	lw	a5,-20(s0)
80006ecc:	00279793          	slli	a5,a5,0x2
80006ed0:	00f707b3          	add	a5,a4,a5
80006ed4:	0007a783          	lw	a5,0(a5)
80006ed8:	fdc42583          	lw	a1,-36(s0)
80006edc:	00078513          	mv	a0,a5
80006ee0:	248020ef          	jal	80009128 <__addsf3>
80006ee4:	00050793          	mv	a5,a0
80006ee8:	00078693          	mv	a3,a5
80006eec:	800157b7          	lui	a5,0x80015
80006ef0:	fa478713          	addi	a4,a5,-92 # 80014fa4 <a>
80006ef4:	fec42783          	lw	a5,-20(s0)
80006ef8:	00279793          	slli	a5,a5,0x2
80006efc:	00f707b3          	add	a5,a4,a5
80006f00:	0007a783          	lw	a5,0(a5)
80006f04:	00078593          	mv	a1,a5
80006f08:	00068513          	mv	a0,a3
80006f0c:	21c020ef          	jal	80009128 <__addsf3>
80006f10:	00050793          	mv	a5,a0
80006f14:	fcf42e23          	sw	a5,-36(s0)
80006f18:	00000593          	li	a1,0
80006f1c:	fbc42503          	lw	a0,-68(s0)
80006f20:	340030ef          	jal	8000a260 <__ltsf2>
80006f24:	00050793          	mv	a5,a0
80006f28:	0e07d063          	bgez	a5,80007008 <asinef+0x3b0>
80006f2c:	fdc42703          	lw	a4,-36(s0)
80006f30:	800007b7          	lui	a5,0x80000
80006f34:	00f747b3          	xor	a5,a4,a5
80006f38:	fcf42e23          	sw	a5,-36(s0)
80006f3c:	0cc0006f          	j	80007008 <asinef+0x3b0>
80006f40:	00000593          	li	a1,0
80006f44:	fbc42503          	lw	a0,-68(s0)
80006f48:	318030ef          	jal	8000a260 <__ltsf2>
80006f4c:	00050793          	mv	a5,a0
80006f50:	0607d063          	bgez	a5,80006fb0 <asinef+0x358>
80006f54:	800157b7          	lui	a5,0x80015
80006f58:	fac78713          	addi	a4,a5,-84 # 80014fac <b>
80006f5c:	fec42783          	lw	a5,-20(s0)
80006f60:	00279793          	slli	a5,a5,0x2
80006f64:	00f707b3          	add	a5,a4,a5
80006f68:	0007a783          	lw	a5,0(a5)
80006f6c:	fdc42583          	lw	a1,-36(s0)
80006f70:	00078513          	mv	a0,a5
80006f74:	1b4020ef          	jal	80009128 <__addsf3>
80006f78:	00050793          	mv	a5,a0
80006f7c:	00078693          	mv	a3,a5
80006f80:	800157b7          	lui	a5,0x80015
80006f84:	fac78713          	addi	a4,a5,-84 # 80014fac <b>
80006f88:	fec42783          	lw	a5,-20(s0)
80006f8c:	00279793          	slli	a5,a5,0x2
80006f90:	00f707b3          	add	a5,a4,a5
80006f94:	0007a783          	lw	a5,0(a5)
80006f98:	00078593          	mv	a1,a5
80006f9c:	00068513          	mv	a0,a3
80006fa0:	188020ef          	jal	80009128 <__addsf3>
80006fa4:	00050793          	mv	a5,a0
80006fa8:	fcf42e23          	sw	a5,-36(s0)
80006fac:	05c0006f          	j	80007008 <asinef+0x3b0>
80006fb0:	800157b7          	lui	a5,0x80015
80006fb4:	fa478713          	addi	a4,a5,-92 # 80014fa4 <a>
80006fb8:	fec42783          	lw	a5,-20(s0)
80006fbc:	00279793          	slli	a5,a5,0x2
80006fc0:	00f707b3          	add	a5,a4,a5
80006fc4:	0007a783          	lw	a5,0(a5)
80006fc8:	fdc42583          	lw	a1,-36(s0)
80006fcc:	00078513          	mv	a0,a5
80006fd0:	150020ef          	jal	80009120 <__subsf3>
80006fd4:	00050793          	mv	a5,a0
80006fd8:	00078693          	mv	a3,a5
80006fdc:	800157b7          	lui	a5,0x80015
80006fe0:	fa478713          	addi	a4,a5,-92 # 80014fa4 <a>
80006fe4:	fec42783          	lw	a5,-20(s0)
80006fe8:	00279793          	slli	a5,a5,0x2
80006fec:	00f707b3          	add	a5,a4,a5
80006ff0:	0007a783          	lw	a5,0(a5)
80006ff4:	00078593          	mv	a1,a5
80006ff8:	00068513          	mv	a0,a3
80006ffc:	12c020ef          	jal	80009128 <__addsf3>
80007000:	00050793          	mv	a5,a0
80007004:	fcf42e23          	sw	a5,-36(s0)
80007008:	fdc42783          	lw	a5,-36(s0)
8000700c:	00078513          	mv	a0,a5
80007010:	04c12083          	lw	ra,76(sp)
80007014:	04812403          	lw	s0,72(sp)
80007018:	05010113          	addi	sp,sp,80
8000701c:	00008067          	ret

80007020 <tanf>:
80007020:	fc010113          	addi	sp,sp,-64
80007024:	02112e23          	sw	ra,60(sp)
80007028:	02812c23          	sw	s0,56(sp)
8000702c:	04010413          	addi	s0,sp,64
80007030:	fca42623          	sw	a0,-52(s0)
80007034:	fcc42503          	lw	a0,-52(s0)
80007038:	b59fe0ef          	jal	80005b90 <numtestf>
8000703c:	00050793          	mv	a5,a0
80007040:	00100713          	li	a4,1
80007044:	00e78a63          	beq	a5,a4,80007058 <tanf+0x38>
80007048:	00200713          	li	a4,2
8000704c:	00e79c63          	bne	a5,a4,80007064 <tanf+0x44>
80007050:	fcc42783          	lw	a5,-52(s0)
80007054:	24c0006f          	j	800072a0 <tanf+0x280>
80007058:	800147b7          	lui	a5,0x80014
8000705c:	f847a783          	lw	a5,-124(a5) # 80013f84 <r+0x60>
80007060:	2400006f          	j	800072a0 <tanf+0x280>
80007064:	fcc42503          	lw	a0,-52(s0)
80007068:	fd8ff0ef          	jal	80006840 <fabsf>
8000706c:	fca42e23          	sw	a0,-36(s0)
80007070:	800147b7          	lui	a5,0x80014
80007074:	f887a583          	lw	a1,-120(a5) # 80013f88 <r+0x64>
80007078:	fdc42503          	lw	a0,-36(s0)
8000707c:	068030ef          	jal	8000a0e4 <__gtsf2>
80007080:	00050793          	mv	a5,a0
80007084:	00f05663          	blez	a5,80007090 <tanf+0x70>
80007088:	fdc42783          	lw	a5,-36(s0)
8000708c:	2140006f          	j	800072a0 <tanf+0x280>
80007090:	00000593          	li	a1,0
80007094:	fcc42503          	lw	a0,-52(s0)
80007098:	1c8030ef          	jal	8000a260 <__ltsf2>
8000709c:	00050793          	mv	a5,a0
800070a0:	0407d463          	bgez	a5,800070e8 <tanf+0xc8>
800070a4:	800147b7          	lui	a5,0x80014
800070a8:	f8c7a783          	lw	a5,-116(a5) # 80013f8c <r+0x68>
800070ac:	fcc42583          	lw	a1,-52(s0)
800070b0:	00078513          	mv	a0,a5
800070b4:	474030ef          	jal	8000a528 <__mulsf3>
800070b8:	00050793          	mv	a5,a0
800070bc:	00078713          	mv	a4,a5
800070c0:	800147b7          	lui	a5,0x80014
800070c4:	f907a583          	lw	a1,-112(a5) # 80013f90 <r+0x6c>
800070c8:	00070513          	mv	a0,a4
800070cc:	054020ef          	jal	80009120 <__subsf3>
800070d0:	00050793          	mv	a5,a0
800070d4:	00078513          	mv	a0,a5
800070d8:	1d1020ef          	jal	80009aa8 <__fixsfsi>
800070dc:	00050793          	mv	a5,a0
800070e0:	fef42023          	sw	a5,-32(s0)
800070e4:	0440006f          	j	80007128 <tanf+0x108>
800070e8:	800147b7          	lui	a5,0x80014
800070ec:	f8c7a783          	lw	a5,-116(a5) # 80013f8c <r+0x68>
800070f0:	fcc42583          	lw	a1,-52(s0)
800070f4:	00078513          	mv	a0,a5
800070f8:	430030ef          	jal	8000a528 <__mulsf3>
800070fc:	00050793          	mv	a5,a0
80007100:	00078713          	mv	a4,a5
80007104:	800147b7          	lui	a5,0x80014
80007108:	f907a583          	lw	a1,-112(a5) # 80013f90 <r+0x6c>
8000710c:	00070513          	mv	a0,a4
80007110:	018020ef          	jal	80009128 <__addsf3>
80007114:	00050793          	mv	a5,a0
80007118:	00078513          	mv	a0,a5
8000711c:	18d020ef          	jal	80009aa8 <__fixsfsi>
80007120:	00050793          	mv	a5,a0
80007124:	fef42023          	sw	a5,-32(s0)
80007128:	fe042503          	lw	a0,-32(s0)
8000712c:	4b5020ef          	jal	80009de0 <__floatsisf>
80007130:	00050713          	mv	a4,a0
80007134:	800147b7          	lui	a5,0x80014
80007138:	f947a583          	lw	a1,-108(a5) # 80013f94 <r+0x70>
8000713c:	00070513          	mv	a0,a4
80007140:	3e8030ef          	jal	8000a528 <__mulsf3>
80007144:	00050793          	mv	a5,a0
80007148:	00078593          	mv	a1,a5
8000714c:	fcc42503          	lw	a0,-52(s0)
80007150:	7d1010ef          	jal	80009120 <__subsf3>
80007154:	00050793          	mv	a5,a0
80007158:	fcf42c23          	sw	a5,-40(s0)
8000715c:	800147b7          	lui	a5,0x80014
80007160:	f987a583          	lw	a1,-104(a5) # 80013f98 <r+0x74>
80007164:	fd842503          	lw	a0,-40(s0)
80007168:	77d020ef          	jal	8000a0e4 <__gtsf2>
8000716c:	00050793          	mv	a5,a0
80007170:	02f05a63          	blez	a5,800071a4 <tanf+0x184>
80007174:	800147b7          	lui	a5,0x80014
80007178:	f9c7a583          	lw	a1,-100(a5) # 80013f9c <r+0x78>
8000717c:	fd842503          	lw	a0,-40(s0)
80007180:	0e0030ef          	jal	8000a260 <__ltsf2>
80007184:	00050793          	mv	a5,a0
80007188:	0007de63          	bgez	a5,800071a4 <tanf+0x184>
8000718c:	fd842783          	lw	a5,-40(s0)
80007190:	fef42623          	sw	a5,-20(s0)
80007194:	800147b7          	lui	a5,0x80014
80007198:	fa07a783          	lw	a5,-96(a5) # 80013fa0 <r+0x7c>
8000719c:	fef42423          	sw	a5,-24(s0)
800071a0:	0b40006f          	j	80007254 <tanf+0x234>
800071a4:	fd842583          	lw	a1,-40(s0)
800071a8:	fd842503          	lw	a0,-40(s0)
800071ac:	37c030ef          	jal	8000a528 <__mulsf3>
800071b0:	00050793          	mv	a5,a0
800071b4:	fcf42a23          	sw	a5,-44(s0)
800071b8:	800147b7          	lui	a5,0x80014
800071bc:	fa47a783          	lw	a5,-92(a5) # 80013fa4 <r+0x80>
800071c0:	fd442583          	lw	a1,-44(s0)
800071c4:	00078513          	mv	a0,a5
800071c8:	360030ef          	jal	8000a528 <__mulsf3>
800071cc:	00050793          	mv	a5,a0
800071d0:	fd842583          	lw	a1,-40(s0)
800071d4:	00078513          	mv	a0,a5
800071d8:	350030ef          	jal	8000a528 <__mulsf3>
800071dc:	00050793          	mv	a5,a0
800071e0:	00078593          	mv	a1,a5
800071e4:	fd842503          	lw	a0,-40(s0)
800071e8:	741010ef          	jal	80009128 <__addsf3>
800071ec:	00050793          	mv	a5,a0
800071f0:	fef42623          	sw	a5,-20(s0)
800071f4:	800147b7          	lui	a5,0x80014
800071f8:	fa87a783          	lw	a5,-88(a5) # 80013fa8 <r+0x84>
800071fc:	fd442583          	lw	a1,-44(s0)
80007200:	00078513          	mv	a0,a5
80007204:	324030ef          	jal	8000a528 <__mulsf3>
80007208:	00050793          	mv	a5,a0
8000720c:	00078713          	mv	a4,a5
80007210:	800147b7          	lui	a5,0x80014
80007214:	fac7a783          	lw	a5,-84(a5) # 80013fac <r+0x88>
80007218:	00078593          	mv	a1,a5
8000721c:	00070513          	mv	a0,a4
80007220:	709010ef          	jal	80009128 <__addsf3>
80007224:	00050793          	mv	a5,a0
80007228:	fd442583          	lw	a1,-44(s0)
8000722c:	00078513          	mv	a0,a5
80007230:	2f8030ef          	jal	8000a528 <__mulsf3>
80007234:	00050793          	mv	a5,a0
80007238:	00078713          	mv	a4,a5
8000723c:	800147b7          	lui	a5,0x80014
80007240:	fa07a583          	lw	a1,-96(a5) # 80013fa0 <r+0x7c>
80007244:	00070513          	mv	a0,a4
80007248:	6e1010ef          	jal	80009128 <__addsf3>
8000724c:	00050793          	mv	a5,a0
80007250:	fef42423          	sw	a5,-24(s0)
80007254:	fe042783          	lw	a5,-32(s0)
80007258:	0017f793          	andi	a5,a5,1
8000725c:	02078663          	beqz	a5,80007288 <tanf+0x268>
80007260:	fec42703          	lw	a4,-20(s0)
80007264:	800007b7          	lui	a5,0x80000
80007268:	00f747b3          	xor	a5,a4,a5
8000726c:	fef42623          	sw	a5,-20(s0)
80007270:	fec42583          	lw	a1,-20(s0)
80007274:	fe842503          	lw	a0,-24(s0)
80007278:	40c020ef          	jal	80009684 <__divsf3>
8000727c:	00050793          	mv	a5,a0
80007280:	fef42223          	sw	a5,-28(s0)
80007284:	0180006f          	j	8000729c <tanf+0x27c>
80007288:	fe842583          	lw	a1,-24(s0)
8000728c:	fec42503          	lw	a0,-20(s0)
80007290:	3f4020ef          	jal	80009684 <__divsf3>
80007294:	00050793          	mv	a5,a0
80007298:	fef42223          	sw	a5,-28(s0)
8000729c:	fe442783          	lw	a5,-28(s0)
800072a0:	00078513          	mv	a0,a5
800072a4:	03c12083          	lw	ra,60(sp)
800072a8:	03812403          	lw	s0,56(sp)
800072ac:	04010113          	addi	sp,sp,64
800072b0:	00008067          	ret

800072b4 <context_irq_enable>:
800072b4:	fe010113          	addi	sp,sp,-32
800072b8:	00812e23          	sw	s0,28(sp)
800072bc:	02010413          	addi	s0,sp,32
800072c0:	fea42623          	sw	a0,-20(s0)
800072c4:	feb42423          	sw	a1,-24(s0)
800072c8:	fec42783          	lw	a5,-20(s0)
800072cc:	0047a783          	lw	a5,4(a5) # 80000004 <_start+0x4>
800072d0:	f7f7f713          	andi	a4,a5,-129
800072d4:	fec42783          	lw	a5,-20(s0)
800072d8:	00e7a223          	sw	a4,4(a5)
800072dc:	fec42783          	lw	a5,-20(s0)
800072e0:	0047a703          	lw	a4,4(a5)
800072e4:	fe842783          	lw	a5,-24(s0)
800072e8:	00078663          	beqz	a5,800072f4 <context_irq_enable+0x40>
800072ec:	08000793          	li	a5,128
800072f0:	0080006f          	j	800072f8 <context_irq_enable+0x44>
800072f4:	00000793          	li	a5,0
800072f8:	00e7e733          	or	a4,a5,a4
800072fc:	fec42783          	lw	a5,-20(s0)
80007300:	00e7a223          	sw	a4,4(a5)
80007304:	00000013          	nop
80007308:	01c12403          	lw	s0,28(sp)
8000730c:	02010113          	addi	sp,sp,32
80007310:	00008067          	ret

80007314 <timer_diff>:
80007314:	fe010113          	addi	sp,sp,-32
80007318:	00812e23          	sw	s0,28(sp)
8000731c:	02010413          	addi	s0,sp,32
80007320:	fea42623          	sw	a0,-20(s0)
80007324:	feb42423          	sw	a1,-24(s0)
80007328:	fec42703          	lw	a4,-20(s0)
8000732c:	fe842783          	lw	a5,-24(s0)
80007330:	40f707b3          	sub	a5,a4,a5
80007334:	00078513          	mv	a0,a5
80007338:	01c12403          	lw	s0,28(sp)
8000733c:	02010113          	addi	sp,sp,32
80007340:	00008067          	ret

80007344 <printf>:
80007344:	fb010113          	addi	sp,sp,-80
80007348:	02112623          	sw	ra,44(sp)
8000734c:	02812423          	sw	s0,40(sp)
80007350:	03010413          	addi	s0,sp,48
80007354:	fca42e23          	sw	a0,-36(s0)
80007358:	00b42223          	sw	a1,4(s0)
8000735c:	00c42423          	sw	a2,8(s0)
80007360:	00d42623          	sw	a3,12(s0)
80007364:	00e42823          	sw	a4,16(s0)
80007368:	00f42a23          	sw	a5,20(s0)
8000736c:	01042c23          	sw	a6,24(s0)
80007370:	01142e23          	sw	a7,28(s0)
80007374:	02040793          	addi	a5,s0,32
80007378:	fcf42c23          	sw	a5,-40(s0)
8000737c:	fd842783          	lw	a5,-40(s0)
80007380:	fe478793          	addi	a5,a5,-28
80007384:	fef42623          	sw	a5,-20(s0)
80007388:	fec42703          	lw	a4,-20(s0)
8000738c:	00000693          	li	a3,0
80007390:	8000c7b7          	lui	a5,0x8000c
80007394:	18878613          	addi	a2,a5,392 # 8000c188 <putc>
80007398:	00070593          	mv	a1,a4
8000739c:	fdc42503          	lw	a0,-36(s0)
800073a0:	b61fc0ef          	jal	80003f00 <_fdoprnt>
800073a4:	00000793          	li	a5,0
800073a8:	00078513          	mv	a0,a5
800073ac:	02c12083          	lw	ra,44(sp)
800073b0:	02812403          	lw	s0,40(sp)
800073b4:	05010113          	addi	sp,sp,80
800073b8:	00008067          	ret

800073bc <hexDump2>:
800073bc:	fc010113          	addi	sp,sp,-64
800073c0:	02112e23          	sw	ra,60(sp)
800073c4:	02812c23          	sw	s0,56(sp)
800073c8:	04010413          	addi	s0,sp,64
800073cc:	fca42623          	sw	a0,-52(s0)
800073d0:	fcb42423          	sw	a1,-56(s0)
800073d4:	fcc42223          	sw	a2,-60(s0)
800073d8:	fc842783          	lw	a5,-56(s0)
800073dc:	fef42423          	sw	a5,-24(s0)
800073e0:	fe042623          	sw	zero,-20(s0)
800073e4:	12c0006f          	j	80007510 <hexDump2+0x154>
800073e8:	fec42783          	lw	a5,-20(s0)
800073ec:	00f7f793          	andi	a5,a5,15
800073f0:	02079e63          	bnez	a5,8000742c <hexDump2+0x70>
800073f4:	fec42783          	lw	a5,-20(s0)
800073f8:	00078c63          	beqz	a5,80007410 <hexDump2+0x54>
800073fc:	fd440793          	addi	a5,s0,-44
80007400:	00078593          	mv	a1,a5
80007404:	800147b7          	lui	a5,0x80014
80007408:	fb078513          	addi	a0,a5,-80 # 80013fb0 <r+0x8c>
8000740c:	f39ff0ef          	jal	80007344 <printf>
80007410:	fec42703          	lw	a4,-20(s0)
80007414:	fcc42783          	lw	a5,-52(s0)
80007418:	00f707b3          	add	a5,a4,a5
8000741c:	00078593          	mv	a1,a5
80007420:	800147b7          	lui	a5,0x80014
80007424:	fb878513          	addi	a0,a5,-72 # 80013fb8 <r+0x94>
80007428:	f1dff0ef          	jal	80007344 <printf>
8000742c:	fec42783          	lw	a5,-20(s0)
80007430:	fe842703          	lw	a4,-24(s0)
80007434:	00f707b3          	add	a5,a4,a5
80007438:	0007c783          	lbu	a5,0(a5)
8000743c:	00078593          	mv	a1,a5
80007440:	800147b7          	lui	a5,0x80014
80007444:	fc078513          	addi	a0,a5,-64 # 80013fc0 <r+0x9c>
80007448:	efdff0ef          	jal	80007344 <printf>
8000744c:	fec42783          	lw	a5,-20(s0)
80007450:	fe842703          	lw	a4,-24(s0)
80007454:	00f707b3          	add	a5,a4,a5
80007458:	0007c703          	lbu	a4,0(a5)
8000745c:	01f00793          	li	a5,31
80007460:	00e7fe63          	bgeu	a5,a4,8000747c <hexDump2+0xc0>
80007464:	fec42783          	lw	a5,-20(s0)
80007468:	fe842703          	lw	a4,-24(s0)
8000746c:	00f707b3          	add	a5,a4,a5
80007470:	0007c703          	lbu	a4,0(a5)
80007474:	07e00793          	li	a5,126
80007478:	02e7f863          	bgeu	a5,a4,800074a8 <hexDump2+0xec>
8000747c:	fec42703          	lw	a4,-20(s0)
80007480:	41f75793          	srai	a5,a4,0x1f
80007484:	01c7d793          	srli	a5,a5,0x1c
80007488:	00f70733          	add	a4,a4,a5
8000748c:	00f77713          	andi	a4,a4,15
80007490:	40f707b3          	sub	a5,a4,a5
80007494:	ff078793          	addi	a5,a5,-16
80007498:	008787b3          	add	a5,a5,s0
8000749c:	02e00713          	li	a4,46
800074a0:	fee78223          	sb	a4,-28(a5)
800074a4:	0380006f          	j	800074dc <hexDump2+0x120>
800074a8:	fec42783          	lw	a5,-20(s0)
800074ac:	fe842703          	lw	a4,-24(s0)
800074b0:	00f706b3          	add	a3,a4,a5
800074b4:	fec42703          	lw	a4,-20(s0)
800074b8:	41f75793          	srai	a5,a4,0x1f
800074bc:	01c7d793          	srli	a5,a5,0x1c
800074c0:	00f70733          	add	a4,a4,a5
800074c4:	00f77713          	andi	a4,a4,15
800074c8:	40f707b3          	sub	a5,a4,a5
800074cc:	0006c703          	lbu	a4,0(a3)
800074d0:	ff078793          	addi	a5,a5,-16
800074d4:	008787b3          	add	a5,a5,s0
800074d8:	fee78223          	sb	a4,-28(a5)
800074dc:	fec42703          	lw	a4,-20(s0)
800074e0:	41f75793          	srai	a5,a4,0x1f
800074e4:	01c7d793          	srli	a5,a5,0x1c
800074e8:	00f70733          	add	a4,a4,a5
800074ec:	00f77713          	andi	a4,a4,15
800074f0:	40f707b3          	sub	a5,a4,a5
800074f4:	00178793          	addi	a5,a5,1
800074f8:	ff078793          	addi	a5,a5,-16
800074fc:	008787b3          	add	a5,a5,s0
80007500:	fe078223          	sb	zero,-28(a5)
80007504:	fec42783          	lw	a5,-20(s0)
80007508:	00178793          	addi	a5,a5,1
8000750c:	fef42623          	sw	a5,-20(s0)
80007510:	fec42703          	lw	a4,-20(s0)
80007514:	fc442783          	lw	a5,-60(s0)
80007518:	ecf748e3          	blt	a4,a5,800073e8 <hexDump2+0x2c>
8000751c:	01c0006f          	j	80007538 <hexDump2+0x17c>
80007520:	800147b7          	lui	a5,0x80014
80007524:	fc878513          	addi	a0,a5,-56 # 80013fc8 <r+0xa4>
80007528:	e1dff0ef          	jal	80007344 <printf>
8000752c:	fec42783          	lw	a5,-20(s0)
80007530:	00178793          	addi	a5,a5,1
80007534:	fef42623          	sw	a5,-20(s0)
80007538:	fec42783          	lw	a5,-20(s0)
8000753c:	00f7f793          	andi	a5,a5,15
80007540:	fe0790e3          	bnez	a5,80007520 <hexDump2+0x164>
80007544:	fd440793          	addi	a5,s0,-44
80007548:	00078593          	mv	a1,a5
8000754c:	800147b7          	lui	a5,0x80014
80007550:	fb078513          	addi	a0,a5,-80 # 80013fb0 <r+0x8c>
80007554:	df1ff0ef          	jal	80007344 <printf>
80007558:	00000013          	nop
8000755c:	03c12083          	lw	ra,60(sp)
80007560:	03812403          	lw	s0,56(sp)
80007564:	04010113          	addi	sp,sp,64
80007568:	00008067          	ret

8000756c <qsort>:
8000756c:	fe010113          	addi	sp,sp,-32
80007570:	00112e23          	sw	ra,28(sp)
80007574:	00812c23          	sw	s0,24(sp)
80007578:	02010413          	addi	s0,sp,32
8000757c:	fea42623          	sw	a0,-20(s0)
80007580:	feb42423          	sw	a1,-24(s0)
80007584:	fec42223          	sw	a2,-28(s0)
80007588:	fed42023          	sw	a3,-32(s0)
8000758c:	800177b7          	lui	a5,0x80017
80007590:	fe042703          	lw	a4,-32(s0)
80007594:	a2e7a623          	sw	a4,-1492(a5) # 80016a2c <qscmp>
80007598:	800177b7          	lui	a5,0x80017
8000759c:	fe442703          	lw	a4,-28(s0)
800075a0:	a2e7a823          	sw	a4,-1488(a5) # 80016a30 <qses>
800075a4:	fe442703          	lw	a4,-28(s0)
800075a8:	fe842783          	lw	a5,-24(s0)
800075ac:	02f707b3          	mul	a5,a4,a5
800075b0:	fec42703          	lw	a4,-20(s0)
800075b4:	00f707b3          	add	a5,a4,a5
800075b8:	00078593          	mv	a1,a5
800075bc:	fec42503          	lw	a0,-20(s0)
800075c0:	018000ef          	jal	800075d8 <qs1>
800075c4:	00000013          	nop
800075c8:	01c12083          	lw	ra,28(sp)
800075cc:	01812403          	lw	s0,24(sp)
800075d0:	02010113          	addi	sp,sp,32
800075d4:	00008067          	ret

800075d8 <qs1>:
800075d8:	fc010113          	addi	sp,sp,-64
800075dc:	02112e23          	sw	ra,60(sp)
800075e0:	02812c23          	sw	s0,56(sp)
800075e4:	02912a23          	sw	s1,52(sp)
800075e8:	03212823          	sw	s2,48(sp)
800075ec:	03312623          	sw	s3,44(sp)
800075f0:	04010413          	addi	s0,sp,64
800075f4:	fca42623          	sw	a0,-52(s0)
800075f8:	fcb42423          	sw	a1,-56(s0)
800075fc:	800177b7          	lui	a5,0x80017
80007600:	a307a983          	lw	s3,-1488(a5) # 80016a30 <qses>
80007604:	fc842703          	lw	a4,-56(s0)
80007608:	fcc42783          	lw	a5,-52(s0)
8000760c:	40f707b3          	sub	a5,a4,a5
80007610:	fcf42a23          	sw	a5,-44(s0)
80007614:	00098713          	mv	a4,s3
80007618:	fd442783          	lw	a5,-44(s0)
8000761c:	20f77e63          	bgeu	a4,a5,80007838 <qs1+0x260>
80007620:	00199793          	slli	a5,s3,0x1
80007624:	00078713          	mv	a4,a5
80007628:	fd442783          	lw	a5,-44(s0)
8000762c:	02e7d7b3          	divu	a5,a5,a4
80007630:	00098713          	mv	a4,s3
80007634:	02e787b3          	mul	a5,a5,a4
80007638:	fcf42a23          	sw	a5,-44(s0)
8000763c:	fcc42703          	lw	a4,-52(s0)
80007640:	fd442783          	lw	a5,-44(s0)
80007644:	00f707b3          	add	a5,a4,a5
80007648:	fcf42e23          	sw	a5,-36(s0)
8000764c:	fdc42783          	lw	a5,-36(s0)
80007650:	fcf42c23          	sw	a5,-40(s0)
80007654:	fcc42483          	lw	s1,-52(s0)
80007658:	00098793          	mv	a5,s3
8000765c:	40f007b3          	neg	a5,a5
80007660:	fc842703          	lw	a4,-56(s0)
80007664:	00f70933          	add	s2,a4,a5
80007668:	fdc42783          	lw	a5,-36(s0)
8000766c:	04f4fe63          	bgeu	s1,a5,800076c8 <qs1+0xf0>
80007670:	800177b7          	lui	a5,0x80017
80007674:	a2c7a783          	lw	a5,-1492(a5) # 80016a2c <qscmp>
80007678:	fdc42583          	lw	a1,-36(s0)
8000767c:	00048513          	mv	a0,s1
80007680:	000780e7          	jalr	a5
80007684:	fca42823          	sw	a0,-48(s0)
80007688:	fd042783          	lw	a5,-48(s0)
8000768c:	02079463          	bnez	a5,800076b4 <qs1+0xdc>
80007690:	00098793          	mv	a5,s3
80007694:	40f007b3          	neg	a5,a5
80007698:	fdc42703          	lw	a4,-36(s0)
8000769c:	00f707b3          	add	a5,a4,a5
800076a0:	fcf42e23          	sw	a5,-36(s0)
800076a4:	fdc42583          	lw	a1,-36(s0)
800076a8:	00048513          	mv	a0,s1
800076ac:	1ac000ef          	jal	80007858 <qsexc>
800076b0:	1840006f          	j	80007834 <qs1+0x25c>
800076b4:	fd042783          	lw	a5,-48(s0)
800076b8:	0007d863          	bgez	a5,800076c8 <qs1+0xf0>
800076bc:	00098793          	mv	a5,s3
800076c0:	00f484b3          	add	s1,s1,a5
800076c4:	1700006f          	j	80007834 <qs1+0x25c>
800076c8:	00000013          	nop
800076cc:	fd842783          	lw	a5,-40(s0)
800076d0:	0d27f063          	bgeu	a5,s2,80007790 <qs1+0x1b8>
800076d4:	800177b7          	lui	a5,0x80017
800076d8:	a2c7a783          	lw	a5,-1492(a5) # 80016a2c <qscmp>
800076dc:	00090593          	mv	a1,s2
800076e0:	fd842503          	lw	a0,-40(s0)
800076e4:	000780e7          	jalr	a5
800076e8:	fca42823          	sw	a0,-48(s0)
800076ec:	fd042783          	lw	a5,-48(s0)
800076f0:	02079263          	bnez	a5,80007714 <qs1+0x13c>
800076f4:	00098713          	mv	a4,s3
800076f8:	fd842783          	lw	a5,-40(s0)
800076fc:	00e787b3          	add	a5,a5,a4
80007700:	fcf42c23          	sw	a5,-40(s0)
80007704:	00090593          	mv	a1,s2
80007708:	fd842503          	lw	a0,-40(s0)
8000770c:	14c000ef          	jal	80007858 <qsexc>
80007710:	fbdff06f          	j	800076cc <qs1+0xf4>
80007714:	fd042783          	lw	a5,-48(s0)
80007718:	06f05463          	blez	a5,80007780 <qs1+0x1a8>
8000771c:	fdc42783          	lw	a5,-36(s0)
80007720:	02f49e63          	bne	s1,a5,8000775c <qs1+0x184>
80007724:	00098713          	mv	a4,s3
80007728:	fd842783          	lw	a5,-40(s0)
8000772c:	00e787b3          	add	a5,a5,a4
80007730:	fcf42c23          	sw	a5,-40(s0)
80007734:	00090613          	mv	a2,s2
80007738:	fd842583          	lw	a1,-40(s0)
8000773c:	00048513          	mv	a0,s1
80007740:	1a0000ef          	jal	800078e0 <qstexc>
80007744:	00098713          	mv	a4,s3
80007748:	fdc42783          	lw	a5,-36(s0)
8000774c:	00e787b3          	add	a5,a5,a4
80007750:	fcf42e23          	sw	a5,-36(s0)
80007754:	fdc42483          	lw	s1,-36(s0)
80007758:	f75ff06f          	j	800076cc <qs1+0xf4>
8000775c:	00090593          	mv	a1,s2
80007760:	00048513          	mv	a0,s1
80007764:	0f4000ef          	jal	80007858 <qsexc>
80007768:	00098793          	mv	a5,s3
8000776c:	40f007b3          	neg	a5,a5
80007770:	00f90933          	add	s2,s2,a5
80007774:	00098793          	mv	a5,s3
80007778:	00f484b3          	add	s1,s1,a5
8000777c:	0b80006f          	j	80007834 <qs1+0x25c>
80007780:	00098793          	mv	a5,s3
80007784:	40f007b3          	neg	a5,a5
80007788:	00f90933          	add	s2,s2,a5
8000778c:	f41ff06f          	j	800076cc <qs1+0xf4>
80007790:	fdc42783          	lw	a5,-36(s0)
80007794:	06f49263          	bne	s1,a5,800077f8 <qs1+0x220>
80007798:	fdc42703          	lw	a4,-36(s0)
8000779c:	fcc42783          	lw	a5,-52(s0)
800077a0:	40f70733          	sub	a4,a4,a5
800077a4:	fc842683          	lw	a3,-56(s0)
800077a8:	fd842783          	lw	a5,-40(s0)
800077ac:	40f687b3          	sub	a5,a3,a5
800077b0:	02f74463          	blt	a4,a5,800077d8 <qs1+0x200>
800077b4:	00098713          	mv	a4,s3
800077b8:	fd842783          	lw	a5,-40(s0)
800077bc:	00e787b3          	add	a5,a5,a4
800077c0:	fc842583          	lw	a1,-56(s0)
800077c4:	00078513          	mv	a0,a5
800077c8:	e11ff0ef          	jal	800075d8 <qs1>
800077cc:	fdc42783          	lw	a5,-36(s0)
800077d0:	fcf42423          	sw	a5,-56(s0)
800077d4:	e31ff06f          	j	80007604 <qs1+0x2c>
800077d8:	fdc42583          	lw	a1,-36(s0)
800077dc:	fcc42503          	lw	a0,-52(s0)
800077e0:	df9ff0ef          	jal	800075d8 <qs1>
800077e4:	00098713          	mv	a4,s3
800077e8:	fd842783          	lw	a5,-40(s0)
800077ec:	00e787b3          	add	a5,a5,a4
800077f0:	fcf42623          	sw	a5,-52(s0)
800077f4:	e11ff06f          	j	80007604 <qs1+0x2c>
800077f8:	00098793          	mv	a5,s3
800077fc:	40f007b3          	neg	a5,a5
80007800:	fdc42703          	lw	a4,-36(s0)
80007804:	00f707b3          	add	a5,a4,a5
80007808:	fcf42e23          	sw	a5,-36(s0)
8000780c:	00048613          	mv	a2,s1
80007810:	fdc42583          	lw	a1,-36(s0)
80007814:	00090513          	mv	a0,s2
80007818:	0c8000ef          	jal	800078e0 <qstexc>
8000781c:	00098793          	mv	a5,s3
80007820:	40f007b3          	neg	a5,a5
80007824:	fd842703          	lw	a4,-40(s0)
80007828:	00f707b3          	add	a5,a4,a5
8000782c:	fcf42c23          	sw	a5,-40(s0)
80007830:	fd842903          	lw	s2,-40(s0)
80007834:	e35ff06f          	j	80007668 <qs1+0x90>
80007838:	00000013          	nop
8000783c:	03c12083          	lw	ra,60(sp)
80007840:	03812403          	lw	s0,56(sp)
80007844:	03412483          	lw	s1,52(sp)
80007848:	03012903          	lw	s2,48(sp)
8000784c:	02c12983          	lw	s3,44(sp)
80007850:	04010113          	addi	sp,sp,64
80007854:	00008067          	ret

80007858 <qsexc>:
80007858:	fd010113          	addi	sp,sp,-48
8000785c:	02812623          	sw	s0,44(sp)
80007860:	02912423          	sw	s1,40(sp)
80007864:	03212223          	sw	s2,36(sp)
80007868:	03312023          	sw	s3,32(sp)
8000786c:	03010413          	addi	s0,sp,48
80007870:	fca42e23          	sw	a0,-36(s0)
80007874:	fcb42c23          	sw	a1,-40(s0)
80007878:	800177b7          	lui	a5,0x80017
8000787c:	a307a783          	lw	a5,-1488(a5) # 80016a30 <qses>
80007880:	fef42623          	sw	a5,-20(s0)
80007884:	fdc42903          	lw	s2,-36(s0)
80007888:	fd842483          	lw	s1,-40(s0)
8000788c:	00094983          	lbu	s3,0(s2)
80007890:	00090793          	mv	a5,s2
80007894:	00178913          	addi	s2,a5,1
80007898:	0004c703          	lbu	a4,0(s1)
8000789c:	00e78023          	sb	a4,0(a5)
800078a0:	00048793          	mv	a5,s1
800078a4:	00178493          	addi	s1,a5,1
800078a8:	01378023          	sb	s3,0(a5)
800078ac:	fec42783          	lw	a5,-20(s0)
800078b0:	fff78793          	addi	a5,a5,-1
800078b4:	fef42623          	sw	a5,-20(s0)
800078b8:	fec42783          	lw	a5,-20(s0)
800078bc:	fc0798e3          	bnez	a5,8000788c <qsexc+0x34>
800078c0:	00000013          	nop
800078c4:	00000013          	nop
800078c8:	02c12403          	lw	s0,44(sp)
800078cc:	02812483          	lw	s1,40(sp)
800078d0:	02412903          	lw	s2,36(sp)
800078d4:	02012983          	lw	s3,32(sp)
800078d8:	03010113          	addi	sp,sp,48
800078dc:	00008067          	ret

800078e0 <qstexc>:
800078e0:	fd010113          	addi	sp,sp,-48
800078e4:	02812623          	sw	s0,44(sp)
800078e8:	02912423          	sw	s1,40(sp)
800078ec:	03212223          	sw	s2,36(sp)
800078f0:	03312023          	sw	s3,32(sp)
800078f4:	03010413          	addi	s0,sp,48
800078f8:	fca42e23          	sw	a0,-36(s0)
800078fc:	fcb42c23          	sw	a1,-40(s0)
80007900:	fcc42a23          	sw	a2,-44(s0)
80007904:	800177b7          	lui	a5,0x80017
80007908:	a307a783          	lw	a5,-1488(a5) # 80016a30 <qses>
8000790c:	fef42623          	sw	a5,-20(s0)
80007910:	fdc42983          	lw	s3,-36(s0)
80007914:	fd842483          	lw	s1,-40(s0)
80007918:	fd442903          	lw	s2,-44(s0)
8000791c:	0009c783          	lbu	a5,0(s3)
80007920:	fef42423          	sw	a5,-24(s0)
80007924:	00098793          	mv	a5,s3
80007928:	00178993          	addi	s3,a5,1
8000792c:	00094703          	lbu	a4,0(s2)
80007930:	00e78023          	sb	a4,0(a5)
80007934:	00090793          	mv	a5,s2
80007938:	00178913          	addi	s2,a5,1
8000793c:	0004c703          	lbu	a4,0(s1)
80007940:	00e78023          	sb	a4,0(a5)
80007944:	00048793          	mv	a5,s1
80007948:	00178493          	addi	s1,a5,1
8000794c:	fe842703          	lw	a4,-24(s0)
80007950:	0ff77713          	zext.b	a4,a4
80007954:	00e78023          	sb	a4,0(a5)
80007958:	fec42783          	lw	a5,-20(s0)
8000795c:	fff78793          	addi	a5,a5,-1
80007960:	fef42623          	sw	a5,-20(s0)
80007964:	fec42783          	lw	a5,-20(s0)
80007968:	fa079ae3          	bnez	a5,8000791c <qstexc+0x3c>
8000796c:	00000013          	nop
80007970:	00000013          	nop
80007974:	02c12403          	lw	s0,44(sp)
80007978:	02812483          	lw	s1,40(sp)
8000797c:	02412903          	lw	s2,36(sp)
80007980:	02012983          	lw	s3,32(sp)
80007984:	03010113          	addi	sp,sp,48
80007988:	00008067          	ret

8000798c <rand>:
8000798c:	ff010113          	addi	sp,sp,-16
80007990:	00112623          	sw	ra,12(sp)
80007994:	00812423          	sw	s0,8(sp)
80007998:	01010413          	addi	s0,sp,16
8000799c:	800177b7          	lui	a5,0x80017
800079a0:	9ac78513          	addi	a0,a5,-1620 # 800169ac <rand_seed>
800079a4:	01c000ef          	jal	800079c0 <rand_r>
800079a8:	00050793          	mv	a5,a0
800079ac:	00078513          	mv	a0,a5
800079b0:	00c12083          	lw	ra,12(sp)
800079b4:	00812403          	lw	s0,8(sp)
800079b8:	01010113          	addi	sp,sp,16
800079bc:	00008067          	ret

800079c0 <rand_r>:
800079c0:	fe010113          	addi	sp,sp,-32
800079c4:	00812e23          	sw	s0,28(sp)
800079c8:	02010413          	addi	s0,sp,32
800079cc:	fea42623          	sw	a0,-20(s0)
800079d0:	fec42783          	lw	a5,-20(s0)
800079d4:	0007a703          	lw	a4,0(a5)
800079d8:	000047b7          	lui	a5,0x4
800079dc:	1a778793          	addi	a5,a5,423 # 41a7 <_start-0x7fffbe59>
800079e0:	02f70733          	mul	a4,a4,a5
800079e4:	800007b7          	lui	a5,0x80000
800079e8:	ffe78793          	addi	a5,a5,-2 # 7ffffffe <_start-0x2>
800079ec:	02f77733          	remu	a4,a4,a5
800079f0:	fec42783          	lw	a5,-20(s0)
800079f4:	00e7a023          	sw	a4,0(a5)
800079f8:	fec42783          	lw	a5,-20(s0)
800079fc:	0007a783          	lw	a5,0(a5)
80007a00:	00078513          	mv	a0,a5
80007a04:	01c12403          	lw	s0,28(sp)
80007a08:	02010113          	addi	sp,sp,32
80007a0c:	00008067          	ret

80007a10 <srand>:
80007a10:	fe010113          	addi	sp,sp,-32
80007a14:	00812e23          	sw	s0,28(sp)
80007a18:	02010413          	addi	s0,sp,32
80007a1c:	fea42623          	sw	a0,-20(s0)
80007a20:	800177b7          	lui	a5,0x80017
80007a24:	fec42703          	lw	a4,-20(s0)
80007a28:	9ae7a623          	sw	a4,-1620(a5) # 800169ac <rand_seed>
80007a2c:	00000013          	nop
80007a30:	01c12403          	lw	s0,28(sp)
80007a34:	02010113          	addi	sp,sp,32
80007a38:	00008067          	ret

80007a3c <sprintf>:
80007a3c:	fb010113          	addi	sp,sp,-80
80007a40:	02112623          	sw	ra,44(sp)
80007a44:	02812423          	sw	s0,40(sp)
80007a48:	03010413          	addi	s0,sp,48
80007a4c:	fca42e23          	sw	a0,-36(s0)
80007a50:	fcb42c23          	sw	a1,-40(s0)
80007a54:	00c42423          	sw	a2,8(s0)
80007a58:	00d42623          	sw	a3,12(s0)
80007a5c:	00e42823          	sw	a4,16(s0)
80007a60:	00f42a23          	sw	a5,20(s0)
80007a64:	01042c23          	sw	a6,24(s0)
80007a68:	01142e23          	sw	a7,28(s0)
80007a6c:	fdc42783          	lw	a5,-36(s0)
80007a70:	fef42423          	sw	a5,-24(s0)
80007a74:	02040793          	addi	a5,s0,32
80007a78:	fcf42a23          	sw	a5,-44(s0)
80007a7c:	fd442783          	lw	a5,-44(s0)
80007a80:	fe878793          	addi	a5,a5,-24
80007a84:	fef42623          	sw	a5,-20(s0)
80007a88:	fec42703          	lw	a4,-20(s0)
80007a8c:	fe840793          	addi	a5,s0,-24
80007a90:	00078693          	mv	a3,a5
80007a94:	800087b7          	lui	a5,0x80008
80007a98:	ad078613          	addi	a2,a5,-1328 # 80007ad0 <sprntf>
80007a9c:	00070593          	mv	a1,a4
80007aa0:	fd842503          	lw	a0,-40(s0)
80007aa4:	c5cfc0ef          	jal	80003f00 <_fdoprnt>
80007aa8:	fe842783          	lw	a5,-24(s0)
80007aac:	00178713          	addi	a4,a5,1
80007ab0:	fee42423          	sw	a4,-24(s0)
80007ab4:	00078023          	sb	zero,0(a5)
80007ab8:	fdc42783          	lw	a5,-36(s0)
80007abc:	00078513          	mv	a0,a5
80007ac0:	02c12083          	lw	ra,44(sp)
80007ac4:	02812403          	lw	s0,40(sp)
80007ac8:	05010113          	addi	sp,sp,80
80007acc:	00008067          	ret

80007ad0 <sprntf>:
80007ad0:	fd010113          	addi	sp,sp,-48
80007ad4:	02812623          	sw	s0,44(sp)
80007ad8:	03010413          	addi	s0,sp,48
80007adc:	fca42e23          	sw	a0,-36(s0)
80007ae0:	fcb42c23          	sw	a1,-40(s0)
80007ae4:	fdc42783          	lw	a5,-36(s0)
80007ae8:	fef42623          	sw	a5,-20(s0)
80007aec:	fd842783          	lw	a5,-40(s0)
80007af0:	fef405a3          	sb	a5,-21(s0)
80007af4:	fec42783          	lw	a5,-20(s0)
80007af8:	0007a783          	lw	a5,0(a5)
80007afc:	00178693          	addi	a3,a5,1
80007b00:	fec42703          	lw	a4,-20(s0)
80007b04:	00d72023          	sw	a3,0(a4)
80007b08:	feb44703          	lbu	a4,-21(s0)
80007b0c:	00e78023          	sb	a4,0(a5)
80007b10:	0007c783          	lbu	a5,0(a5)
80007b14:	00078513          	mv	a0,a5
80007b18:	02c12403          	lw	s0,44(sp)
80007b1c:	03010113          	addi	sp,sp,48
80007b20:	00008067          	ret

80007b24 <labs>:
80007b24:	fe010113          	addi	sp,sp,-32
80007b28:	00812e23          	sw	s0,28(sp)
80007b2c:	02010413          	addi	s0,sp,32
80007b30:	fea42623          	sw	a0,-20(s0)
80007b34:	fec42783          	lw	a5,-20(s0)
80007b38:	0007d863          	bgez	a5,80007b48 <labs+0x24>
80007b3c:	fec42783          	lw	a5,-20(s0)
80007b40:	40f007b3          	neg	a5,a5
80007b44:	fef42623          	sw	a5,-20(s0)
80007b48:	fec42783          	lw	a5,-20(s0)
80007b4c:	00078513          	mv	a0,a5
80007b50:	01c12403          	lw	s0,28(sp)
80007b54:	02010113          	addi	sp,sp,32
80007b58:	00008067          	ret

80007b5c <abs>:
80007b5c:	fe010113          	addi	sp,sp,-32
80007b60:	00812e23          	sw	s0,28(sp)
80007b64:	02010413          	addi	s0,sp,32
80007b68:	fea42623          	sw	a0,-20(s0)
80007b6c:	fec42783          	lw	a5,-20(s0)
80007b70:	41f7d713          	srai	a4,a5,0x1f
80007b74:	fec42783          	lw	a5,-20(s0)
80007b78:	00f747b3          	xor	a5,a4,a5
80007b7c:	40e787b3          	sub	a5,a5,a4
80007b80:	00078513          	mv	a0,a5
80007b84:	01c12403          	lw	s0,28(sp)
80007b88:	02010113          	addi	sp,sp,32
80007b8c:	00008067          	ret

80007b90 <strndup>:
80007b90:	fd010113          	addi	sp,sp,-48
80007b94:	02112623          	sw	ra,44(sp)
80007b98:	02812423          	sw	s0,40(sp)
80007b9c:	03010413          	addi	s0,sp,48
80007ba0:	fca42e23          	sw	a0,-36(s0)
80007ba4:	fcb42c23          	sw	a1,-40(s0)
80007ba8:	fd842583          	lw	a1,-40(s0)
80007bac:	fdc42503          	lw	a0,-36(s0)
80007bb0:	789000ef          	jal	80008b38 <strnlen>
80007bb4:	fea42623          	sw	a0,-20(s0)
80007bb8:	fec42783          	lw	a5,-20(s0)
80007bbc:	00178793          	addi	a5,a5,1
80007bc0:	00078513          	mv	a0,a5
80007bc4:	d44fd0ef          	jal	80005108 <malloc>
80007bc8:	fea42423          	sw	a0,-24(s0)
80007bcc:	fe842783          	lw	a5,-24(s0)
80007bd0:	00079663          	bnez	a5,80007bdc <strndup+0x4c>
80007bd4:	00000793          	li	a5,0
80007bd8:	0280006f          	j	80007c00 <strndup+0x70>
80007bdc:	fec42603          	lw	a2,-20(s0)
80007be0:	fdc42583          	lw	a1,-36(s0)
80007be4:	fe842503          	lw	a0,-24(s0)
80007be8:	2f9000ef          	jal	800086e0 <strncpy>
80007bec:	fec42783          	lw	a5,-20(s0)
80007bf0:	fe842703          	lw	a4,-24(s0)
80007bf4:	00f707b3          	add	a5,a4,a5
80007bf8:	00078023          	sb	zero,0(a5)
80007bfc:	fe842783          	lw	a5,-24(s0)
80007c00:	00078513          	mv	a0,a5
80007c04:	02c12083          	lw	ra,44(sp)
80007c08:	02812403          	lw	s0,40(sp)
80007c0c:	03010113          	addi	sp,sp,48
80007c10:	00008067          	ret

80007c14 <strdup>:
80007c14:	fe010113          	addi	sp,sp,-32
80007c18:	00112e23          	sw	ra,28(sp)
80007c1c:	00812c23          	sw	s0,24(sp)
80007c20:	02010413          	addi	s0,sp,32
80007c24:	fea42623          	sw	a0,-20(s0)
80007c28:	fec42503          	lw	a0,-20(s0)
80007c2c:	049000ef          	jal	80008474 <strlen>
80007c30:	00050793          	mv	a5,a0
80007c34:	00078593          	mv	a1,a5
80007c38:	fec42503          	lw	a0,-20(s0)
80007c3c:	f55ff0ef          	jal	80007b90 <strndup>
80007c40:	00050793          	mv	a5,a0
80007c44:	00078513          	mv	a0,a5
80007c48:	01c12083          	lw	ra,28(sp)
80007c4c:	01812403          	lw	s0,24(sp)
80007c50:	02010113          	addi	sp,sp,32
80007c54:	00008067          	ret

80007c58 <atol>:
80007c58:	fd010113          	addi	sp,sp,-48
80007c5c:	02812623          	sw	s0,44(sp)
80007c60:	03010413          	addi	s0,sp,48
80007c64:	fca42e23          	sw	a0,-36(s0)
80007c68:	fe042623          	sw	zero,-20(s0)
80007c6c:	fe042423          	sw	zero,-24(s0)
80007c70:	fdc42783          	lw	a5,-36(s0)
80007c74:	0007c783          	lbu	a5,0(a5)
80007c78:	02d00713          	li	a4,45
80007c7c:	02e78863          	beq	a5,a4,80007cac <atol+0x54>
80007c80:	02d00713          	li	a4,45
80007c84:	04f74c63          	blt	a4,a5,80007cdc <atol+0x84>
80007c88:	02b00713          	li	a4,43
80007c8c:	02e78663          	beq	a5,a4,80007cb8 <atol+0x60>
80007c90:	02b00713          	li	a4,43
80007c94:	04f74463          	blt	a4,a5,80007cdc <atol+0x84>
80007c98:	00900713          	li	a4,9
80007c9c:	02e78663          	beq	a5,a4,80007cc8 <atol+0x70>
80007ca0:	02000713          	li	a4,32
80007ca4:	02e79c63          	bne	a5,a4,80007cdc <atol+0x84>
80007ca8:	0200006f          	j	80007cc8 <atol+0x70>
80007cac:	fe842783          	lw	a5,-24(s0)
80007cb0:	00178793          	addi	a5,a5,1
80007cb4:	fef42423          	sw	a5,-24(s0)
80007cb8:	fdc42783          	lw	a5,-36(s0)
80007cbc:	00178793          	addi	a5,a5,1
80007cc0:	fcf42e23          	sw	a5,-36(s0)
80007cc4:	0180006f          	j	80007cdc <atol+0x84>
80007cc8:	00000013          	nop
80007ccc:	fdc42783          	lw	a5,-36(s0)
80007cd0:	00178793          	addi	a5,a5,1
80007cd4:	fcf42e23          	sw	a5,-36(s0)
80007cd8:	f99ff06f          	j	80007c70 <atol+0x18>
80007cdc:	00000013          	nop
80007ce0:	0380006f          	j	80007d18 <atol+0xc0>
80007ce4:	fec42703          	lw	a4,-20(s0)
80007ce8:	00070793          	mv	a5,a4
80007cec:	00279793          	slli	a5,a5,0x2
80007cf0:	00e787b3          	add	a5,a5,a4
80007cf4:	00179793          	slli	a5,a5,0x1
80007cf8:	00078693          	mv	a3,a5
80007cfc:	fdc42783          	lw	a5,-36(s0)
80007d00:	00178713          	addi	a4,a5,1
80007d04:	fce42e23          	sw	a4,-36(s0)
80007d08:	0007c783          	lbu	a5,0(a5)
80007d0c:	00f687b3          	add	a5,a3,a5
80007d10:	fd078793          	addi	a5,a5,-48
80007d14:	fef42623          	sw	a5,-20(s0)
80007d18:	fdc42783          	lw	a5,-36(s0)
80007d1c:	0007c703          	lbu	a4,0(a5)
80007d20:	02f00793          	li	a5,47
80007d24:	00e7fa63          	bgeu	a5,a4,80007d38 <atol+0xe0>
80007d28:	fdc42783          	lw	a5,-36(s0)
80007d2c:	0007c703          	lbu	a4,0(a5)
80007d30:	03900793          	li	a5,57
80007d34:	fae7f8e3          	bgeu	a5,a4,80007ce4 <atol+0x8c>
80007d38:	fe842783          	lw	a5,-24(s0)
80007d3c:	00078863          	beqz	a5,80007d4c <atol+0xf4>
80007d40:	fec42783          	lw	a5,-20(s0)
80007d44:	40f007b3          	neg	a5,a5
80007d48:	0080006f          	j	80007d50 <atol+0xf8>
80007d4c:	fec42783          	lw	a5,-20(s0)
80007d50:	00078513          	mv	a0,a5
80007d54:	02c12403          	lw	s0,44(sp)
80007d58:	03010113          	addi	sp,sp,48
80007d5c:	00008067          	ret

80007d60 <atoi>:
80007d60:	fd010113          	addi	sp,sp,-48
80007d64:	02112623          	sw	ra,44(sp)
80007d68:	02812423          	sw	s0,40(sp)
80007d6c:	03010413          	addi	s0,sp,48
80007d70:	fca42e23          	sw	a0,-36(s0)
80007d74:	fe042623          	sw	zero,-20(s0)
80007d78:	fe042423          	sw	zero,-24(s0)
80007d7c:	fe042223          	sw	zero,-28(s0)
80007d80:	0100006f          	j	80007d90 <atoi+0x30>
80007d84:	fe442783          	lw	a5,-28(s0)
80007d88:	00178793          	addi	a5,a5,1
80007d8c:	fef42223          	sw	a5,-28(s0)
80007d90:	fe442783          	lw	a5,-28(s0)
80007d94:	fdc42703          	lw	a4,-36(s0)
80007d98:	00f707b3          	add	a5,a4,a5
80007d9c:	0007c703          	lbu	a4,0(a5)
80007da0:	800147b7          	lui	a5,0x80014
80007da4:	fcc78593          	addi	a1,a5,-52 # 80013fcc <r+0xa8>
80007da8:	00070513          	mv	a0,a4
80007dac:	1cd000ef          	jal	80008778 <chrnlst>
80007db0:	00050793          	mv	a5,a0
80007db4:	fc0798e3          	bnez	a5,80007d84 <atoi+0x24>
80007db8:	fe442783          	lw	a5,-28(s0)
80007dbc:	fdc42703          	lw	a4,-36(s0)
80007dc0:	00f707b3          	add	a5,a4,a5
80007dc4:	0007c703          	lbu	a4,0(a5)
80007dc8:	02d00793          	li	a5,45
80007dcc:	00f71e63          	bne	a4,a5,80007de8 <atoi+0x88>
80007dd0:	00100793          	li	a5,1
80007dd4:	fef42423          	sw	a5,-24(s0)
80007dd8:	fe442783          	lw	a5,-28(s0)
80007ddc:	00178793          	addi	a5,a5,1
80007de0:	fef42223          	sw	a5,-28(s0)
80007de4:	0700006f          	j	80007e54 <atoi+0xf4>
80007de8:	fe442783          	lw	a5,-28(s0)
80007dec:	fdc42703          	lw	a4,-36(s0)
80007df0:	00f707b3          	add	a5,a4,a5
80007df4:	0007c703          	lbu	a4,0(a5)
80007df8:	02b00793          	li	a5,43
80007dfc:	04f71c63          	bne	a4,a5,80007e54 <atoi+0xf4>
80007e00:	fe442783          	lw	a5,-28(s0)
80007e04:	00178793          	addi	a5,a5,1
80007e08:	fef42223          	sw	a5,-28(s0)
80007e0c:	0480006f          	j	80007e54 <atoi+0xf4>
80007e10:	fec42703          	lw	a4,-20(s0)
80007e14:	00070793          	mv	a5,a4
80007e18:	00279793          	slli	a5,a5,0x2
80007e1c:	00e787b3          	add	a5,a5,a4
80007e20:	00179793          	slli	a5,a5,0x1
80007e24:	fef42623          	sw	a5,-20(s0)
80007e28:	fe442783          	lw	a5,-28(s0)
80007e2c:	fdc42703          	lw	a4,-36(s0)
80007e30:	00f707b3          	add	a5,a4,a5
80007e34:	0007c783          	lbu	a5,0(a5)
80007e38:	fd078793          	addi	a5,a5,-48
80007e3c:	fec42703          	lw	a4,-20(s0)
80007e40:	00f707b3          	add	a5,a4,a5
80007e44:	fef42623          	sw	a5,-20(s0)
80007e48:	fe442783          	lw	a5,-28(s0)
80007e4c:	00178793          	addi	a5,a5,1
80007e50:	fef42223          	sw	a5,-28(s0)
80007e54:	fe442783          	lw	a5,-28(s0)
80007e58:	fdc42703          	lw	a4,-36(s0)
80007e5c:	00f707b3          	add	a5,a4,a5
80007e60:	0007c703          	lbu	a4,0(a5)
80007e64:	02f00793          	li	a5,47
80007e68:	00e7fe63          	bgeu	a5,a4,80007e84 <atoi+0x124>
80007e6c:	fe442783          	lw	a5,-28(s0)
80007e70:	fdc42703          	lw	a4,-36(s0)
80007e74:	00f707b3          	add	a5,a4,a5
80007e78:	0007c703          	lbu	a4,0(a5)
80007e7c:	03900793          	li	a5,57
80007e80:	f8e7f8e3          	bgeu	a5,a4,80007e10 <atoi+0xb0>
80007e84:	fe842783          	lw	a5,-24(s0)
80007e88:	00078663          	beqz	a5,80007e94 <atoi+0x134>
80007e8c:	fff00793          	li	a5,-1
80007e90:	0080006f          	j	80007e98 <atoi+0x138>
80007e94:	00100793          	li	a5,1
80007e98:	fec42703          	lw	a4,-20(s0)
80007e9c:	02e787b3          	mul	a5,a5,a4
80007ea0:	00078513          	mv	a0,a5
80007ea4:	02c12083          	lw	ra,44(sp)
80007ea8:	02812403          	lw	s0,40(sp)
80007eac:	03010113          	addi	sp,sp,48
80007eb0:	00008067          	ret

80007eb4 <int_abs>:
80007eb4:	fe010113          	addi	sp,sp,-32
80007eb8:	00812e23          	sw	s0,28(sp)
80007ebc:	02010413          	addi	s0,sp,32
80007ec0:	fea42623          	sw	a0,-20(s0)
80007ec4:	fec42783          	lw	a5,-20(s0)
80007ec8:	00f05663          	blez	a5,80007ed4 <int_abs+0x20>
80007ecc:	fec42783          	lw	a5,-20(s0)
80007ed0:	00c0006f          	j	80007edc <int_abs+0x28>
80007ed4:	fec42783          	lw	a5,-20(s0)
80007ed8:	40f007b3          	neg	a5,a5
80007edc:	00078513          	mv	a0,a5
80007ee0:	01c12403          	lw	s0,28(sp)
80007ee4:	02010113          	addi	sp,sp,32
80007ee8:	00008067          	ret

80007eec <itoa>:
80007eec:	fd010113          	addi	sp,sp,-48
80007ef0:	02112623          	sw	ra,44(sp)
80007ef4:	02812423          	sw	s0,40(sp)
80007ef8:	03010413          	addi	s0,sp,48
80007efc:	fca42e23          	sw	a0,-36(s0)
80007f00:	fcb42c23          	sw	a1,-40(s0)
80007f04:	fcc42a23          	sw	a2,-44(s0)
80007f08:	fcd42823          	sw	a3,-48(s0)
80007f0c:	fe042623          	sw	zero,-20(s0)
80007f10:	fd442783          	lw	a5,-44(s0)
80007f14:	00079663          	bnez	a5,80007f20 <itoa+0x34>
80007f18:	00000793          	li	a5,0
80007f1c:	08c0006f          	j	80007fa8 <itoa+0xbc>
80007f20:	fd042703          	lw	a4,-48(s0)
80007f24:	00100793          	li	a5,1
80007f28:	00e7f863          	bgeu	a5,a4,80007f38 <itoa+0x4c>
80007f2c:	fd042703          	lw	a4,-48(s0)
80007f30:	02400793          	li	a5,36
80007f34:	00e7f663          	bgeu	a5,a4,80007f40 <itoa+0x54>
80007f38:	00000793          	li	a5,0
80007f3c:	06c0006f          	j	80007fa8 <itoa+0xbc>
80007f40:	fdc42783          	lw	a5,-36(s0)
80007f44:	0207d863          	bgez	a5,80007f74 <itoa+0x88>
80007f48:	fec42783          	lw	a5,-20(s0)
80007f4c:	00178713          	addi	a4,a5,1
80007f50:	fee42623          	sw	a4,-20(s0)
80007f54:	00078713          	mv	a4,a5
80007f58:	fd842783          	lw	a5,-40(s0)
80007f5c:	00e787b3          	add	a5,a5,a4
80007f60:	02d00713          	li	a4,45
80007f64:	00e78023          	sb	a4,0(a5)
80007f68:	fd442783          	lw	a5,-44(s0)
80007f6c:	fff78793          	addi	a5,a5,-1
80007f70:	fcf42a23          	sw	a5,-44(s0)
80007f74:	fdc42503          	lw	a0,-36(s0)
80007f78:	f3dff0ef          	jal	80007eb4 <int_abs>
80007f7c:	00050793          	mv	a5,a0
80007f80:	fcf42e23          	sw	a5,-36(s0)
80007f84:	fdc42503          	lw	a0,-36(s0)
80007f88:	fec42783          	lw	a5,-20(s0)
80007f8c:	fd842703          	lw	a4,-40(s0)
80007f90:	00f707b3          	add	a5,a4,a5
80007f94:	fd042683          	lw	a3,-48(s0)
80007f98:	fd442603          	lw	a2,-44(s0)
80007f9c:	00078593          	mv	a1,a5
80007fa0:	01c000ef          	jal	80007fbc <uitoa>
80007fa4:	00050793          	mv	a5,a0
80007fa8:	00078513          	mv	a0,a5
80007fac:	02c12083          	lw	ra,44(sp)
80007fb0:	02812403          	lw	s0,40(sp)
80007fb4:	03010113          	addi	sp,sp,48
80007fb8:	00008067          	ret

80007fbc <uitoa>:
80007fbc:	fb010113          	addi	sp,sp,-80
80007fc0:	04112623          	sw	ra,76(sp)
80007fc4:	04812423          	sw	s0,72(sp)
80007fc8:	05010413          	addi	s0,sp,80
80007fcc:	faa42e23          	sw	a0,-68(s0)
80007fd0:	fab42c23          	sw	a1,-72(s0)
80007fd4:	fac42a23          	sw	a2,-76(s0)
80007fd8:	fad42823          	sw	a3,-80(s0)
80007fdc:	800147b7          	lui	a5,0x80014
80007fe0:	fd478793          	addi	a5,a5,-44 # 80013fd4 <r+0xb0>
80007fe4:	0007a303          	lw	t1,0(a5)
80007fe8:	0047a883          	lw	a7,4(a5)
80007fec:	0087a803          	lw	a6,8(a5)
80007ff0:	00c7a503          	lw	a0,12(a5)
80007ff4:	0107a583          	lw	a1,16(a5)
80007ff8:	0147a603          	lw	a2,20(a5)
80007ffc:	0187a683          	lw	a3,24(a5)
80008000:	01c7a703          	lw	a4,28(a5)
80008004:	0207a783          	lw	a5,32(a5)
80008008:	fc642423          	sw	t1,-56(s0)
8000800c:	fd142623          	sw	a7,-52(s0)
80008010:	fd042823          	sw	a6,-48(s0)
80008014:	fca42a23          	sw	a0,-44(s0)
80008018:	fcb42c23          	sw	a1,-40(s0)
8000801c:	fcc42e23          	sw	a2,-36(s0)
80008020:	fed42023          	sw	a3,-32(s0)
80008024:	fee42223          	sw	a4,-28(s0)
80008028:	fef42423          	sw	a5,-24(s0)
8000802c:	fe042623          	sw	zero,-20(s0)
80008030:	fb442783          	lw	a5,-76(s0)
80008034:	00079663          	bnez	a5,80008040 <uitoa+0x84>
80008038:	00000793          	li	a5,0
8000803c:	0b00006f          	j	800080ec <uitoa+0x130>
80008040:	fb042703          	lw	a4,-80(s0)
80008044:	00100793          	li	a5,1
80008048:	00e7f863          	bgeu	a5,a4,80008058 <uitoa+0x9c>
8000804c:	fb042703          	lw	a4,-80(s0)
80008050:	02400793          	li	a5,36
80008054:	00e7f663          	bgeu	a5,a4,80008060 <uitoa+0xa4>
80008058:	00000793          	li	a5,0
8000805c:	0900006f          	j	800080ec <uitoa+0x130>
80008060:	fbc42703          	lw	a4,-68(s0)
80008064:	fb042783          	lw	a5,-80(s0)
80008068:	02f77733          	remu	a4,a4,a5
8000806c:	fec42783          	lw	a5,-20(s0)
80008070:	00178693          	addi	a3,a5,1
80008074:	fed42623          	sw	a3,-20(s0)
80008078:	00078693          	mv	a3,a5
8000807c:	fb842783          	lw	a5,-72(s0)
80008080:	00d787b3          	add	a5,a5,a3
80008084:	ff070713          	addi	a4,a4,-16
80008088:	00870733          	add	a4,a4,s0
8000808c:	fd874703          	lbu	a4,-40(a4)
80008090:	00e78023          	sb	a4,0(a5)
80008094:	fb442783          	lw	a5,-76(s0)
80008098:	fff78793          	addi	a5,a5,-1
8000809c:	faf42a23          	sw	a5,-76(s0)
800080a0:	fb442783          	lw	a5,-76(s0)
800080a4:	00078e63          	beqz	a5,800080c0 <uitoa+0x104>
800080a8:	fbc42703          	lw	a4,-68(s0)
800080ac:	fb042783          	lw	a5,-80(s0)
800080b0:	02f757b3          	divu	a5,a4,a5
800080b4:	faf42e23          	sw	a5,-68(s0)
800080b8:	fbc42783          	lw	a5,-68(s0)
800080bc:	fa0792e3          	bnez	a5,80008060 <uitoa+0xa4>
800080c0:	fb442783          	lw	a5,-76(s0)
800080c4:	00079663          	bnez	a5,800080d0 <uitoa+0x114>
800080c8:	00000793          	li	a5,0
800080cc:	0200006f          	j	800080ec <uitoa+0x130>
800080d0:	fec42783          	lw	a5,-20(s0)
800080d4:	fb842703          	lw	a4,-72(s0)
800080d8:	00f707b3          	add	a5,a4,a5
800080dc:	00078023          	sb	zero,0(a5)
800080e0:	fb842503          	lw	a0,-72(s0)
800080e4:	3dc000ef          	jal	800084c0 <strreverse>
800080e8:	fb842783          	lw	a5,-72(s0)
800080ec:	00078513          	mv	a0,a5
800080f0:	04c12083          	lw	ra,76(sp)
800080f4:	04812403          	lw	s0,72(sp)
800080f8:	05010113          	addi	sp,sp,80
800080fc:	00008067          	ret

80008100 <bzero>:
80008100:	fd010113          	addi	sp,sp,-48
80008104:	02812623          	sw	s0,44(sp)
80008108:	03010413          	addi	s0,sp,48
8000810c:	fca42e23          	sw	a0,-36(s0)
80008110:	fcb42c23          	sw	a1,-40(s0)
80008114:	fdc42783          	lw	a5,-36(s0)
80008118:	fef42423          	sw	a5,-24(s0)
8000811c:	fd842783          	lw	a5,-40(s0)
80008120:	fef42623          	sw	a5,-20(s0)
80008124:	fec42783          	lw	a5,-20(s0)
80008128:	02f05663          	blez	a5,80008154 <bzero+0x54>
8000812c:	fe842783          	lw	a5,-24(s0)
80008130:	00178713          	addi	a4,a5,1
80008134:	fee42423          	sw	a4,-24(s0)
80008138:	00078023          	sb	zero,0(a5)
8000813c:	fec42783          	lw	a5,-20(s0)
80008140:	fff78793          	addi	a5,a5,-1
80008144:	fef42623          	sw	a5,-20(s0)
80008148:	fec42783          	lw	a5,-20(s0)
8000814c:	fe0790e3          	bnez	a5,8000812c <bzero+0x2c>
80008150:	0080006f          	j	80008158 <bzero+0x58>
80008154:	00000013          	nop
80008158:	02c12403          	lw	s0,44(sp)
8000815c:	03010113          	addi	sp,sp,48
80008160:	00008067          	ret

80008164 <memchr>:
80008164:	fd010113          	addi	sp,sp,-48
80008168:	02812623          	sw	s0,44(sp)
8000816c:	03010413          	addi	s0,sp,48
80008170:	fca42e23          	sw	a0,-36(s0)
80008174:	fcb42c23          	sw	a1,-40(s0)
80008178:	fcc42a23          	sw	a2,-44(s0)
8000817c:	fdc42783          	lw	a5,-36(s0)
80008180:	fef42623          	sw	a5,-20(s0)
80008184:	02c0006f          	j	800081b0 <memchr+0x4c>
80008188:	fec42783          	lw	a5,-20(s0)
8000818c:	0007c783          	lbu	a5,0(a5)
80008190:	00078713          	mv	a4,a5
80008194:	fd842783          	lw	a5,-40(s0)
80008198:	00e79663          	bne	a5,a4,800081a4 <memchr+0x40>
8000819c:	fec42783          	lw	a5,-20(s0)
800081a0:	0240006f          	j	800081c4 <memchr+0x60>
800081a4:	fec42783          	lw	a5,-20(s0)
800081a8:	00178793          	addi	a5,a5,1
800081ac:	fef42623          	sw	a5,-20(s0)
800081b0:	fd442783          	lw	a5,-44(s0)
800081b4:	fff78713          	addi	a4,a5,-1
800081b8:	fce42a23          	sw	a4,-44(s0)
800081bc:	fc0796e3          	bnez	a5,80008188 <memchr+0x24>
800081c0:	00000793          	li	a5,0
800081c4:	00078513          	mv	a0,a5
800081c8:	02c12403          	lw	s0,44(sp)
800081cc:	03010113          	addi	sp,sp,48
800081d0:	00008067          	ret

800081d4 <memcmp>:
800081d4:	fd010113          	addi	sp,sp,-48
800081d8:	02812623          	sw	s0,44(sp)
800081dc:	03010413          	addi	s0,sp,48
800081e0:	fca42e23          	sw	a0,-36(s0)
800081e4:	fcb42c23          	sw	a1,-40(s0)
800081e8:	fcc42a23          	sw	a2,-44(s0)
800081ec:	fdc42783          	lw	a5,-36(s0)
800081f0:	fef42623          	sw	a5,-20(s0)
800081f4:	fd842783          	lw	a5,-40(s0)
800081f8:	fef42423          	sw	a5,-24(s0)
800081fc:	0540006f          	j	80008250 <memcmp+0x7c>
80008200:	fec42783          	lw	a5,-20(s0)
80008204:	0007c703          	lbu	a4,0(a5)
80008208:	fe842783          	lw	a5,-24(s0)
8000820c:	0007c783          	lbu	a5,0(a5)
80008210:	02f70463          	beq	a4,a5,80008238 <memcmp+0x64>
80008214:	fec42783          	lw	a5,-20(s0)
80008218:	0007c703          	lbu	a4,0(a5)
8000821c:	fe842783          	lw	a5,-24(s0)
80008220:	0007c783          	lbu	a5,0(a5)
80008224:	00e7f663          	bgeu	a5,a4,80008230 <memcmp+0x5c>
80008228:	00100793          	li	a5,1
8000822c:	0380006f          	j	80008264 <memcmp+0x90>
80008230:	fff00793          	li	a5,-1
80008234:	0300006f          	j	80008264 <memcmp+0x90>
80008238:	fec42783          	lw	a5,-20(s0)
8000823c:	00178793          	addi	a5,a5,1
80008240:	fef42623          	sw	a5,-20(s0)
80008244:	fe842783          	lw	a5,-24(s0)
80008248:	00178793          	addi	a5,a5,1
8000824c:	fef42423          	sw	a5,-24(s0)
80008250:	fd442783          	lw	a5,-44(s0)
80008254:	fff78713          	addi	a4,a5,-1
80008258:	fce42a23          	sw	a4,-44(s0)
8000825c:	fa0792e3          	bnez	a5,80008200 <memcmp+0x2c>
80008260:	00000793          	li	a5,0
80008264:	00078513          	mv	a0,a5
80008268:	02c12403          	lw	s0,44(sp)
8000826c:	03010113          	addi	sp,sp,48
80008270:	00008067          	ret

80008274 <memset>:
80008274:	fd010113          	addi	sp,sp,-48
80008278:	02812623          	sw	s0,44(sp)
8000827c:	03010413          	addi	s0,sp,48
80008280:	fca42e23          	sw	a0,-36(s0)
80008284:	00058793          	mv	a5,a1
80008288:	fcc42a23          	sw	a2,-44(s0)
8000828c:	fcf40da3          	sb	a5,-37(s0)
80008290:	fdc42703          	lw	a4,-36(s0)
80008294:	fd442783          	lw	a5,-44(s0)
80008298:	00f707b3          	add	a5,a4,a5
8000829c:	fef42623          	sw	a5,-20(s0)
800082a0:	01c0006f          	j	800082bc <memset+0x48>
800082a4:	fdc42783          	lw	a5,-36(s0)
800082a8:	fdb44703          	lbu	a4,-37(s0)
800082ac:	00e78023          	sb	a4,0(a5)
800082b0:	fdc42783          	lw	a5,-36(s0)
800082b4:	00178793          	addi	a5,a5,1
800082b8:	fcf42e23          	sw	a5,-36(s0)
800082bc:	fdc42703          	lw	a4,-36(s0)
800082c0:	fec42783          	lw	a5,-20(s0)
800082c4:	fef760e3          	bltu	a4,a5,800082a4 <memset+0x30>
800082c8:	00000013          	nop
800082cc:	00000013          	nop
800082d0:	02c12403          	lw	s0,44(sp)
800082d4:	03010113          	addi	sp,sp,48
800082d8:	00008067          	ret

800082dc <memcpy>:
800082dc:	fd010113          	addi	sp,sp,-48
800082e0:	02812623          	sw	s0,44(sp)
800082e4:	02912423          	sw	s1,40(sp)
800082e8:	03010413          	addi	s0,sp,48
800082ec:	fca42e23          	sw	a0,-36(s0)
800082f0:	fcb42c23          	sw	a1,-40(s0)
800082f4:	fcc42a23          	sw	a2,-44(s0)
800082f8:	fdc42783          	lw	a5,-36(s0)
800082fc:	fef42623          	sw	a5,-20(s0)
80008300:	fd842783          	lw	a5,-40(s0)
80008304:	fef42423          	sw	a5,-24(s0)
80008308:	00000493          	li	s1,0
8000830c:	0280006f          	j	80008334 <memcpy+0x58>
80008310:	fe842703          	lw	a4,-24(s0)
80008314:	00170793          	addi	a5,a4,1
80008318:	fef42423          	sw	a5,-24(s0)
8000831c:	fec42783          	lw	a5,-20(s0)
80008320:	00178693          	addi	a3,a5,1
80008324:	fed42623          	sw	a3,-20(s0)
80008328:	00074703          	lbu	a4,0(a4)
8000832c:	00e78023          	sb	a4,0(a5)
80008330:	00148493          	addi	s1,s1,1
80008334:	fd442783          	lw	a5,-44(s0)
80008338:	fcf4cce3          	blt	s1,a5,80008310 <memcpy+0x34>
8000833c:	fdc42783          	lw	a5,-36(s0)
80008340:	00078513          	mv	a0,a5
80008344:	02c12403          	lw	s0,44(sp)
80008348:	02812483          	lw	s1,40(sp)
8000834c:	03010113          	addi	sp,sp,48
80008350:	00008067          	ret

80008354 <memmove>:
80008354:	fd010113          	addi	sp,sp,-48
80008358:	02812623          	sw	s0,44(sp)
8000835c:	03010413          	addi	s0,sp,48
80008360:	fca42e23          	sw	a0,-36(s0)
80008364:	fcb42c23          	sw	a1,-40(s0)
80008368:	fcc42a23          	sw	a2,-44(s0)
8000836c:	fd842783          	lw	a5,-40(s0)
80008370:	fef42623          	sw	a5,-20(s0)
80008374:	fdc42783          	lw	a5,-36(s0)
80008378:	fef42423          	sw	a5,-24(s0)
8000837c:	fec42703          	lw	a4,-20(s0)
80008380:	fe842783          	lw	a5,-24(s0)
80008384:	04f77e63          	bgeu	a4,a5,800083e0 <memmove+0x8c>
80008388:	0240006f          	j	800083ac <memmove+0x58>
8000838c:	fec42703          	lw	a4,-20(s0)
80008390:	fd442783          	lw	a5,-44(s0)
80008394:	00f70733          	add	a4,a4,a5
80008398:	fe842683          	lw	a3,-24(s0)
8000839c:	fd442783          	lw	a5,-44(s0)
800083a0:	00f687b3          	add	a5,a3,a5
800083a4:	00074703          	lbu	a4,0(a4)
800083a8:	00e78023          	sb	a4,0(a5)
800083ac:	fd442783          	lw	a5,-44(s0)
800083b0:	fff78713          	addi	a4,a5,-1
800083b4:	fce42a23          	sw	a4,-44(s0)
800083b8:	fc079ae3          	bnez	a5,8000838c <memmove+0x38>
800083bc:	0340006f          	j	800083f0 <memmove+0x9c>
800083c0:	fec42703          	lw	a4,-20(s0)
800083c4:	00170793          	addi	a5,a4,1
800083c8:	fef42623          	sw	a5,-20(s0)
800083cc:	fe842783          	lw	a5,-24(s0)
800083d0:	00178693          	addi	a3,a5,1
800083d4:	fed42423          	sw	a3,-24(s0)
800083d8:	00074703          	lbu	a4,0(a4)
800083dc:	00e78023          	sb	a4,0(a5)
800083e0:	fd442783          	lw	a5,-44(s0)
800083e4:	fff78713          	addi	a4,a5,-1
800083e8:	fce42a23          	sw	a4,-44(s0)
800083ec:	fc079ae3          	bnez	a5,800083c0 <memmove+0x6c>
800083f0:	00000013          	nop
800083f4:	02c12403          	lw	s0,44(sp)
800083f8:	03010113          	addi	sp,sp,48
800083fc:	00008067          	ret

80008400 <strchr>:
80008400:	fe010113          	addi	sp,sp,-32
80008404:	00812e23          	sw	s0,28(sp)
80008408:	02010413          	addi	s0,sp,32
8000840c:	fea42623          	sw	a0,-20(s0)
80008410:	feb42423          	sw	a1,-24(s0)
80008414:	0100006f          	j	80008424 <strchr+0x24>
80008418:	fec42783          	lw	a5,-20(s0)
8000841c:	00178793          	addi	a5,a5,1
80008420:	fef42623          	sw	a5,-20(s0)
80008424:	fec42783          	lw	a5,-20(s0)
80008428:	0007c783          	lbu	a5,0(a5)
8000842c:	00078713          	mv	a4,a5
80008430:	fe842783          	lw	a5,-24(s0)
80008434:	00e78863          	beq	a5,a4,80008444 <strchr+0x44>
80008438:	fec42783          	lw	a5,-20(s0)
8000843c:	0007c783          	lbu	a5,0(a5)
80008440:	fc079ce3          	bnez	a5,80008418 <strchr+0x18>
80008444:	fec42783          	lw	a5,-20(s0)
80008448:	0007c783          	lbu	a5,0(a5)
8000844c:	00078713          	mv	a4,a5
80008450:	fe842783          	lw	a5,-24(s0)
80008454:	00e79663          	bne	a5,a4,80008460 <strchr+0x60>
80008458:	fec42783          	lw	a5,-20(s0)
8000845c:	0080006f          	j	80008464 <strchr+0x64>
80008460:	00000793          	li	a5,0
80008464:	00078513          	mv	a0,a5
80008468:	01c12403          	lw	s0,28(sp)
8000846c:	02010113          	addi	sp,sp,32
80008470:	00008067          	ret

80008474 <strlen>:
80008474:	fd010113          	addi	sp,sp,-48
80008478:	02812623          	sw	s0,44(sp)
8000847c:	03010413          	addi	s0,sp,48
80008480:	fca42e23          	sw	a0,-36(s0)
80008484:	fe042623          	sw	zero,-20(s0)
80008488:	0100006f          	j	80008498 <strlen+0x24>
8000848c:	fec42783          	lw	a5,-20(s0)
80008490:	00178793          	addi	a5,a5,1
80008494:	fef42623          	sw	a5,-20(s0)
80008498:	fdc42783          	lw	a5,-36(s0)
8000849c:	00178713          	addi	a4,a5,1
800084a0:	fce42e23          	sw	a4,-36(s0)
800084a4:	0007c783          	lbu	a5,0(a5)
800084a8:	fe0792e3          	bnez	a5,8000848c <strlen+0x18>
800084ac:	fec42783          	lw	a5,-20(s0)
800084b0:	00078513          	mv	a0,a5
800084b4:	02c12403          	lw	s0,44(sp)
800084b8:	03010113          	addi	sp,sp,48
800084bc:	00008067          	ret

800084c0 <strreverse>:
800084c0:	fd010113          	addi	sp,sp,-48
800084c4:	02812623          	sw	s0,44(sp)
800084c8:	03010413          	addi	s0,sp,48
800084cc:	fca42e23          	sw	a0,-36(s0)
800084d0:	fdc42783          	lw	a5,-36(s0)
800084d4:	fef42623          	sw	a5,-20(s0)
800084d8:	fdc42783          	lw	a5,-36(s0)
800084dc:	08078263          	beqz	a5,80008560 <strreverse+0xa0>
800084e0:	fdc42783          	lw	a5,-36(s0)
800084e4:	0007c783          	lbu	a5,0(a5)
800084e8:	06078c63          	beqz	a5,80008560 <strreverse+0xa0>
800084ec:	00000013          	nop
800084f0:	fdc42783          	lw	a5,-36(s0)
800084f4:	00178793          	addi	a5,a5,1
800084f8:	fcf42e23          	sw	a5,-36(s0)
800084fc:	fdc42783          	lw	a5,-36(s0)
80008500:	0007c783          	lbu	a5,0(a5)
80008504:	fe0796e3          	bnez	a5,800084f0 <strreverse+0x30>
80008508:	fdc42783          	lw	a5,-36(s0)
8000850c:	fff78793          	addi	a5,a5,-1
80008510:	fcf42e23          	sw	a5,-36(s0)
80008514:	03c0006f          	j	80008550 <strreverse+0x90>
80008518:	fec42783          	lw	a5,-20(s0)
8000851c:	0007c783          	lbu	a5,0(a5)
80008520:	fef405a3          	sb	a5,-21(s0)
80008524:	fec42783          	lw	a5,-20(s0)
80008528:	00178713          	addi	a4,a5,1
8000852c:	fee42623          	sw	a4,-20(s0)
80008530:	fdc42703          	lw	a4,-36(s0)
80008534:	00074703          	lbu	a4,0(a4)
80008538:	00e78023          	sb	a4,0(a5)
8000853c:	fdc42783          	lw	a5,-36(s0)
80008540:	fff78713          	addi	a4,a5,-1
80008544:	fce42e23          	sw	a4,-36(s0)
80008548:	feb44703          	lbu	a4,-21(s0)
8000854c:	00e78023          	sb	a4,0(a5)
80008550:	fdc42703          	lw	a4,-36(s0)
80008554:	fec42783          	lw	a5,-20(s0)
80008558:	fce7e0e3          	bltu	a5,a4,80008518 <strreverse+0x58>
8000855c:	0080006f          	j	80008564 <strreverse+0xa4>
80008560:	00000013          	nop
80008564:	02c12403          	lw	s0,44(sp)
80008568:	03010113          	addi	sp,sp,48
8000856c:	00008067          	ret

80008570 <strcmp>:
80008570:	fe010113          	addi	sp,sp,-32
80008574:	00812e23          	sw	s0,28(sp)
80008578:	02010413          	addi	s0,sp,32
8000857c:	fea42623          	sw	a0,-20(s0)
80008580:	feb42423          	sw	a1,-24(s0)
80008584:	01c0006f          	j	800085a0 <strcmp+0x30>
80008588:	fec42783          	lw	a5,-20(s0)
8000858c:	00178793          	addi	a5,a5,1
80008590:	fef42623          	sw	a5,-20(s0)
80008594:	fe842783          	lw	a5,-24(s0)
80008598:	00178793          	addi	a5,a5,1
8000859c:	fef42423          	sw	a5,-24(s0)
800085a0:	fec42783          	lw	a5,-20(s0)
800085a4:	0007c703          	lbu	a4,0(a5)
800085a8:	fe842783          	lw	a5,-24(s0)
800085ac:	0007c783          	lbu	a5,0(a5)
800085b0:	00f71e63          	bne	a4,a5,800085cc <strcmp+0x5c>
800085b4:	fec42783          	lw	a5,-20(s0)
800085b8:	0007c783          	lbu	a5,0(a5)
800085bc:	00078863          	beqz	a5,800085cc <strcmp+0x5c>
800085c0:	fe842783          	lw	a5,-24(s0)
800085c4:	0007c783          	lbu	a5,0(a5)
800085c8:	fc0790e3          	bnez	a5,80008588 <strcmp+0x18>
800085cc:	fec42783          	lw	a5,-20(s0)
800085d0:	0007c703          	lbu	a4,0(a5)
800085d4:	fe842783          	lw	a5,-24(s0)
800085d8:	0007c783          	lbu	a5,0(a5)
800085dc:	00f71663          	bne	a4,a5,800085e8 <strcmp+0x78>
800085e0:	00000793          	li	a5,0
800085e4:	0240006f          	j	80008608 <strcmp+0x98>
800085e8:	fec42783          	lw	a5,-20(s0)
800085ec:	0007c703          	lbu	a4,0(a5)
800085f0:	fe842783          	lw	a5,-24(s0)
800085f4:	0007c783          	lbu	a5,0(a5)
800085f8:	00e7f663          	bgeu	a5,a4,80008604 <strcmp+0x94>
800085fc:	00100793          	li	a5,1
80008600:	0080006f          	j	80008608 <strcmp+0x98>
80008604:	fff00793          	li	a5,-1
80008608:	00078513          	mv	a0,a5
8000860c:	01c12403          	lw	s0,28(sp)
80008610:	02010113          	addi	sp,sp,32
80008614:	00008067          	ret

80008618 <strncmp>:
80008618:	fe010113          	addi	sp,sp,-32
8000861c:	00812e23          	sw	s0,28(sp)
80008620:	02010413          	addi	s0,sp,32
80008624:	fea42623          	sw	a0,-20(s0)
80008628:	feb42423          	sw	a1,-24(s0)
8000862c:	fec42223          	sw	a2,-28(s0)
80008630:	0280006f          	j	80008658 <strncmp+0x40>
80008634:	fec42783          	lw	a5,-20(s0)
80008638:	00178793          	addi	a5,a5,1
8000863c:	fef42623          	sw	a5,-20(s0)
80008640:	fe842783          	lw	a5,-24(s0)
80008644:	00178793          	addi	a5,a5,1
80008648:	fef42423          	sw	a5,-24(s0)
8000864c:	fe442783          	lw	a5,-28(s0)
80008650:	fff78793          	addi	a5,a5,-1
80008654:	fef42223          	sw	a5,-28(s0)
80008658:	fec42783          	lw	a5,-20(s0)
8000865c:	0007c703          	lbu	a4,0(a5)
80008660:	fe842783          	lw	a5,-24(s0)
80008664:	0007c783          	lbu	a5,0(a5)
80008668:	02f71263          	bne	a4,a5,8000868c <strncmp+0x74>
8000866c:	fec42783          	lw	a5,-20(s0)
80008670:	0007c783          	lbu	a5,0(a5)
80008674:	00078c63          	beqz	a5,8000868c <strncmp+0x74>
80008678:	fe842783          	lw	a5,-24(s0)
8000867c:	0007c783          	lbu	a5,0(a5)
80008680:	00078663          	beqz	a5,8000868c <strncmp+0x74>
80008684:	fe442783          	lw	a5,-28(s0)
80008688:	fa0796e3          	bnez	a5,80008634 <strncmp+0x1c>
8000868c:	fe442783          	lw	a5,-28(s0)
80008690:	00078c63          	beqz	a5,800086a8 <strncmp+0x90>
80008694:	fec42783          	lw	a5,-20(s0)
80008698:	0007c703          	lbu	a4,0(a5)
8000869c:	fe842783          	lw	a5,-24(s0)
800086a0:	0007c783          	lbu	a5,0(a5)
800086a4:	00f71663          	bne	a4,a5,800086b0 <strncmp+0x98>
800086a8:	00000793          	li	a5,0
800086ac:	0240006f          	j	800086d0 <strncmp+0xb8>
800086b0:	fec42783          	lw	a5,-20(s0)
800086b4:	0007c703          	lbu	a4,0(a5)
800086b8:	fe842783          	lw	a5,-24(s0)
800086bc:	0007c783          	lbu	a5,0(a5)
800086c0:	00e7f663          	bgeu	a5,a4,800086cc <strncmp+0xb4>
800086c4:	00100793          	li	a5,1
800086c8:	0080006f          	j	800086d0 <strncmp+0xb8>
800086cc:	fff00793          	li	a5,-1
800086d0:	00078513          	mv	a0,a5
800086d4:	01c12403          	lw	s0,28(sp)
800086d8:	02010113          	addi	sp,sp,32
800086dc:	00008067          	ret

800086e0 <strncpy>:
800086e0:	fd010113          	addi	sp,sp,-48
800086e4:	02812623          	sw	s0,44(sp)
800086e8:	03010413          	addi	s0,sp,48
800086ec:	fca42e23          	sw	a0,-36(s0)
800086f0:	fcb42c23          	sw	a1,-40(s0)
800086f4:	fcc42a23          	sw	a2,-44(s0)
800086f8:	fdc42783          	lw	a5,-36(s0)
800086fc:	fef42623          	sw	a5,-20(s0)
80008700:	0240006f          	j	80008724 <strncpy+0x44>
80008704:	fd842703          	lw	a4,-40(s0)
80008708:	00170793          	addi	a5,a4,1
8000870c:	fcf42c23          	sw	a5,-40(s0)
80008710:	fdc42783          	lw	a5,-36(s0)
80008714:	00178693          	addi	a3,a5,1
80008718:	fcd42e23          	sw	a3,-36(s0)
8000871c:	00074703          	lbu	a4,0(a4)
80008720:	00e78023          	sb	a4,0(a5)
80008724:	fd842783          	lw	a5,-40(s0)
80008728:	0007c783          	lbu	a5,0(a5)
8000872c:	02078463          	beqz	a5,80008754 <strncpy+0x74>
80008730:	fd442783          	lw	a5,-44(s0)
80008734:	fff78713          	addi	a4,a5,-1
80008738:	fce42a23          	sw	a4,-44(s0)
8000873c:	fcf044e3          	bgtz	a5,80008704 <strncpy+0x24>
80008740:	0140006f          	j	80008754 <strncpy+0x74>
80008744:	fdc42783          	lw	a5,-36(s0)
80008748:	00178713          	addi	a4,a5,1
8000874c:	fce42e23          	sw	a4,-36(s0)
80008750:	00078023          	sb	zero,0(a5)
80008754:	fd442783          	lw	a5,-44(s0)
80008758:	fff78713          	addi	a4,a5,-1
8000875c:	fce42a23          	sw	a4,-44(s0)
80008760:	fef042e3          	bgtz	a5,80008744 <strncpy+0x64>
80008764:	fec42783          	lw	a5,-20(s0)
80008768:	00078513          	mv	a0,a5
8000876c:	02c12403          	lw	s0,44(sp)
80008770:	03010113          	addi	sp,sp,48
80008774:	00008067          	ret

80008778 <chrnlst>:
80008778:	fd010113          	addi	sp,sp,-48
8000877c:	02812623          	sw	s0,44(sp)
80008780:	03010413          	addi	s0,sp,48
80008784:	00050793          	mv	a5,a0
80008788:	fcb42c23          	sw	a1,-40(s0)
8000878c:	fcf40fa3          	sb	a5,-33(s0)
80008790:	fe042623          	sw	zero,-20(s0)
80008794:	0300006f          	j	800087c4 <chrnlst+0x4c>
80008798:	fec42783          	lw	a5,-20(s0)
8000879c:	fd842703          	lw	a4,-40(s0)
800087a0:	00f707b3          	add	a5,a4,a5
800087a4:	0007c783          	lbu	a5,0(a5)
800087a8:	fdf44703          	lbu	a4,-33(s0)
800087ac:	00f71663          	bne	a4,a5,800087b8 <chrnlst+0x40>
800087b0:	00100793          	li	a5,1
800087b4:	0280006f          	j	800087dc <chrnlst+0x64>
800087b8:	fec42783          	lw	a5,-20(s0)
800087bc:	00178793          	addi	a5,a5,1
800087c0:	fef42623          	sw	a5,-20(s0)
800087c4:	fec42783          	lw	a5,-20(s0)
800087c8:	fd842703          	lw	a4,-40(s0)
800087cc:	00f707b3          	add	a5,a4,a5
800087d0:	0007c783          	lbu	a5,0(a5)
800087d4:	fc0792e3          	bnez	a5,80008798 <chrnlst+0x20>
800087d8:	00000793          	li	a5,0
800087dc:	00078513          	mv	a0,a5
800087e0:	02c12403          	lw	s0,44(sp)
800087e4:	03010113          	addi	sp,sp,48
800087e8:	00008067          	ret

800087ec <strncat>:
800087ec:	fd010113          	addi	sp,sp,-48
800087f0:	02812623          	sw	s0,44(sp)
800087f4:	03010413          	addi	s0,sp,48
800087f8:	fca42e23          	sw	a0,-36(s0)
800087fc:	fcb42c23          	sw	a1,-40(s0)
80008800:	fcc42a23          	sw	a2,-44(s0)
80008804:	fdc42783          	lw	a5,-36(s0)
80008808:	fef42623          	sw	a5,-20(s0)
8000880c:	00000013          	nop
80008810:	fdc42783          	lw	a5,-36(s0)
80008814:	00178713          	addi	a4,a5,1
80008818:	fce42e23          	sw	a4,-36(s0)
8000881c:	0007c783          	lbu	a5,0(a5)
80008820:	fe0798e3          	bnez	a5,80008810 <strncat+0x24>
80008824:	fdc42783          	lw	a5,-36(s0)
80008828:	fff78793          	addi	a5,a5,-1
8000882c:	fcf42e23          	sw	a5,-36(s0)
80008830:	0300006f          	j	80008860 <strncat+0x74>
80008834:	fd442783          	lw	a5,-44(s0)
80008838:	fff78793          	addi	a5,a5,-1
8000883c:	fcf42a23          	sw	a5,-44(s0)
80008840:	fd442783          	lw	a5,-44(s0)
80008844:	0007de63          	bgez	a5,80008860 <strncat+0x74>
80008848:	fdc42783          	lw	a5,-36(s0)
8000884c:	fff78793          	addi	a5,a5,-1
80008850:	fcf42e23          	sw	a5,-36(s0)
80008854:	fdc42783          	lw	a5,-36(s0)
80008858:	00078023          	sb	zero,0(a5)
8000885c:	02c0006f          	j	80008888 <strncat+0x9c>
80008860:	fd842703          	lw	a4,-40(s0)
80008864:	00170793          	addi	a5,a4,1
80008868:	fcf42c23          	sw	a5,-40(s0)
8000886c:	fdc42783          	lw	a5,-36(s0)
80008870:	00178693          	addi	a3,a5,1
80008874:	fcd42e23          	sw	a3,-36(s0)
80008878:	00074703          	lbu	a4,0(a4)
8000887c:	00e78023          	sb	a4,0(a5)
80008880:	0007c783          	lbu	a5,0(a5)
80008884:	fa0798e3          	bnez	a5,80008834 <strncat+0x48>
80008888:	fec42783          	lw	a5,-20(s0)
8000888c:	00078513          	mv	a0,a5
80008890:	02c12403          	lw	s0,44(sp)
80008894:	03010113          	addi	sp,sp,48
80008898:	00008067          	ret

8000889c <strstr>:
8000889c:	fd010113          	addi	sp,sp,-48
800088a0:	02812623          	sw	s0,44(sp)
800088a4:	03010413          	addi	s0,sp,48
800088a8:	fca42e23          	sw	a0,-36(s0)
800088ac:	fcb42c23          	sw	a1,-40(s0)
800088b0:	0980006f          	j	80008948 <strstr+0xac>
800088b4:	fdc42783          	lw	a5,-36(s0)
800088b8:	0007c703          	lbu	a4,0(a5)
800088bc:	fd842783          	lw	a5,-40(s0)
800088c0:	0007c783          	lbu	a5,0(a5)
800088c4:	06f71c63          	bne	a4,a5,8000893c <strstr+0xa0>
800088c8:	fdc42783          	lw	a5,-36(s0)
800088cc:	fef42623          	sw	a5,-20(s0)
800088d0:	fd842783          	lw	a5,-40(s0)
800088d4:	fef42423          	sw	a5,-24(s0)
800088d8:	0300006f          	j	80008908 <strstr+0x6c>
800088dc:	fec42783          	lw	a5,-20(s0)
800088e0:	0007c703          	lbu	a4,0(a5)
800088e4:	fe842783          	lw	a5,-24(s0)
800088e8:	0007c783          	lbu	a5,0(a5)
800088ec:	02f71c63          	bne	a4,a5,80008924 <strstr+0x88>
800088f0:	fec42783          	lw	a5,-20(s0)
800088f4:	00178793          	addi	a5,a5,1
800088f8:	fef42623          	sw	a5,-20(s0)
800088fc:	fe842783          	lw	a5,-24(s0)
80008900:	00178793          	addi	a5,a5,1
80008904:	fef42423          	sw	a5,-24(s0)
80008908:	fec42783          	lw	a5,-20(s0)
8000890c:	0007c783          	lbu	a5,0(a5)
80008910:	00078c63          	beqz	a5,80008928 <strstr+0x8c>
80008914:	fe842783          	lw	a5,-24(s0)
80008918:	0007c783          	lbu	a5,0(a5)
8000891c:	fc0790e3          	bnez	a5,800088dc <strstr+0x40>
80008920:	0080006f          	j	80008928 <strstr+0x8c>
80008924:	00000013          	nop
80008928:	fe842783          	lw	a5,-24(s0)
8000892c:	0007c783          	lbu	a5,0(a5)
80008930:	00079663          	bnez	a5,8000893c <strstr+0xa0>
80008934:	fdc42783          	lw	a5,-36(s0)
80008938:	0200006f          	j	80008958 <strstr+0xbc>
8000893c:	fdc42783          	lw	a5,-36(s0)
80008940:	00178793          	addi	a5,a5,1
80008944:	fcf42e23          	sw	a5,-36(s0)
80008948:	fdc42783          	lw	a5,-36(s0)
8000894c:	0007c783          	lbu	a5,0(a5)
80008950:	f60792e3          	bnez	a5,800088b4 <strstr+0x18>
80008954:	00000793          	li	a5,0
80008958:	00078513          	mv	a0,a5
8000895c:	02c12403          	lw	s0,44(sp)
80008960:	03010113          	addi	sp,sp,48
80008964:	00008067          	ret

80008968 <strcpy>:
80008968:	fe010113          	addi	sp,sp,-32
8000896c:	00812e23          	sw	s0,28(sp)
80008970:	02010413          	addi	s0,sp,32
80008974:	fea42623          	sw	a0,-20(s0)
80008978:	feb42423          	sw	a1,-24(s0)
8000897c:	00000013          	nop
80008980:	fe842703          	lw	a4,-24(s0)
80008984:	00170793          	addi	a5,a4,1
80008988:	fef42423          	sw	a5,-24(s0)
8000898c:	fec42783          	lw	a5,-20(s0)
80008990:	00178693          	addi	a3,a5,1
80008994:	fed42623          	sw	a3,-20(s0)
80008998:	00074703          	lbu	a4,0(a4)
8000899c:	00e78023          	sb	a4,0(a5)
800089a0:	0007c783          	lbu	a5,0(a5)
800089a4:	fc079ee3          	bnez	a5,80008980 <strcpy+0x18>
800089a8:	00000793          	li	a5,0
800089ac:	00078513          	mv	a0,a5
800089b0:	01c12403          	lw	s0,28(sp)
800089b4:	02010113          	addi	sp,sp,32
800089b8:	00008067          	ret

800089bc <strspn>:
800089bc:	fd010113          	addi	sp,sp,-48
800089c0:	02812623          	sw	s0,44(sp)
800089c4:	03010413          	addi	s0,sp,48
800089c8:	fca42e23          	sw	a0,-36(s0)
800089cc:	fcb42c23          	sw	a1,-40(s0)
800089d0:	fdc42783          	lw	a5,-36(s0)
800089d4:	fef42423          	sw	a5,-24(s0)
800089d8:	05c0006f          	j	80008a34 <strspn+0x78>
800089dc:	fd842783          	lw	a5,-40(s0)
800089e0:	fef42623          	sw	a5,-20(s0)
800089e4:	0240006f          	j	80008a08 <strspn+0x4c>
800089e8:	fdc42783          	lw	a5,-36(s0)
800089ec:	0007c703          	lbu	a4,0(a5)
800089f0:	fec42783          	lw	a5,-20(s0)
800089f4:	0007c783          	lbu	a5,0(a5)
800089f8:	02f70063          	beq	a4,a5,80008a18 <strspn+0x5c>
800089fc:	fec42783          	lw	a5,-20(s0)
80008a00:	00178793          	addi	a5,a5,1
80008a04:	fef42623          	sw	a5,-20(s0)
80008a08:	fec42783          	lw	a5,-20(s0)
80008a0c:	0007c783          	lbu	a5,0(a5)
80008a10:	fc079ce3          	bnez	a5,800089e8 <strspn+0x2c>
80008a14:	0080006f          	j	80008a1c <strspn+0x60>
80008a18:	00000013          	nop
80008a1c:	fec42783          	lw	a5,-20(s0)
80008a20:	0007c783          	lbu	a5,0(a5)
80008a24:	02078063          	beqz	a5,80008a44 <strspn+0x88>
80008a28:	fdc42783          	lw	a5,-36(s0)
80008a2c:	00178793          	addi	a5,a5,1
80008a30:	fcf42e23          	sw	a5,-36(s0)
80008a34:	fdc42783          	lw	a5,-36(s0)
80008a38:	0007c783          	lbu	a5,0(a5)
80008a3c:	fa0790e3          	bnez	a5,800089dc <strspn+0x20>
80008a40:	0080006f          	j	80008a48 <strspn+0x8c>
80008a44:	00000013          	nop
80008a48:	fdc42703          	lw	a4,-36(s0)
80008a4c:	fe842783          	lw	a5,-24(s0)
80008a50:	40f707b3          	sub	a5,a4,a5
80008a54:	00078513          	mv	a0,a5
80008a58:	02c12403          	lw	s0,44(sp)
80008a5c:	03010113          	addi	sp,sp,48
80008a60:	00008067          	ret

80008a64 <strcat>:
80008a64:	fd010113          	addi	sp,sp,-48
80008a68:	02112623          	sw	ra,44(sp)
80008a6c:	02812423          	sw	s0,40(sp)
80008a70:	03010413          	addi	s0,sp,48
80008a74:	fca42e23          	sw	a0,-36(s0)
80008a78:	fcb42c23          	sw	a1,-40(s0)
80008a7c:	fdc42503          	lw	a0,-36(s0)
80008a80:	9f5ff0ef          	jal	80008474 <strlen>
80008a84:	fea42623          	sw	a0,-20(s0)
80008a88:	fec42783          	lw	a5,-20(s0)
80008a8c:	fdc42703          	lw	a4,-36(s0)
80008a90:	00f707b3          	add	a5,a4,a5
80008a94:	fd842583          	lw	a1,-40(s0)
80008a98:	00078513          	mv	a0,a5
80008a9c:	ecdff0ef          	jal	80008968 <strcpy>
80008aa0:	fdc42783          	lw	a5,-36(s0)
80008aa4:	00078513          	mv	a0,a5
80008aa8:	02c12083          	lw	ra,44(sp)
80008aac:	02812403          	lw	s0,40(sp)
80008ab0:	03010113          	addi	sp,sp,48
80008ab4:	00008067          	ret

80008ab8 <strcspn>:
80008ab8:	fd010113          	addi	sp,sp,-48
80008abc:	02812623          	sw	s0,44(sp)
80008ac0:	02912423          	sw	s1,40(sp)
80008ac4:	03212223          	sw	s2,36(sp)
80008ac8:	03312023          	sw	s3,32(sp)
80008acc:	01412e23          	sw	s4,28(sp)
80008ad0:	03010413          	addi	s0,sp,48
80008ad4:	fca42e23          	sw	a0,-36(s0)
80008ad8:	00058713          	mv	a4,a1
80008adc:	fdc42483          	lw	s1,-36(s0)
80008ae0:	00048793          	mv	a5,s1
80008ae4:	00178493          	addi	s1,a5,1
80008ae8:	0007c983          	lbu	s3,0(a5)
80008aec:	00070a13          	mv	s4,a4
80008af0:	000a0793          	mv	a5,s4
80008af4:	00178a13          	addi	s4,a5,1
80008af8:	0007c903          	lbu	s2,0(a5)
80008afc:	01391a63          	bne	s2,s3,80008b10 <strcspn+0x58>
80008b00:	fff48713          	addi	a4,s1,-1
80008b04:	fdc42783          	lw	a5,-36(s0)
80008b08:	40f707b3          	sub	a5,a4,a5
80008b0c:	00c0006f          	j	80008b18 <strcspn+0x60>
80008b10:	fe0910e3          	bnez	s2,80008af0 <strcspn+0x38>
80008b14:	fcdff06f          	j	80008ae0 <strcspn+0x28>
80008b18:	00078513          	mv	a0,a5
80008b1c:	02c12403          	lw	s0,44(sp)
80008b20:	02812483          	lw	s1,40(sp)
80008b24:	02412903          	lw	s2,36(sp)
80008b28:	02012983          	lw	s3,32(sp)
80008b2c:	01c12a03          	lw	s4,28(sp)
80008b30:	03010113          	addi	sp,sp,48
80008b34:	00008067          	ret

80008b38 <strnlen>:
80008b38:	fd010113          	addi	sp,sp,-48
80008b3c:	02812623          	sw	s0,44(sp)
80008b40:	03010413          	addi	s0,sp,48
80008b44:	fca42e23          	sw	a0,-36(s0)
80008b48:	fcb42c23          	sw	a1,-40(s0)
80008b4c:	fe042623          	sw	zero,-20(s0)
80008b50:	0100006f          	j	80008b60 <strnlen+0x28>
80008b54:	fec42783          	lw	a5,-20(s0)
80008b58:	00178793          	addi	a5,a5,1
80008b5c:	fef42623          	sw	a5,-20(s0)
80008b60:	fdc42783          	lw	a5,-36(s0)
80008b64:	00178713          	addi	a4,a5,1
80008b68:	fce42e23          	sw	a4,-36(s0)
80008b6c:	0007c783          	lbu	a5,0(a5)
80008b70:	00078863          	beqz	a5,80008b80 <strnlen+0x48>
80008b74:	fec42703          	lw	a4,-20(s0)
80008b78:	fd842783          	lw	a5,-40(s0)
80008b7c:	fcf74ce3          	blt	a4,a5,80008b54 <strnlen+0x1c>
80008b80:	fec42783          	lw	a5,-20(s0)
80008b84:	00078513          	mv	a0,a5
80008b88:	02c12403          	lw	s0,44(sp)
80008b8c:	03010113          	addi	sp,sp,48
80008b90:	00008067          	ret

80008b94 <strtok>:
80008b94:	fd010113          	addi	sp,sp,-48
80008b98:	02812623          	sw	s0,44(sp)
80008b9c:	03010413          	addi	s0,sp,48
80008ba0:	fca42e23          	sw	a0,-36(s0)
80008ba4:	fcb42c23          	sw	a1,-40(s0)
80008ba8:	fdc42783          	lw	a5,-36(s0)
80008bac:	02079063          	bnez	a5,80008bcc <strtok+0x38>
80008bb0:	800177b7          	lui	a5,0x80017
80008bb4:	a347a783          	lw	a5,-1484(a5) # 80016a34 <last.0>
80008bb8:	fcf42e23          	sw	a5,-36(s0)
80008bbc:	fdc42783          	lw	a5,-36(s0)
80008bc0:	00079663          	bnez	a5,80008bcc <strtok+0x38>
80008bc4:	00000793          	li	a5,0
80008bc8:	0f00006f          	j	80008cb8 <strtok+0x124>
80008bcc:	00000013          	nop
80008bd0:	fdc42783          	lw	a5,-36(s0)
80008bd4:	00178713          	addi	a4,a5,1
80008bd8:	fce42e23          	sw	a4,-36(s0)
80008bdc:	0007c783          	lbu	a5,0(a5)
80008be0:	fef42423          	sw	a5,-24(s0)
80008be4:	fd842783          	lw	a5,-40(s0)
80008be8:	fef42623          	sw	a5,-20(s0)
80008bec:	0140006f          	j	80008c00 <strtok+0x6c>
80008bf0:	fe842703          	lw	a4,-24(s0)
80008bf4:	fe442783          	lw	a5,-28(s0)
80008bf8:	00f71463          	bne	a4,a5,80008c00 <strtok+0x6c>
80008bfc:	fd5ff06f          	j	80008bd0 <strtok+0x3c>
80008c00:	fec42783          	lw	a5,-20(s0)
80008c04:	00178713          	addi	a4,a5,1
80008c08:	fee42623          	sw	a4,-20(s0)
80008c0c:	0007c783          	lbu	a5,0(a5)
80008c10:	fef42223          	sw	a5,-28(s0)
80008c14:	fe442783          	lw	a5,-28(s0)
80008c18:	fc079ce3          	bnez	a5,80008bf0 <strtok+0x5c>
80008c1c:	fe842783          	lw	a5,-24(s0)
80008c20:	00079a63          	bnez	a5,80008c34 <strtok+0xa0>
80008c24:	800177b7          	lui	a5,0x80017
80008c28:	a207aa23          	sw	zero,-1484(a5) # 80016a34 <last.0>
80008c2c:	00000793          	li	a5,0
80008c30:	0880006f          	j	80008cb8 <strtok+0x124>
80008c34:	fdc42783          	lw	a5,-36(s0)
80008c38:	fff78793          	addi	a5,a5,-1
80008c3c:	fef42023          	sw	a5,-32(s0)
80008c40:	fdc42783          	lw	a5,-36(s0)
80008c44:	00178713          	addi	a4,a5,1
80008c48:	fce42e23          	sw	a4,-36(s0)
80008c4c:	0007c783          	lbu	a5,0(a5)
80008c50:	fef42423          	sw	a5,-24(s0)
80008c54:	fd842783          	lw	a5,-40(s0)
80008c58:	fef42623          	sw	a5,-20(s0)
80008c5c:	fec42783          	lw	a5,-20(s0)
80008c60:	00178713          	addi	a4,a5,1
80008c64:	fee42623          	sw	a4,-20(s0)
80008c68:	0007c783          	lbu	a5,0(a5)
80008c6c:	fef42223          	sw	a5,-28(s0)
80008c70:	fe442703          	lw	a4,-28(s0)
80008c74:	fe842783          	lw	a5,-24(s0)
80008c78:	02f71a63          	bne	a4,a5,80008cac <strtok+0x118>
80008c7c:	fe842783          	lw	a5,-24(s0)
80008c80:	00079663          	bnez	a5,80008c8c <strtok+0xf8>
80008c84:	fc042e23          	sw	zero,-36(s0)
80008c88:	0100006f          	j	80008c98 <strtok+0x104>
80008c8c:	fdc42783          	lw	a5,-36(s0)
80008c90:	fff78793          	addi	a5,a5,-1
80008c94:	00078023          	sb	zero,0(a5)
80008c98:	800177b7          	lui	a5,0x80017
80008c9c:	fdc42703          	lw	a4,-36(s0)
80008ca0:	a2e7aa23          	sw	a4,-1484(a5) # 80016a34 <last.0>
80008ca4:	fe042783          	lw	a5,-32(s0)
80008ca8:	0100006f          	j	80008cb8 <strtok+0x124>
80008cac:	fe442783          	lw	a5,-28(s0)
80008cb0:	fa0796e3          	bnez	a5,80008c5c <strtok+0xc8>
80008cb4:	f8dff06f          	j	80008c40 <strtok+0xac>
80008cb8:	00078513          	mv	a0,a5
80008cbc:	02c12403          	lw	s0,44(sp)
80008cc0:	03010113          	addi	sp,sp,48
80008cc4:	00008067          	ret

80008cc8 <strrchr>:
80008cc8:	fd010113          	addi	sp,sp,-48
80008ccc:	02812623          	sw	s0,44(sp)
80008cd0:	03010413          	addi	s0,sp,48
80008cd4:	fca42e23          	sw	a0,-36(s0)
80008cd8:	fcb42c23          	sw	a1,-40(s0)
80008cdc:	fe042623          	sw	zero,-20(s0)
80008ce0:	02c0006f          	j	80008d0c <strrchr+0x44>
80008ce4:	fdc42783          	lw	a5,-36(s0)
80008ce8:	0007c703          	lbu	a4,0(a5)
80008cec:	fd842783          	lw	a5,-40(s0)
80008cf0:	0ff7f793          	zext.b	a5,a5
80008cf4:	00f71663          	bne	a4,a5,80008d00 <strrchr+0x38>
80008cf8:	fdc42783          	lw	a5,-36(s0)
80008cfc:	fef42623          	sw	a5,-20(s0)
80008d00:	fdc42783          	lw	a5,-36(s0)
80008d04:	00178793          	addi	a5,a5,1
80008d08:	fcf42e23          	sw	a5,-36(s0)
80008d0c:	fdc42783          	lw	a5,-36(s0)
80008d10:	0007c783          	lbu	a5,0(a5)
80008d14:	fc0798e3          	bnez	a5,80008ce4 <strrchr+0x1c>
80008d18:	fd842783          	lw	a5,-40(s0)
80008d1c:	0ff7f713          	zext.b	a4,a5
80008d20:	fdc42783          	lw	a5,-36(s0)
80008d24:	0007c783          	lbu	a5,0(a5)
80008d28:	00f71663          	bne	a4,a5,80008d34 <strrchr+0x6c>
80008d2c:	fdc42783          	lw	a5,-36(s0)
80008d30:	0080006f          	j	80008d38 <strrchr+0x70>
80008d34:	fec42783          	lw	a5,-20(s0)
80008d38:	00078513          	mv	a0,a5
80008d3c:	02c12403          	lw	s0,44(sp)
80008d40:	03010113          	addi	sp,sp,48
80008d44:	00008067          	ret

80008d48 <__subdf3>:
80008d48:	800007b7          	lui	a5,0x80000
80008d4c:	00f6c6b3          	xor	a3,a3,a5

80008d50 <__adddf3>:
80008d50:	ffe007b7          	lui	a5,0xffe00
80008d54:	00159813          	slli	a6,a1,0x1
80008d58:	00169893          	slli	a7,a3,0x1
80008d5c:	38f87a63          	bgeu	a6,a5,800090f0 <infnan>
80008d60:	38f8f063          	bgeu	a7,a5,800090e0 <infnan_B_only>
80008d64:	01184733          	xor	a4,a6,a7
80008d68:	00c54333          	xor	t1,a0,a2
80008d6c:	00676733          	or	a4,a4,t1
80008d70:	30070263          	beqz	a4,80009074 <equal>
80008d74:	00a86733          	or	a4,a6,a0
80008d78:	2e070463          	beqz	a4,80009060 <zero_operand>
80008d7c:	00c8e333          	or	t1,a7,a2
80008d80:	2e030063          	beqz	t1,80009060 <zero_operand>
80008d84:	01585813          	srli	a6,a6,0x15
80008d88:	0158d893          	srli	a7,a7,0x15
80008d8c:	411802b3          	sub	t0,a6,a7
80008d90:	03187263          	bgeu	a6,a7,80008db4 <__adddf3+0x64>
80008d94:	405002b3          	neg	t0,t0
80008d98:	00088813          	mv	a6,a7
80008d9c:	00c54633          	xor	a2,a0,a2
80008da0:	00d5c6b3          	xor	a3,a1,a3
80008da4:	00a64533          	xor	a0,a2,a0
80008da8:	00b6c5b3          	xor	a1,a3,a1
80008dac:	00c54633          	xor	a2,a0,a2
80008db0:	00d5c6b3          	xor	a3,a1,a3
80008db4:	0372b893          	sltiu	a7,t0,55
80008db8:	14088463          	beqz	a7,80008f00 <exit>
80008dbc:	fff7c793          	not	a5,a5
80008dc0:	01489893          	slli	a7,a7,0x14
80008dc4:	0115e5b3          	or	a1,a1,a7
80008dc8:	0116e6b3          	or	a3,a3,a7
80008dcc:	00b89893          	slli	a7,a7,0xb
80008dd0:	0115b333          	sltu	t1,a1,a7
80008dd4:	00f5f5b3          	and	a1,a1,a5
80008dd8:	00031a63          	bnez	t1,80008dec <__adddf3+0x9c>
80008ddc:	00153313          	seqz	t1,a0
80008de0:	fff5c593          	not	a1,a1
80008de4:	40a00533          	neg	a0,a0
80008de8:	006585b3          	add	a1,a1,t1
80008dec:	0116b333          	sltu	t1,a3,a7
80008df0:	00f6f6b3          	and	a3,a3,a5
80008df4:	00031a63          	bnez	t1,80008e08 <__adddf3+0xb8>
80008df8:	00163313          	seqz	t1,a2
80008dfc:	fff6c693          	not	a3,a3
80008e00:	40c00633          	neg	a2,a2
80008e04:	006686b3          	add	a3,a3,t1
80008e08:	22580c63          	beq	a6,t0,80009040 <denormal>

80008e0c <sum>:
80008e0c:	fff80813          	addi	a6,a6,-1
80008e10:	00000713          	li	a4,0
80008e14:	02000313          	li	t1,32
80008e18:	0062ea63          	bltu	t0,t1,80008e2c <sum+0x20>
80008e1c:	00060713          	mv	a4,a2
80008e20:	00068613          	mv	a2,a3
80008e24:	41f6d693          	srai	a3,a3,0x1f
80008e28:	fe028293          	addi	t0,t0,-32
80008e2c:	02028863          	beqz	t0,80008e5c <sum+0x50>
80008e30:	405308b3          	sub	a7,t1,t0
80008e34:	01171333          	sll	t1,a4,a7
80008e38:	00575733          	srl	a4,a4,t0
80008e3c:	011617b3          	sll	a5,a2,a7
80008e40:	00f76733          	or	a4,a4,a5
80008e44:	00565633          	srl	a2,a2,t0
80008e48:	011697b3          	sll	a5,a3,a7
80008e4c:	00f66633          	or	a2,a2,a5
80008e50:	4056d6b3          	sra	a3,a3,t0
80008e54:	00603333          	snez	t1,t1
80008e58:	00676733          	or	a4,a4,t1
80008e5c:	00c50533          	add	a0,a0,a2
80008e60:	00c53633          	sltu	a2,a0,a2
80008e64:	00c686b3          	add	a3,a3,a2
80008e68:	00d585b3          	add	a1,a1,a3
80008e6c:	01f5d893          	srli	a7,a1,0x1f
80008e70:	01f89893          	slli	a7,a7,0x1f
80008e74:	0205d263          	bgez	a1,80008e98 <pos_or_zero>
80008e78:	40e00733          	neg	a4,a4
80008e7c:	00173793          	seqz	a5,a4
80008e80:	fff54513          	not	a0,a0
80008e84:	00f50533          	add	a0,a0,a5
80008e88:	00153313          	seqz	t1,a0
80008e8c:	00f37333          	and	t1,t1,a5
80008e90:	fff5c593          	not	a1,a1
80008e94:	006585b3          	add	a1,a1,t1

80008e98 <pos_or_zero>:
80008e98:	001007b7          	lui	a5,0x100
80008e9c:	06f5e463          	bltu	a1,a5,80008f04 <num_canc>
80008ea0:	00179793          	slli	a5,a5,0x1
80008ea4:	02f5ea63          	bltu	a1,a5,80008ed8 <rounding>
80008ea8:	00177793          	andi	a5,a4,1
80008eac:	00175713          	srli	a4,a4,0x1
80008eb0:	00f76733          	or	a4,a4,a5
80008eb4:	01f51793          	slli	a5,a0,0x1f
80008eb8:	00f76733          	or	a4,a4,a5
80008ebc:	00155513          	srli	a0,a0,0x1
80008ec0:	01f59793          	slli	a5,a1,0x1f
80008ec4:	00f56533          	or	a0,a0,a5
80008ec8:	0015d593          	srli	a1,a1,0x1
80008ecc:	00180813          	addi	a6,a6,1
80008ed0:	7fe00793          	li	a5,2046
80008ed4:	1ef85e63          	bge	a6,a5,800090d0 <inf>

80008ed8 <rounding>:
80008ed8:	800007b7          	lui	a5,0x80000
80008edc:	01481813          	slli	a6,a6,0x14
80008ee0:	010585b3          	add	a1,a1,a6
80008ee4:	00f76c63          	bltu	a4,a5,80008efc <complete_sum>
80008ee8:	00150513          	addi	a0,a0,1
80008eec:	00153613          	seqz	a2,a0
80008ef0:	00c585b3          	add	a1,a1,a2
80008ef4:	00f71463          	bne	a4,a5,80008efc <complete_sum>
80008ef8:	ffe57513          	andi	a0,a0,-2

80008efc <complete_sum>:
80008efc:	0115e5b3          	or	a1,a1,a7

80008f00 <exit>:
80008f00:	00008067          	ret

80008f04 <num_canc>:
80008f04:	00159593          	slli	a1,a1,0x1
80008f08:	01f55793          	srli	a5,a0,0x1f
80008f0c:	00f5e5b3          	or	a1,a1,a5
80008f10:	00151513          	slli	a0,a0,0x1
80008f14:	01f75793          	srli	a5,a4,0x1f
80008f18:	00f56533          	or	a0,a0,a5
80008f1c:	00171713          	slli	a4,a4,0x1
80008f20:	00080793          	mv	a5,a6
80008f24:	fff80813          	addi	a6,a6,-1
80008f28:	00078663          	beqz	a5,80008f34 <denormal_or_str_canc>
80008f2c:	001007b7          	lui	a5,0x100
80008f30:	faf5f4e3          	bgeu	a1,a5,80008ed8 <rounding>

80008f34 <denormal_or_str_canc>:
80008f34:	00059863          	bnez	a1,80008f44 <denormal_or_str_canc+0x10>
80008f38:	00050593          	mv	a1,a0
80008f3c:	00000513          	li	a0,0
80008f40:	02000713          	li	a4,32
80008f44:	00058693          	mv	a3,a1
80008f48:	000107b7          	lui	a5,0x10
80008f4c:	00f6f663          	bgeu	a3,a5,80008f58 <denormal_or_str_canc+0x24>
80008f50:	01069693          	slli	a3,a3,0x10
80008f54:	01070713          	addi	a4,a4,16
80008f58:	00479793          	slli	a5,a5,0x4
80008f5c:	00f6f663          	bgeu	a3,a5,80008f68 <denormal_or_str_canc+0x34>
80008f60:	00c69693          	slli	a3,a3,0xc
80008f64:	00c70713          	addi	a4,a4,12
80008f68:	00479793          	slli	a5,a5,0x4
80008f6c:	00f6f663          	bgeu	a3,a5,80008f78 <denormal_or_str_canc+0x44>
80008f70:	00869693          	slli	a3,a3,0x8
80008f74:	00870713          	addi	a4,a4,8
80008f78:	00479793          	slli	a5,a5,0x4
80008f7c:	00f6f663          	bgeu	a3,a5,80008f88 <denormal_or_str_canc+0x54>
80008f80:	00469693          	slli	a3,a3,0x4
80008f84:	00470713          	addi	a4,a4,4
80008f88:	00279793          	slli	a5,a5,0x2
80008f8c:	00f6f663          	bgeu	a3,a5,80008f98 <denormal_or_str_canc+0x64>
80008f90:	00269693          	slli	a3,a3,0x2
80008f94:	00270713          	addi	a4,a4,2
80008f98:	00179793          	slli	a5,a5,0x1
80008f9c:	00f6f663          	bgeu	a3,a5,80008fa8 <denormal_or_str_canc+0x74>
80008fa0:	00169693          	slli	a3,a3,0x1
80008fa4:	00170713          	addi	a4,a4,1
80008fa8:	ff570713          	addi	a4,a4,-11
80008fac:	04070e63          	beqz	a4,80009008 <denormal_canc>
80008fb0:	fe070613          	addi	a2,a4,-32
80008fb4:	02065263          	bgez	a2,80008fd8 <denormal_or_str_canc+0xa4>
80008fb8:	00c60613          	addi	a2,a2,12
80008fbc:	00c05c63          	blez	a2,80008fd4 <denormal_or_str_canc+0xa0>
80008fc0:	00c00693          	li	a3,12
80008fc4:	40c68633          	sub	a2,a3,a2
80008fc8:	00e59533          	sll	a0,a1,a4
80008fcc:	00c5d5b3          	srl	a1,a1,a2
80008fd0:	0200006f          	j	80008ff0 <denormal_or_str_canc+0xbc>
80008fd4:	01460613          	addi	a2,a2,20
80008fd8:	00c595b3          	sll	a1,a1,a2
80008fdc:	02000693          	li	a3,32
80008fe0:	40c686b3          	sub	a3,a3,a2
80008fe4:	00d556b3          	srl	a3,a0,a3
80008fe8:	00d5e5b3          	or	a1,a1,a3
80008fec:	00c51533          	sll	a0,a0,a2
80008ff0:	40e80833          	sub	a6,a6,a4
80008ff4:	00084a63          	bltz	a6,80009008 <denormal_canc>
80008ff8:	01481813          	slli	a6,a6,0x14
80008ffc:	010585b3          	add	a1,a1,a6
80009000:	0115e5b3          	or	a1,a1,a7
80009004:	efdff06f          	j	80008f00 <exit>

80009008 <denormal_canc>:
80009008:	41000833          	neg	a6,a6
8000900c:	fe080813          	addi	a6,a6,-32
80009010:	02085263          	bgez	a6,80009034 <denormal_canc+0x2c>
80009014:	02080713          	addi	a4,a6,32
80009018:	41000833          	neg	a6,a6
8000901c:	00e55533          	srl	a0,a0,a4
80009020:	01059833          	sll	a6,a1,a6
80009024:	01056533          	or	a0,a0,a6
80009028:	00e5d5b3          	srl	a1,a1,a4
8000902c:	0115e5b3          	or	a1,a1,a7
80009030:	ed1ff06f          	j	80008f00 <exit>
80009034:	0105d533          	srl	a0,a1,a6
80009038:	00088593          	mv	a1,a7
8000903c:	ec5ff06f          	j	80008f00 <exit>

80009040 <denormal>:
80009040:	001007b7          	lui	a5,0x100
80009044:	00f6c6b3          	xor	a3,a3,a5
80009048:	00080663          	beqz	a6,80009054 <denormal+0x14>
8000904c:	fff28293          	addi	t0,t0,-1
80009050:	00081663          	bnez	a6,8000905c <denormal+0x1c>
80009054:	00f5c5b3          	xor	a1,a1,a5
80009058:	00180813          	addi	a6,a6,1
8000905c:	db1ff06f          	j	80008e0c <sum>

80009060 <zero_operand>:
80009060:	00a867b3          	or	a5,a6,a0
80009064:	00079663          	bnez	a5,80009070 <zero_operand_return>
80009068:	00068593          	mv	a1,a3
8000906c:	00060513          	mv	a0,a2

80009070 <zero_operand_return>:
80009070:	e91ff06f          	j	80008f00 <exit>

80009074 <equal>:
80009074:	00d58863          	beq	a1,a3,80009084 <equal_samesign>
80009078:	00000593          	li	a1,0
8000907c:	00000513          	li	a0,0
80009080:	e81ff06f          	j	80008f00 <exit>

80009084 <equal_samesign>:
80009084:	0107f7b3          	and	a5,a5,a6
80009088:	02079263          	bnez	a5,800090ac <equal_nodenormal>
8000908c:	00080593          	mv	a1,a6
80009090:	01f55713          	srli	a4,a0,0x1f
80009094:	00e5e5b3          	or	a1,a1,a4
80009098:	00151513          	slli	a0,a0,0x1
8000909c:	00d5f663          	bgeu	a1,a3,800090a8 <equal_samesign+0x24>
800090a0:	800007b7          	lui	a5,0x80000
800090a4:	00f5e5b3          	or	a1,a1,a5
800090a8:	e59ff06f          	j	80008f00 <exit>

800090ac <equal_nodenormal>:
800090ac:	01585813          	srli	a6,a6,0x15
800090b0:	7fe00713          	li	a4,2046
800090b4:	00e837b3          	sltu	a5,a6,a4
800090b8:	00078863          	beqz	a5,800090c8 <equal_nodenormal+0x1c>
800090bc:	01479793          	slli	a5,a5,0x14
800090c0:	00f585b3          	add	a1,a1,a5
800090c4:	e3dff06f          	j	80008f00 <exit>
800090c8:	800007b7          	lui	a5,0x80000
800090cc:	00b7f8b3          	and	a7,a5,a1

800090d0 <inf>:
800090d0:	7ff005b7          	lui	a1,0x7ff00
800090d4:	00000513          	li	a0,0
800090d8:	0115e5b3          	or	a1,a1,a7
800090dc:	e25ff06f          	j	80008f00 <exit>

800090e0 <infnan_B_only>:
800090e0:	00068593          	mv	a1,a3
800090e4:	00060513          	mv	a0,a2
800090e8:	00088813          	mv	a6,a7
800090ec:	0100006f          	j	800090fc <infnan_end>

800090f0 <infnan>:
800090f0:	00f8f663          	bgeu	a7,a5,800090fc <infnan_end>
800090f4:	00058693          	mv	a3,a1
800090f8:	00050613          	mv	a2,a0

800090fc <infnan_end>:
800090fc:	00b81813          	slli	a6,a6,0xb
80009100:	00a86833          	or	a6,a6,a0
80009104:	00081863          	bnez	a6,80009114 <produce_nan>
80009108:	00c51663          	bne	a0,a2,80009114 <produce_nan>
8000910c:	00d59463          	bne	a1,a3,80009114 <produce_nan>
80009110:	df1ff06f          	j	80008f00 <exit>

80009114 <produce_nan>:
80009114:	7ff805b7          	lui	a1,0x7ff80
80009118:	00000513          	li	a0,0
8000911c:	de5ff06f          	j	80008f00 <exit>

80009120 <__subsf3>:
80009120:	800007b7          	lui	a5,0x80000
80009124:	00f5c5b3          	xor	a1,a1,a5

80009128 <__addsf3>:
80009128:	80000337          	lui	t1,0x80000
8000912c:	00b543b3          	xor	t2,a0,a1
80009130:	00657733          	and	a4,a0,t1
80009134:	00151613          	slli	a2,a0,0x1
80009138:	00159693          	slli	a3,a1,0x1
8000913c:	00d67863          	bgeu	a2,a3,8000914c <__addsf3+0x24>
80009140:	0065f733          	and	a4,a1,t1
80009144:	00159613          	slli	a2,a1,0x1
80009148:	00151693          	slli	a3,a0,0x1
8000914c:	ff0007b7          	lui	a5,0xff000
80009150:	16f67463          	bgeu	a2,a5,800092b8 <infnan>
80009154:	16f6f263          	bgeu	a3,a5,800092b8 <infnan>
80009158:	10d60863          	beq	a2,a3,80009268 <equal>
8000915c:	00761513          	slli	a0,a2,0x7
80009160:	00769593          	slli	a1,a3,0x7
80009164:	01865613          	srli	a2,a2,0x18
80009168:	0186d693          	srli	a3,a3,0x18
8000916c:	40d602b3          	sub	t0,a2,a3
80009170:	01a2b893          	sltiu	a7,t0,26
80009174:	0e088463          	beqz	a7,8000925c <return_greater>
80009178:	0c060c63          	beqz	a2,80009250 <both_denormal_zero>
8000917c:	fff60613          	addi	a2,a2,-1
80009180:	00656533          	or	a0,a0,t1
80009184:	0a068663          	beqz	a3,80009230 <lower_denormal>
80009188:	0065e5b3          	or	a1,a1,t1

8000918c <sum>:
8000918c:	0055d7b3          	srl	a5,a1,t0
80009190:	00128293          	addi	t0,t0,1
80009194:	405002b3          	neg	t0,t0
80009198:	005595b3          	sll	a1,a1,t0
8000919c:	0403c863          	bltz	t2,800091ec <diff_sign>
800091a0:	00f50533          	add	a0,a0,a5

800091a4 <pos_or_zero>:
800091a4:	00f57c63          	bgeu	a0,a5,800091bc <adjust>
800091a8:	00155513          	srli	a0,a0,0x1
800091ac:	00656533          	or	a0,a0,t1
800091b0:	00160613          	addi	a2,a2,1
800091b4:	0fe00793          	li	a5,254
800091b8:	0ef65c63          	bge	a2,a5,800092b0 <inf>

800091bc <adjust>:
800091bc:	0015d593          	srli	a1,a1,0x1
800091c0:	01851693          	slli	a3,a0,0x18
800091c4:	00b6e6b3          	or	a3,a3,a1

800091c8 <return_a0>:
800091c8:	00855513          	srli	a0,a0,0x8

800091cc <rounding>:
800091cc:	0066e863          	bltu	a3,t1,800091dc <exp_sign_and_exit>
800091d0:	00150513          	addi	a0,a0,1
800091d4:	00669463          	bne	a3,t1,800091dc <exp_sign_and_exit>
800091d8:	ffe57513          	andi	a0,a0,-2

800091dc <exp_sign_and_exit>:
800091dc:	01761613          	slli	a2,a2,0x17
800091e0:	00c50533          	add	a0,a0,a2

800091e4 <sign_and_exit>:
800091e4:	00e56533          	or	a0,a0,a4

800091e8 <exit>:
800091e8:	00008067          	ret

800091ec <diff_sign>:
800091ec:	00b036b3          	snez	a3,a1
800091f0:	00d7e7b3          	or	a5,a5,a3
800091f4:	40f50533          	sub	a0,a0,a5
800091f8:	fc0542e3          	bltz	a0,800091bc <adjust>

800091fc <num_canc>:
800091fc:	00151513          	slli	a0,a0,0x1
80009200:	00060793          	mv	a5,a2
80009204:	fff60613          	addi	a2,a2,-1
80009208:	00078863          	beqz	a5,80009218 <denormal_or_strong_cancellation>
8000920c:	fa6578e3          	bgeu	a0,t1,800091bc <adjust>

80009210 <clz_loop>:
80009210:	00151513          	slli	a0,a0,0x1
80009214:	fff60613          	addi	a2,a2,-1

80009218 <denormal_or_strong_cancellation>:
80009218:	fe656ce3          	bltu	a0,t1,80009210 <clz_loop>
8000921c:	00855513          	srli	a0,a0,0x8
80009220:	fa065ee3          	bgez	a2,800091dc <exp_sign_and_exit>

80009224 <denormal_cancellation>:
80009224:	40c00633          	neg	a2,a2
80009228:	00c55533          	srl	a0,a0,a2
8000922c:	fb9ff06f          	j	800091e4 <sign_and_exit>

80009230 <lower_denormal>:
80009230:	fff34893          	not	a7,t1
80009234:	0115f5b3          	and	a1,a1,a7
80009238:	fff28293          	addi	t0,t0,-1
8000923c:	f51ff06f          	j	8000918c <sum>

80009240 <both_denormal>:
80009240:	fff34893          	not	a7,t1
80009244:	0115f5b3          	and	a1,a1,a7
80009248:	01157533          	and	a0,a0,a7
8000924c:	f41ff06f          	j	8000918c <sum>

80009250 <both_denormal_zero>:
80009250:	fe0598e3          	bnez	a1,80009240 <both_denormal>
80009254:	00855513          	srli	a0,a0,0x8
80009258:	f85ff06f          	j	800091dc <exp_sign_and_exit>

8000925c <return_greater>:
8000925c:	00151513          	slli	a0,a0,0x1
80009260:	00955513          	srli	a0,a0,0x9
80009264:	f79ff06f          	j	800091dc <exp_sign_and_exit>

80009268 <equal>:
80009268:	0003d663          	bgez	t2,80009274 <equal_samesign>

8000926c <zero>:
8000926c:	00000513          	li	a0,0
80009270:	00008067          	ret

80009274 <equal_samesign>:
80009274:	00c7f7b3          	and	a5,a5,a2
80009278:	00079c63          	bnez	a5,80009290 <equal_nodenormal>
8000927c:	00060513          	mv	a0,a2
80009280:	f6b674e3          	bgeu	a2,a1,800091e8 <exit>
80009284:	800007b7          	lui	a5,0x80000
80009288:	00f56533          	or	a0,a0,a5
8000928c:	00008067          	ret

80009290 <equal_nodenormal>:
80009290:	01865613          	srli	a2,a2,0x18
80009294:	0fe63793          	sltiu	a5,a2,254
80009298:	00078863          	beqz	a5,800092a8 <equal_nodenormal+0x18>
8000929c:	008007b7          	lui	a5,0x800
800092a0:	00f50533          	add	a0,a0,a5
800092a4:	00008067          	ret
800092a8:	01f79793          	slli	a5,a5,0x1f
800092ac:	00a7f6b3          	and	a3,a5,a0

800092b0 <inf>:
800092b0:	7f800537          	lui	a0,0x7f800
800092b4:	f31ff06f          	j	800091e4 <sign_and_exit>

800092b8 <infnan>:
800092b8:	00c7e663          	bltu	a5,a2,800092c4 <produce_nan>
800092bc:	fed61ae3          	bne	a2,a3,800092b0 <inf>

800092c0 <inf_inf>:
800092c0:	f2b504e3          	beq	a0,a1,800091e8 <exit>

800092c4 <produce_nan>:
800092c4:	7fc00537          	lui	a0,0x7fc00
800092c8:	00008067          	ret

800092cc <__bswapsi2>:
800092cc:	01851293          	slli	t0,a0,0x18
800092d0:	01855313          	srli	t1,a0,0x18
800092d4:	00851393          	slli	t2,a0,0x8
800092d8:	00ff0e37          	lui	t3,0xff0
800092dc:	01c3f3b3          	and	t2,t2,t3
800092e0:	00855e13          	srli	t3,a0,0x8
800092e4:	00010eb7          	lui	t4,0x10
800092e8:	f00e8e93          	addi	t4,t4,-256 # ff00 <_start-0x7fff0100>
800092ec:	01de7e33          	and	t3,t3,t4
800092f0:	0062e2b3          	or	t0,t0,t1
800092f4:	0072e2b3          	or	t0,t0,t2
800092f8:	01c2e2b3          	or	t0,t0,t3
800092fc:	00028513          	mv	a0,t0
80009300:	00008067          	ret

80009304 <__divdf3>:
80009304:	ffe007b7          	lui	a5,0xffe00
80009308:	00159713          	slli	a4,a1,0x1
8000930c:	00169813          	slli	a6,a3,0x1
80009310:	32f77463          	bgeu	a4,a5,80009638 <inf_nan>
80009314:	32f87263          	bgeu	a6,a5,80009638 <inf_nan>
80009318:	01575713          	srli	a4,a4,0x15
8000931c:	01585813          	srli	a6,a6,0x15
80009320:	2e070663          	beqz	a4,8000960c <zero_denormal>
80009324:	2e080463          	beqz	a6,8000960c <zero_denormal>

80009328 <normal_case>:
80009328:	41070733          	sub	a4,a4,a6
8000932c:	00d5c2b3          	xor	t0,a1,a3
80009330:	00c69693          	slli	a3,a3,0xc
80009334:	00c59593          	slli	a1,a1,0xc
80009338:	100007b7          	lui	a5,0x10000
8000933c:	0046d693          	srli	a3,a3,0x4
80009340:	00f6e6b3          	or	a3,a3,a5
80009344:	01865313          	srli	t1,a2,0x18
80009348:	0066e6b3          	or	a3,a3,t1
8000934c:	00861613          	slli	a2,a2,0x8
80009350:	0045d313          	srli	t1,a1,0x4
80009354:	0067e7b3          	or	a5,a5,t1
80009358:	01855313          	srli	t1,a0,0x18
8000935c:	0067e7b3          	or	a5,a5,t1
80009360:	00851813          	slli	a6,a0,0x8
80009364:	80000337          	lui	t1,0x80000
80009368:	0062f5b3          	and	a1,t0,t1
8000936c:	40d78333          	sub	t1,a5,a3
80009370:	00133313          	seqz	t1,t1
80009374:	00c833b3          	sltu	t2,a6,a2
80009378:	00737333          	and	t1,t1,t2
8000937c:	00d7b2b3          	sltu	t0,a5,a3
80009380:	00536333          	or	t1,t1,t0
80009384:	3fe70713          	addi	a4,a4,1022
80009388:	40670733          	sub	a4,a4,t1
8000938c:	00030a63          	beqz	t1,800093a0 <normal_case+0x78>
80009390:	00165613          	srli	a2,a2,0x1
80009394:	01f69313          	slli	t1,a3,0x1f
80009398:	00666633          	or	a2,a2,t1
8000939c:	0016d693          	srli	a3,a3,0x1
800093a0:	00c833b3          	sltu	t2,a6,a2
800093a4:	40c80833          	sub	a6,a6,a2
800093a8:	40d787b3          	sub	a5,a5,a3
800093ac:	407787b3          	sub	a5,a5,t2
800093b0:	00165613          	srli	a2,a2,0x1
800093b4:	01f69313          	slli	t1,a3,0x1f
800093b8:	00666633          	or	a2,a2,t1
800093bc:	0016d693          	srli	a3,a3,0x1
800093c0:	00100537          	lui	a0,0x100
800093c4:	000803b7          	lui	t2,0x80

800093c8 <div_loop_start>:
800093c8:	00c83333          	sltu	t1,a6,a2
800093cc:	40d782b3          	sub	t0,a5,a3
800093d0:	406282b3          	sub	t0,t0,t1
800093d4:	0002c863          	bltz	t0,800093e4 <div_loop_start+0x1c>
800093d8:	40c80833          	sub	a6,a6,a2
800093dc:	00028793          	mv	a5,t0
800093e0:	00756533          	or	a0,a0,t2
800093e4:	00165613          	srli	a2,a2,0x1
800093e8:	01f69293          	slli	t0,a3,0x1f
800093ec:	00566633          	or	a2,a2,t0
800093f0:	0016d693          	srli	a3,a3,0x1
800093f4:	00c83333          	sltu	t1,a6,a2
800093f8:	40d782b3          	sub	t0,a5,a3
800093fc:	406282b3          	sub	t0,t0,t1
80009400:	0002ca63          	bltz	t0,80009414 <div_loop_start+0x4c>
80009404:	40c80833          	sub	a6,a6,a2
80009408:	00028793          	mv	a5,t0
8000940c:	0013d293          	srli	t0,t2,0x1
80009410:	00556533          	or	a0,a0,t0
80009414:	00165613          	srli	a2,a2,0x1
80009418:	01f69293          	slli	t0,a3,0x1f
8000941c:	00566633          	or	a2,a2,t0
80009420:	0016d693          	srli	a3,a3,0x1
80009424:	00c83333          	sltu	t1,a6,a2
80009428:	40d782b3          	sub	t0,a5,a3
8000942c:	406282b3          	sub	t0,t0,t1
80009430:	0002ca63          	bltz	t0,80009444 <div_loop_start+0x7c>
80009434:	40c80833          	sub	a6,a6,a2
80009438:	00028793          	mv	a5,t0
8000943c:	0023d293          	srli	t0,t2,0x2
80009440:	00556533          	or	a0,a0,t0
80009444:	00165613          	srli	a2,a2,0x1
80009448:	01f69293          	slli	t0,a3,0x1f
8000944c:	00566633          	or	a2,a2,t0
80009450:	0016d693          	srli	a3,a3,0x1
80009454:	00c83333          	sltu	t1,a6,a2
80009458:	40d782b3          	sub	t0,a5,a3
8000945c:	406282b3          	sub	t0,t0,t1
80009460:	0002ca63          	bltz	t0,80009474 <div_loop_start+0xac>
80009464:	40c80833          	sub	a6,a6,a2
80009468:	00028793          	mv	a5,t0
8000946c:	0033d293          	srli	t0,t2,0x3
80009470:	00556533          	or	a0,a0,t0
80009474:	0107e2b3          	or	t0,a5,a6
80009478:	04028463          	beqz	t0,800094c0 <div_loop_exit>
8000947c:	00479793          	slli	a5,a5,0x4
80009480:	01c85293          	srli	t0,a6,0x1c
80009484:	0057e7b3          	or	a5,a5,t0
80009488:	00481813          	slli	a6,a6,0x4
8000948c:	00369693          	slli	a3,a3,0x3
80009490:	01d65293          	srli	t0,a2,0x1d
80009494:	0056e6b3          	or	a3,a3,t0
80009498:	00361613          	slli	a2,a2,0x3
8000949c:	0043d393          	srli	t2,t2,0x4
800094a0:	f20394e3          	bnez	t2,800093c8 <div_loop_start>
800094a4:	001002b7          	lui	t0,0x100
800094a8:	00b2f2b3          	and	t0,t0,a1
800094ac:	02029463          	bnez	t0,800094d4 <checks>
800094b0:	00a5e5b3          	or	a1,a1,a0
800094b4:	00000513          	li	a0,0
800094b8:	800003b7          	lui	t2,0x80000
800094bc:	f0dff06f          	j	800093c8 <div_loop_start>

800094c0 <div_loop_exit>:
800094c0:	001002b7          	lui	t0,0x100
800094c4:	00b2f2b3          	and	t0,t0,a1
800094c8:	00029663          	bnez	t0,800094d4 <checks>
800094cc:	00a5e5b3          	or	a1,a1,a0
800094d0:	00000513          	li	a0,0

800094d4 <checks>:
800094d4:	f0370393          	addi	t2,a4,-253
800094d8:	00e3f663          	bgeu	t2,a4,800094e4 <exp_round>
800094dc:	70000293          	li	t0,1792
800094e0:	0272ea63          	bltu	t0,t2,80009514 <und_ov_flow>

800094e4 <exp_round>:
800094e4:	01471713          	slli	a4,a4,0x14
800094e8:	00e585b3          	add	a1,a1,a4
800094ec:	02d7e263          	bltu	a5,a3,80009510 <exit>
800094f0:	00f6ea63          	bltu	a3,a5,80009504 <round_up>
800094f4:	00c86e63          	bltu	a6,a2,80009510 <exit>
800094f8:	01066663          	bltu	a2,a6,80009504 <round_up>
800094fc:	01f51293          	slli	t0,a0,0x1f
80009500:	00028863          	beqz	t0,80009510 <exit>

80009504 <round_up>:
80009504:	00150513          	addi	a0,a0,1 # 100001 <_start-0x7fefffff>
80009508:	00153293          	seqz	t0,a0
8000950c:	005585b3          	add	a1,a1,t0

80009510 <exit>:
80009510:	00008067          	ret

80009514 <und_ov_flow>:
80009514:	1472c463          	blt	t0,t2,8000965c <ovf>
80009518:	fcb00313          	li	t1,-53
8000951c:	10674663          	blt	a4,t1,80009628 <signed_zero>

80009520 <denormal_end>:
80009520:	00f86833          	or	a6,a6,a5
80009524:	01003833          	snez	a6,a6
80009528:	80000f37          	lui	t5,0x80000
8000952c:	00000e93          	li	t4,0
80009530:	00bf7f33          	and	t5,t5,a1
80009534:	01e5c5b3          	xor	a1,a1,t5
80009538:	40e00733          	neg	a4,a4
8000953c:	02000793          	li	a5,32
80009540:	04f75663          	bge	a4,a5,8000958c <den_rounding+0x28>
80009544:	40e787b3          	sub	a5,a5,a4
80009548:	01d03633          	snez	a2,t4
8000954c:	00f51eb3          	sll	t4,a0,a5
80009550:	00ceeeb3          	or	t4,t4,a2
80009554:	00e55533          	srl	a0,a0,a4
80009558:	00f59633          	sll	a2,a1,a5
8000955c:	00c56533          	or	a0,a0,a2
80009560:	00e5d5b3          	srl	a1,a1,a4

80009564 <den_rounding>:
80009564:	01e5e5b3          	or	a1,a1,t5
80009568:	fa0ed4e3          	bgez	t4,80009510 <exit>
8000956c:	00150513          	addi	a0,a0,1
80009570:	00153293          	seqz	t0,a0
80009574:	005585b3          	add	a1,a1,t0
80009578:	001e9e93          	slli	t4,t4,0x1
8000957c:	010eeeb3          	or	t4,t4,a6
80009580:	f80e98e3          	bnez	t4,80009510 <exit>
80009584:	ffe57513          	andi	a0,a0,-2
80009588:	00008067          	ret
8000958c:	fe070713          	addi	a4,a4,-32
80009590:	00050e93          	mv	t4,a0
80009594:	00058513          	mv	a0,a1
80009598:	00000593          	li	a1,0
8000959c:	fc0704e3          	beqz	a4,80009564 <den_rounding>
800095a0:	40e787b3          	sub	a5,a5,a4
800095a4:	fa5ff06f          	j	80009548 <denormal_end+0x28>

800095a8 <denormal>:
800095a8:	800007b7          	lui	a5,0x80000
800095ac:	00b7de13          	srli	t3,a5,0xb
800095b0:	00f5f333          	and	t1,a1,a5
800095b4:	02071263          	bnez	a4,800095d8 <denormal+0x30>
800095b8:	00159593          	slli	a1,a1,0x1
800095bc:	01f55f13          	srli	t5,a0,0x1f
800095c0:	01e5e5b3          	or	a1,a1,t5
800095c4:	00151513          	slli	a0,a0,0x1
800095c8:	01c5f3b3          	and	t2,a1,t3
800095cc:	00039663          	bnez	t2,800095d8 <denormal+0x30>
800095d0:	fff70713          	addi	a4,a4,-1
800095d4:	fe5ff06f          	j	800095b8 <denormal+0x10>
800095d8:	0065e5b3          	or	a1,a1,t1
800095dc:	00d7f7b3          	and	a5,a5,a3
800095e0:	02081263          	bnez	a6,80009604 <denormal+0x5c>
800095e4:	00169693          	slli	a3,a3,0x1
800095e8:	01f65f13          	srli	t5,a2,0x1f
800095ec:	01e6e6b3          	or	a3,a3,t5
800095f0:	00161613          	slli	a2,a2,0x1
800095f4:	01c6f3b3          	and	t2,a3,t3
800095f8:	00039663          	bnez	t2,80009604 <denormal+0x5c>
800095fc:	fff80813          	addi	a6,a6,-1
80009600:	fe5ff06f          	j	800095e4 <denormal+0x3c>
80009604:	00f6e6b3          	or	a3,a3,a5
80009608:	d21ff06f          	j	80009328 <normal_case>

8000960c <zero_denormal>:
8000960c:	00169793          	slli	a5,a3,0x1
80009610:	00c7e7b3          	or	a5,a5,a2
80009614:	00159393          	slli	t2,a1,0x1
80009618:	00a3e3b3          	or	t2,t2,a0
8000961c:	04078c63          	beqz	a5,80009674 <div_by_zero>
80009620:	f80394e3          	bnez	t2,800095a8 <denormal>

80009624 <zero>:
80009624:	00d5c5b3          	xor	a1,a1,a3

80009628 <signed_zero>:
80009628:	01f5d593          	srli	a1,a1,0x1f
8000962c:	01f59593          	slli	a1,a1,0x1f
80009630:	00000513          	li	a0,0
80009634:	00008067          	ret

80009638 <inf_nan>:
80009638:	00a032b3          	snez	t0,a0
8000963c:	00e2e2b3          	or	t0,t0,a4
80009640:	0257ec63          	bltu	a5,t0,80009678 <nan>
80009644:	00c032b3          	snez	t0,a2
80009648:	0102e2b3          	or	t0,t0,a6
8000964c:	0257e663          	bltu	a5,t0,80009678 <nan>
80009650:	03070463          	beq	a4,a6,80009678 <nan>
80009654:	fcf808e3          	beq	a6,a5,80009624 <zero>

80009658 <inf>:
80009658:	00d5c5b3          	xor	a1,a1,a3

8000965c <ovf>:
8000965c:	7ff006b7          	lui	a3,0x7ff00
80009660:	01f5d593          	srli	a1,a1,0x1f
80009664:	01f59593          	slli	a1,a1,0x1f
80009668:	00d5e5b3          	or	a1,a1,a3
8000966c:	00000513          	li	a0,0
80009670:	00008067          	ret

80009674 <div_by_zero>:
80009674:	fe0392e3          	bnez	t2,80009658 <inf>

80009678 <nan>:
80009678:	7ff805b7          	lui	a1,0x7ff80
8000967c:	00000513          	li	a0,0
80009680:	00008067          	ret

80009684 <__divsf3>:
80009684:	800002b7          	lui	t0,0x80000
80009688:	ff0007b7          	lui	a5,0xff000
8000968c:	00151613          	slli	a2,a0,0x1
80009690:	00159693          	slli	a3,a1,0x1
80009694:	14f67463          	bgeu	a2,a5,800097dc <inf_nan>
80009698:	14f6f263          	bgeu	a3,a5,800097dc <inf_nan>
8000969c:	01865613          	srli	a2,a2,0x18
800096a0:	0186d693          	srli	a3,a3,0x18
800096a4:	10060e63          	beqz	a2,800097c0 <zero_denormal>
800096a8:	10068c63          	beqz	a3,800097c0 <zero_denormal>

800096ac <normal_case>:
800096ac:	40d60633          	sub	a2,a2,a3
800096b0:	00b543b3          	xor	t2,a0,a1
800096b4:	00951513          	slli	a0,a0,0x9
800096b8:	00959593          	slli	a1,a1,0x9
800096bc:	100006b7          	lui	a3,0x10000
800096c0:	00455513          	srli	a0,a0,0x4
800096c4:	0045d593          	srli	a1,a1,0x4
800096c8:	00d5e5b3          	or	a1,a1,a3
800096cc:	00a6e6b3          	or	a3,a3,a0
800096d0:	0053f533          	and	a0,t2,t0
800096d4:	00b6a7b3          	slt	a5,a3,a1
800096d8:	00f696b3          	sll	a3,a3,a5
800096dc:	07e60613          	addi	a2,a2,126
800096e0:	40f60633          	sub	a2,a2,a5
800096e4:	008007b7          	lui	a5,0x800

800096e8 <div_loop_start>:
800096e8:	00b6c663          	blt	a3,a1,800096f4 <div_loop_start+0xc>
800096ec:	40b686b3          	sub	a3,a3,a1
800096f0:	00f56533          	or	a0,a0,a5
800096f4:	00169693          	slli	a3,a3,0x1
800096f8:	00068663          	beqz	a3,80009704 <div_loop_exit>
800096fc:	0017d793          	srli	a5,a5,0x1
80009700:	fe0794e3          	bnez	a5,800096e8 <div_loop_start>

80009704 <div_loop_exit>:
80009704:	0fe00393          	li	t2,254
80009708:	02767063          	bgeu	a2,t2,80009728 <und_ov_flow>
8000970c:	01761613          	slli	a2,a2,0x17
80009710:	00c50533          	add	a0,a0,a2
80009714:	00b6e863          	bltu	a3,a1,80009724 <exit>
80009718:	00150513          	addi	a0,a0,1
8000971c:	00b69463          	bne	a3,a1,80009724 <exit>
80009720:	ffe57513          	andi	a0,a0,-2

80009724 <exit>:
80009724:	00008067          	ret

80009728 <und_ov_flow>:
80009728:	0cc04463          	bgtz	a2,800097f0 <ovf>
8000972c:	01a60393          	addi	t2,a2,26
80009730:	0003d663          	bgez	t2,8000973c <denormal_end>
80009734:	00557533          	and	a0,a0,t0
80009738:	00008067          	ret

8000973c <denormal_end>:
8000973c:	40c007b3          	neg	a5,a2
80009740:	00a2f3b3          	and	t2,t0,a0
80009744:	00754533          	xor	a0,a0,t2
80009748:	02060613          	addi	a2,a2,32
8000974c:	00c51633          	sll	a2,a0,a2
80009750:	00f55533          	srl	a0,a0,a5
80009754:	00756533          	or	a0,a0,t2
80009758:	0016d693          	srli	a3,a3,0x1
8000975c:	00d66633          	or	a2,a2,a3
80009760:	fc5662e3          	bltu	a2,t0,80009724 <exit>
80009764:	00150513          	addi	a0,a0,1
80009768:	fa561ee3          	bne	a2,t0,80009724 <exit>
8000976c:	ffe57513          	andi	a0,a0,-2
80009770:	00008067          	ret

80009774 <denormal>:
80009774:	008003b7          	lui	t2,0x800
80009778:	00a2f733          	and	a4,t0,a0
8000977c:	00061c63          	bnez	a2,80009794 <denormal+0x20>
80009780:	00151513          	slli	a0,a0,0x1
80009784:	007577b3          	and	a5,a0,t2
80009788:	00079663          	bnez	a5,80009794 <denormal+0x20>
8000978c:	fff60613          	addi	a2,a2,-1
80009790:	ff1ff06f          	j	80009780 <denormal+0xc>
80009794:	00e56533          	or	a0,a0,a4
80009798:	80000737          	lui	a4,0x80000
8000979c:	00b77733          	and	a4,a4,a1
800097a0:	00069c63          	bnez	a3,800097b8 <denormal+0x44>
800097a4:	00159593          	slli	a1,a1,0x1
800097a8:	0075f7b3          	and	a5,a1,t2
800097ac:	00079663          	bnez	a5,800097b8 <denormal+0x44>
800097b0:	fff68693          	addi	a3,a3,-1 # fffffff <_start-0x70000001>
800097b4:	ff1ff06f          	j	800097a4 <denormal+0x30>
800097b8:	00e5e5b3          	or	a1,a1,a4
800097bc:	ef1ff06f          	j	800096ac <normal_case>

800097c0 <zero_denormal>:
800097c0:	00159793          	slli	a5,a1,0x1
800097c4:	00151393          	slli	t2,a0,0x1
800097c8:	02078c63          	beqz	a5,80009800 <div_by_zero>
800097cc:	fa0394e3          	bnez	t2,80009774 <denormal>

800097d0 <zero>:
800097d0:	00b54533          	xor	a0,a0,a1
800097d4:	00557533          	and	a0,a0,t0
800097d8:	00008067          	ret

800097dc <inf_nan>:
800097dc:	02c7e463          	bltu	a5,a2,80009804 <nan>
800097e0:	02d7e263          	bltu	a5,a3,80009804 <nan>
800097e4:	02d60063          	beq	a2,a3,80009804 <nan>
800097e8:	fef684e3          	beq	a3,a5,800097d0 <zero>

800097ec <inf>:
800097ec:	00b54533          	xor	a0,a0,a1

800097f0 <ovf>:
800097f0:	00557533          	and	a0,a0,t0
800097f4:	7f8002b7          	lui	t0,0x7f800
800097f8:	00556533          	or	a0,a0,t0
800097fc:	00008067          	ret

80009800 <div_by_zero>:
80009800:	fe0396e3          	bnez	t2,800097ec <inf>

80009804 <nan>:
80009804:	7fc00537          	lui	a0,0x7fc00
80009808:	00008067          	ret

8000980c <__eqdf2>:
8000980c:	00a03733          	snez	a4,a0
80009810:	00159793          	slli	a5,a1,0x1
80009814:	00e7e7b3          	or	a5,a5,a4
80009818:	ffe00737          	lui	a4,0xffe00
8000981c:	02f76a63          	bltu	a4,a5,80009850 <nan>
80009820:	00c037b3          	snez	a5,a2
80009824:	00169293          	slli	t0,a3,0x1
80009828:	00f2e2b3          	or	t0,t0,a5
8000982c:	02576263          	bltu	a4,t0,80009850 <nan>
80009830:	00d5e733          	or	a4,a1,a3
80009834:	00171713          	slli	a4,a4,0x1
80009838:	00a76733          	or	a4,a4,a0
8000983c:	00c76733          	or	a4,a4,a2
80009840:	00070863          	beqz	a4,80009850 <nan>
80009844:	00c54533          	xor	a0,a0,a2
80009848:	00d5c5b3          	xor	a1,a1,a3
8000984c:	00a5e733          	or	a4,a1,a0

80009850 <nan>:
80009850:	00e03533          	snez	a0,a4
80009854:	00008067          	ret

80009858 <__eqsf2>:
80009858:	ff0007b7          	lui	a5,0xff000
8000985c:	00151613          	slli	a2,a0,0x1
80009860:	00c7ec63          	bltu	a5,a2,80009878 <end>
80009864:	00159693          	slli	a3,a1,0x1
80009868:	00d7e863          	bltu	a5,a3,80009878 <end>
8000986c:	00d667b3          	or	a5,a2,a3
80009870:	00078463          	beqz	a5,80009878 <end>
80009874:	00b547b3          	xor	a5,a0,a1

80009878 <end>:
80009878:	00f03533          	snez	a0,a5
8000987c:	00008067          	ret

80009880 <__extendsfdf2>:
80009880:	800005b7          	lui	a1,0x80000
80009884:	00a5f5b3          	and	a1,a1,a0
80009888:	00151693          	slli	a3,a0,0x1
8000988c:	4186d713          	srai	a4,a3,0x18
80009890:	02070e63          	beqz	a4,800098cc <zero_den>
80009894:	4036d793          	srai	a5,a3,0x3
80009898:	0017d793          	srli	a5,a5,0x1
8000989c:	01c69513          	slli	a0,a3,0x1c
800098a0:	00f5e5b3          	or	a1,a1,a5
800098a4:	00170713          	addi	a4,a4,1 # ffe00001 <nnames+0x7fde2b05>
800098a8:	00070863          	beqz	a4,800098b8 <inf_nan>
800098ac:	380007b7          	lui	a5,0x38000
800098b0:	00f5c5b3          	xor	a1,a1,a5

800098b4 <exit>:
800098b4:	00008067          	ret

800098b8 <inf_nan>:
800098b8:	00869693          	slli	a3,a3,0x8
800098bc:	fe068ce3          	beqz	a3,800098b4 <exit>
800098c0:	00080737          	lui	a4,0x80
800098c4:	00e5e5b3          	or	a1,a1,a4
800098c8:	00008067          	ret

800098cc <zero_den>:
800098cc:	00069663          	bnez	a3,800098d8 <denormal>
800098d0:	00000513          	li	a0,0
800098d4:	00008067          	ret

800098d8 <denormal>:
800098d8:	010007b7          	lui	a5,0x1000
800098dc:	38000713          	li	a4,896

800098e0 <clz_loop>:
800098e0:	00169693          	slli	a3,a3,0x1
800098e4:	fff70713          	addi	a4,a4,-1 # 7ffff <_start-0x7ff80001>
800098e8:	fef6ece3          	bltu	a3,a5,800098e0 <clz_loop>
800098ec:	01c69513          	slli	a0,a3,0x1c
800098f0:	0046d693          	srli	a3,a3,0x4
800098f4:	01471713          	slli	a4,a4,0x14
800098f8:	00e686b3          	add	a3,a3,a4
800098fc:	00d5e5b3          	or	a1,a1,a3
80009900:	00008067          	ret

80009904 <__fixdfdi>:
80009904:	80000737          	lui	a4,0x80000
80009908:	41f5d793          	srai	a5,a1,0x1f
8000990c:	00159593          	slli	a1,a1,0x1
80009910:	0155d613          	srli	a2,a1,0x15
80009914:	c0160613          	addi	a2,a2,-1023
80009918:	08064663          	bltz	a2,800099a4 <undflow>
8000991c:	00a59593          	slli	a1,a1,0xa
80009920:	01555693          	srli	a3,a0,0x15
80009924:	00d5e5b3          	or	a1,a1,a3
80009928:	00b51513          	slli	a0,a0,0xb
8000992c:	00e5e5b3          	or	a1,a1,a4
80009930:	40c00633          	neg	a2,a2
80009934:	01f60613          	addi	a2,a2,31
80009938:	02064263          	bltz	a2,8000995c <ge_32>
8000993c:	00c5d533          	srl	a0,a1,a2
80009940:	00000593          	li	a1,0
80009944:	00078a63          	beqz	a5,80009958 <__fixdfdi+0x54>
80009948:	40a00533          	neg	a0,a0
8000994c:	fff5c593          	not	a1,a1
80009950:	00153713          	seqz	a4,a0
80009954:	00e585b3          	add	a1,a1,a4
80009958:	00008067          	ret

8000995c <ge_32>:
8000995c:	02060613          	addi	a2,a2,32
80009960:	02c05863          	blez	a2,80009990 <ovflow>
80009964:	40c00733          	neg	a4,a2
80009968:	00e596b3          	sll	a3,a1,a4
8000996c:	00c55533          	srl	a0,a0,a2
80009970:	00d56533          	or	a0,a0,a3
80009974:	00c5d5b3          	srl	a1,a1,a2
80009978:	00078a63          	beqz	a5,8000998c <ge_32+0x30>
8000997c:	40a00533          	neg	a0,a0
80009980:	fff5c593          	not	a1,a1
80009984:	00153713          	seqz	a4,a0
80009988:	00e585b3          	add	a1,a1,a4
8000998c:	00008067          	ret

80009990 <ovflow>:
80009990:	fff00513          	li	a0,-1
80009994:	fff74593          	not	a1,a4
80009998:	00f54533          	xor	a0,a0,a5
8000999c:	00f5c5b3          	xor	a1,a1,a5
800099a0:	00008067          	ret

800099a4 <undflow>:
800099a4:	00000513          	li	a0,0
800099a8:	00000593          	li	a1,0
800099ac:	00008067          	ret

800099b0 <__fixdfsi>:
800099b0:	80000737          	lui	a4,0x80000
800099b4:	41f5d793          	srai	a5,a1,0x1f
800099b8:	00159593          	slli	a1,a1,0x1
800099bc:	0155d613          	srli	a2,a1,0x15
800099c0:	c0160613          	addi	a2,a2,-1023
800099c4:	02064e63          	bltz	a2,80009a00 <undflow>
800099c8:	40c00633          	neg	a2,a2
800099cc:	01f60613          	addi	a2,a2,31
800099d0:	02c05263          	blez	a2,800099f4 <ovflow>
800099d4:	00a59593          	slli	a1,a1,0xa
800099d8:	01555513          	srli	a0,a0,0x15
800099dc:	00a5e5b3          	or	a1,a1,a0
800099e0:	00e5e5b3          	or	a1,a1,a4
800099e4:	00c5d533          	srl	a0,a1,a2
800099e8:	00f54533          	xor	a0,a0,a5
800099ec:	40f50533          	sub	a0,a0,a5
800099f0:	00008067          	ret

800099f4 <ovflow>:
800099f4:	fff70513          	addi	a0,a4,-1 # 7fffffff <_start-0x1>
800099f8:	00f54533          	xor	a0,a0,a5
800099fc:	00008067          	ret

80009a00 <undflow>:
80009a00:	00000513          	li	a0,0
80009a04:	00008067          	ret

80009a08 <__fixsfdi>:
80009a08:	80000737          	lui	a4,0x80000
80009a0c:	41f55793          	srai	a5,a0,0x1f
80009a10:	00151513          	slli	a0,a0,0x1
80009a14:	01855613          	srli	a2,a0,0x18
80009a18:	f8160613          	addi	a2,a2,-127
80009a1c:	08064063          	bltz	a2,80009a9c <undflow>
80009a20:	00751513          	slli	a0,a0,0x7
80009a24:	00e56533          	or	a0,a0,a4
80009a28:	40c00633          	neg	a2,a2
80009a2c:	01f60613          	addi	a2,a2,31
80009a30:	02064263          	bltz	a2,80009a54 <ge_32>
80009a34:	00000593          	li	a1,0
80009a38:	00c55533          	srl	a0,a0,a2
80009a3c:	00078a63          	beqz	a5,80009a50 <__fixsfdi+0x48>
80009a40:	40a00533          	neg	a0,a0
80009a44:	fff5c593          	not	a1,a1
80009a48:	00153713          	seqz	a4,a0
80009a4c:	00e585b3          	add	a1,a1,a4
80009a50:	00008067          	ret

80009a54 <ge_32>:
80009a54:	02060613          	addi	a2,a2,32
80009a58:	02c05863          	blez	a2,80009a88 <ovflow>
80009a5c:	00050593          	mv	a1,a0
80009a60:	00000513          	li	a0,0
80009a64:	40c00733          	neg	a4,a2
80009a68:	00e59533          	sll	a0,a1,a4
80009a6c:	00c5d5b3          	srl	a1,a1,a2
80009a70:	00078a63          	beqz	a5,80009a84 <ge_32+0x30>
80009a74:	40a00533          	neg	a0,a0
80009a78:	fff5c593          	not	a1,a1
80009a7c:	00153713          	seqz	a4,a0
80009a80:	00e585b3          	add	a1,a1,a4
80009a84:	00008067          	ret

80009a88 <ovflow>:
80009a88:	fff00513          	li	a0,-1
80009a8c:	fff74593          	not	a1,a4
80009a90:	00f54533          	xor	a0,a0,a5
80009a94:	00f5c5b3          	xor	a1,a1,a5
80009a98:	00008067          	ret

80009a9c <undflow>:
80009a9c:	00000513          	li	a0,0
80009aa0:	00000593          	li	a1,0
80009aa4:	00008067          	ret

80009aa8 <__fixsfsi>:
80009aa8:	80000737          	lui	a4,0x80000
80009aac:	41f55793          	srai	a5,a0,0x1f
80009ab0:	00151513          	slli	a0,a0,0x1
80009ab4:	01855593          	srli	a1,a0,0x18
80009ab8:	f8158593          	addi	a1,a1,-127 # 7fffff81 <_start-0x7f>
80009abc:	0205ca63          	bltz	a1,80009af0 <undflow>
80009ac0:	40b005b3          	neg	a1,a1
80009ac4:	01f58593          	addi	a1,a1,31
80009ac8:	00b05e63          	blez	a1,80009ae4 <ovflow>
80009acc:	00751513          	slli	a0,a0,0x7
80009ad0:	00e56533          	or	a0,a0,a4
80009ad4:	00b55533          	srl	a0,a0,a1
80009ad8:	00f54533          	xor	a0,a0,a5
80009adc:	40f50533          	sub	a0,a0,a5
80009ae0:	00008067          	ret

80009ae4 <ovflow>:
80009ae4:	fff70513          	addi	a0,a4,-1 # 7fffffff <_start-0x1>
80009ae8:	00f54533          	xor	a0,a0,a5
80009aec:	00008067          	ret

80009af0 <undflow>:
80009af0:	00000513          	li	a0,0
80009af4:	00008067          	ret

80009af8 <__fixunsdfdi>:
80009af8:	0605ca63          	bltz	a1,80009b6c <undflow>
80009afc:	80000737          	lui	a4,0x80000
80009b00:	00159593          	slli	a1,a1,0x1
80009b04:	0155d613          	srli	a2,a1,0x15
80009b08:	c0160613          	addi	a2,a2,-1023
80009b0c:	06064063          	bltz	a2,80009b6c <undflow>
80009b10:	00a59593          	slli	a1,a1,0xa
80009b14:	01555693          	srli	a3,a0,0x15
80009b18:	00d5e5b3          	or	a1,a1,a3
80009b1c:	00b51513          	slli	a0,a0,0xb
80009b20:	00e5e5b3          	or	a1,a1,a4
80009b24:	40c00633          	neg	a2,a2
80009b28:	01f60613          	addi	a2,a2,31
80009b2c:	00064863          	bltz	a2,80009b3c <ge_32>
80009b30:	00c5d533          	srl	a0,a1,a2
80009b34:	00000593          	li	a1,0
80009b38:	00008067          	ret

80009b3c <ge_32>:
80009b3c:	02060613          	addi	a2,a2,32
80009b40:	02064063          	bltz	a2,80009b60 <ovflow>
80009b44:	00060c63          	beqz	a2,80009b5c <eq_63_end>
80009b48:	40c00733          	neg	a4,a2
80009b4c:	00e596b3          	sll	a3,a1,a4
80009b50:	00c55533          	srl	a0,a0,a2
80009b54:	00d56533          	or	a0,a0,a3
80009b58:	00c5d5b3          	srl	a1,a1,a2

80009b5c <eq_63_end>:
80009b5c:	00008067          	ret

80009b60 <ovflow>:
80009b60:	fff00513          	li	a0,-1
80009b64:	00050593          	mv	a1,a0
80009b68:	00008067          	ret

80009b6c <undflow>:
80009b6c:	00000513          	li	a0,0
80009b70:	00000593          	li	a1,0
80009b74:	00008067          	ret

80009b78 <__fixunsdfsi>:
80009b78:	04b05263          	blez	a1,80009bbc <undflow>
80009b7c:	00159593          	slli	a1,a1,0x1
80009b80:	0155d613          	srli	a2,a1,0x15
80009b84:	c0160613          	addi	a2,a2,-1023
80009b88:	02064a63          	bltz	a2,80009bbc <undflow>
80009b8c:	40c00633          	neg	a2,a2
80009b90:	01f60613          	addi	a2,a2,31
80009b94:	02064063          	bltz	a2,80009bb4 <ovflow>
80009b98:	00a59593          	slli	a1,a1,0xa
80009b9c:	01555513          	srli	a0,a0,0x15
80009ba0:	00a5e5b3          	or	a1,a1,a0
80009ba4:	80000737          	lui	a4,0x80000
80009ba8:	00e5e5b3          	or	a1,a1,a4
80009bac:	00c5d533          	srl	a0,a1,a2
80009bb0:	00008067          	ret

80009bb4 <ovflow>:
80009bb4:	fff00513          	li	a0,-1
80009bb8:	00008067          	ret

80009bbc <undflow>:
80009bbc:	00000513          	li	a0,0
80009bc0:	00008067          	ret

80009bc4 <__fixunssfdi>:
80009bc4:	06a05063          	blez	a0,80009c24 <undflow>
80009bc8:	80000737          	lui	a4,0x80000
80009bcc:	00151513          	slli	a0,a0,0x1
80009bd0:	01855613          	srli	a2,a0,0x18
80009bd4:	f8160613          	addi	a2,a2,-127
80009bd8:	04064663          	bltz	a2,80009c24 <undflow>
80009bdc:	00751513          	slli	a0,a0,0x7
80009be0:	00e56533          	or	a0,a0,a4
80009be4:	40c00633          	neg	a2,a2
80009be8:	01f60613          	addi	a2,a2,31
80009bec:	00064863          	bltz	a2,80009bfc <ge_32>
80009bf0:	00000593          	li	a1,0
80009bf4:	00c55533          	srl	a0,a0,a2
80009bf8:	00008067          	ret

80009bfc <ge_32>:
80009bfc:	02060613          	addi	a2,a2,32
80009c00:	00064c63          	bltz	a2,80009c18 <ovflow>
80009c04:	00c555b3          	srl	a1,a0,a2
80009c08:	02060063          	beqz	a2,80009c28 <eq_63_end>
80009c0c:	40c00733          	neg	a4,a2
80009c10:	00e51533          	sll	a0,a0,a4
80009c14:	00008067          	ret

80009c18 <ovflow>:
80009c18:	fff00513          	li	a0,-1
80009c1c:	fff00593          	li	a1,-1
80009c20:	00008067          	ret

80009c24 <undflow>:
80009c24:	00000593          	li	a1,0

80009c28 <eq_63_end>:
80009c28:	00000513          	li	a0,0
80009c2c:	00008067          	ret

80009c30 <__fixunssfsi>:
80009c30:	02a05e63          	blez	a0,80009c6c <undflow>
80009c34:	00151513          	slli	a0,a0,0x1
80009c38:	01855593          	srli	a1,a0,0x18
80009c3c:	f8158593          	addi	a1,a1,-127
80009c40:	0205c663          	bltz	a1,80009c6c <undflow>
80009c44:	40b005b3          	neg	a1,a1
80009c48:	01f58593          	addi	a1,a1,31
80009c4c:	0005cc63          	bltz	a1,80009c64 <ovflow>
80009c50:	00751513          	slli	a0,a0,0x7
80009c54:	80000737          	lui	a4,0x80000
80009c58:	00e56533          	or	a0,a0,a4
80009c5c:	00b55533          	srl	a0,a0,a1
80009c60:	00008067          	ret

80009c64 <ovflow>:
80009c64:	fff00513          	li	a0,-1
80009c68:	00008067          	ret

80009c6c <undflow>:
80009c6c:	00000513          	li	a0,0
80009c70:	00008067          	ret

80009c74 <__floatdidf>:
80009c74:	01f5d793          	srli	a5,a1,0x1f
80009c78:	0005da63          	bgez	a1,80009c8c <__floatdidf+0x18>
80009c7c:	40a00533          	neg	a0,a0
80009c80:	fff5c593          	not	a1,a1
80009c84:	00153613          	seqz	a2,a0
80009c88:	00c585b3          	add	a1,a1,a2
80009c8c:	01f79793          	slli	a5,a5,0x1f
80009c90:	43d00613          	li	a2,1085
80009c94:	00059a63          	bnez	a1,80009ca8 <__floatdidf+0x34>
80009c98:	06050a63          	beqz	a0,80009d0c <exit>
80009c9c:	00050593          	mv	a1,a0
80009ca0:	00000513          	li	a0,0
80009ca4:	fe060613          	addi	a2,a2,-32
80009ca8:	0005c863          	bltz	a1,80009cb8 <__floatdidf+0x44>
80009cac:	fff60613          	addi	a2,a2,-1
80009cb0:	00159593          	slli	a1,a1,0x1
80009cb4:	feb04ce3          	bgtz	a1,80009cac <__floatdidf+0x38>
80009cb8:	be360713          	addi	a4,a2,-1053
80009cbc:	00e556b3          	srl	a3,a0,a4
80009cc0:	00d5e5b3          	or	a1,a1,a3
80009cc4:	40e00733          	neg	a4,a4
80009cc8:	00e51533          	sll	a0,a0,a4
80009ccc:	01551713          	slli	a4,a0,0x15
80009cd0:	00b55513          	srli	a0,a0,0xb
80009cd4:	01559693          	slli	a3,a1,0x15
80009cd8:	00b5d593          	srli	a1,a1,0xb
80009cdc:	00d56533          	or	a0,a0,a3
80009ce0:	02075063          	bgez	a4,80009d00 <__floatdidf+0x8c>
80009ce4:	00150513          	addi	a0,a0,1 # 7fc00001 <_start-0x3fffff>
80009ce8:	00153693          	seqz	a3,a0
80009cec:	00d585b3          	add	a1,a1,a3
80009cf0:	00171713          	slli	a4,a4,0x1
80009cf4:	00173713          	seqz	a4,a4
80009cf8:	fff74713          	not	a4,a4
80009cfc:	00e57533          	and	a0,a0,a4
80009d00:	01461613          	slli	a2,a2,0x14
80009d04:	00c585b3          	add	a1,a1,a2
80009d08:	00f5e5b3          	or	a1,a1,a5

80009d0c <exit>:
80009d0c:	00008067          	ret

80009d10 <__floatdisf>:
80009d10:	01f5d793          	srli	a5,a1,0x1f
80009d14:	0005da63          	bgez	a1,80009d28 <__floatdisf+0x18>
80009d18:	40a00533          	neg	a0,a0
80009d1c:	fff5c593          	not	a1,a1
80009d20:	00153613          	seqz	a2,a0
80009d24:	00c585b3          	add	a1,a1,a2
80009d28:	01f79793          	slli	a5,a5,0x1f
80009d2c:	0bd00613          	li	a2,189
80009d30:	00059a63          	bnez	a1,80009d44 <__floatdisf+0x34>
80009d34:	06050463          	beqz	a0,80009d9c <exit>
80009d38:	00050593          	mv	a1,a0
80009d3c:	00000513          	li	a0,0
80009d40:	fe060613          	addi	a2,a2,-32
80009d44:	0005c863          	bltz	a1,80009d54 <__floatdisf+0x44>
80009d48:	fff60613          	addi	a2,a2,-1
80009d4c:	00159593          	slli	a1,a1,0x1
80009d50:	feb04ce3          	bgtz	a1,80009d48 <__floatdisf+0x38>
80009d54:	f6360713          	addi	a4,a2,-157
80009d58:	00e556b3          	srl	a3,a0,a4
80009d5c:	00d5e5b3          	or	a1,a1,a3
80009d60:	40e00733          	neg	a4,a4
80009d64:	00e51533          	sll	a0,a0,a4
80009d68:	00a03733          	snez	a4,a0
80009d6c:	0085d513          	srli	a0,a1,0x8
80009d70:	01859593          	slli	a1,a1,0x18
80009d74:	00e5e5b3          	or	a1,a1,a4
80009d78:	0005dc63          	bgez	a1,80009d90 <__floatdisf+0x80>
80009d7c:	00150513          	addi	a0,a0,1
80009d80:	00159593          	slli	a1,a1,0x1
80009d84:	0015b593          	seqz	a1,a1
80009d88:	fff5c593          	not	a1,a1
80009d8c:	00b57533          	and	a0,a0,a1
80009d90:	01761613          	slli	a2,a2,0x17
80009d94:	00c50533          	add	a0,a0,a2
80009d98:	00f56533          	or	a0,a0,a5

80009d9c <exit>:
80009d9c:	00008067          	ret

80009da0 <__floatsidf>:
80009da0:	41f55793          	srai	a5,a0,0x1f
80009da4:	00f545b3          	xor	a1,a0,a5
80009da8:	40f585b3          	sub	a1,a1,a5
80009dac:	02050863          	beqz	a0,80009ddc <exit>
80009db0:	01f79793          	slli	a5,a5,0x1f
80009db4:	41d00613          	li	a2,1053
80009db8:	0005c863          	bltz	a1,80009dc8 <__floatsidf+0x28>
80009dbc:	fff60613          	addi	a2,a2,-1
80009dc0:	00159593          	slli	a1,a1,0x1
80009dc4:	feb04ce3          	bgtz	a1,80009dbc <__floatsidf+0x1c>
80009dc8:	01559513          	slli	a0,a1,0x15
80009dcc:	00b5d593          	srli	a1,a1,0xb
80009dd0:	01461613          	slli	a2,a2,0x14
80009dd4:	00c585b3          	add	a1,a1,a2
80009dd8:	00f5e5b3          	or	a1,a1,a5

80009ddc <exit>:
80009ddc:	00008067          	ret

80009de0 <__floatsisf>:
80009de0:	04050a63          	beqz	a0,80009e34 <exit>
80009de4:	41f55793          	srai	a5,a0,0x1f
80009de8:	00f54533          	xor	a0,a0,a5
80009dec:	40f50533          	sub	a0,a0,a5
80009df0:	01f79793          	slli	a5,a5,0x1f
80009df4:	09d00593          	li	a1,157
80009df8:	00054863          	bltz	a0,80009e08 <__floatsisf+0x28>
80009dfc:	fff58593          	addi	a1,a1,-1
80009e00:	00151513          	slli	a0,a0,0x1
80009e04:	fea04ce3          	bgtz	a0,80009dfc <__floatsisf+0x1c>
80009e08:	01851613          	slli	a2,a0,0x18
80009e0c:	00855513          	srli	a0,a0,0x8
80009e10:	00065c63          	bgez	a2,80009e28 <__floatsisf+0x48>
80009e14:	00150513          	addi	a0,a0,1
80009e18:	00161613          	slli	a2,a2,0x1
80009e1c:	00163613          	seqz	a2,a2
80009e20:	fff64613          	not	a2,a2
80009e24:	00c57533          	and	a0,a0,a2
80009e28:	01759593          	slli	a1,a1,0x17
80009e2c:	00b50533          	add	a0,a0,a1
80009e30:	00f56533          	or	a0,a0,a5

80009e34 <exit>:
80009e34:	00008067          	ret

80009e38 <__floatundidf>:
80009e38:	43d00613          	li	a2,1085
80009e3c:	00059a63          	bnez	a1,80009e50 <__floatundidf+0x18>
80009e40:	06050a63          	beqz	a0,80009eb4 <exit>
80009e44:	00050593          	mv	a1,a0
80009e48:	00000513          	li	a0,0
80009e4c:	fe060613          	addi	a2,a2,-32
80009e50:	0005c863          	bltz	a1,80009e60 <__floatundidf+0x28>
80009e54:	fff60613          	addi	a2,a2,-1
80009e58:	00159593          	slli	a1,a1,0x1
80009e5c:	feb04ce3          	bgtz	a1,80009e54 <__floatundidf+0x1c>
80009e60:	bc360713          	addi	a4,a2,-1085
80009e64:	00070a63          	beqz	a4,80009e78 <__floatundidf+0x40>
80009e68:	00e556b3          	srl	a3,a0,a4
80009e6c:	00d5e5b3          	or	a1,a1,a3
80009e70:	40e00733          	neg	a4,a4
80009e74:	00e51533          	sll	a0,a0,a4
80009e78:	01551713          	slli	a4,a0,0x15
80009e7c:	00b55513          	srli	a0,a0,0xb
80009e80:	01559693          	slli	a3,a1,0x15
80009e84:	00b5d593          	srli	a1,a1,0xb
80009e88:	00d56533          	or	a0,a0,a3
80009e8c:	02075063          	bgez	a4,80009eac <__floatundidf+0x74>
80009e90:	00150513          	addi	a0,a0,1
80009e94:	00153693          	seqz	a3,a0
80009e98:	00d585b3          	add	a1,a1,a3
80009e9c:	00171713          	slli	a4,a4,0x1
80009ea0:	00173713          	seqz	a4,a4
80009ea4:	fff74713          	not	a4,a4
80009ea8:	00e57533          	and	a0,a0,a4
80009eac:	01461613          	slli	a2,a2,0x14
80009eb0:	00c585b3          	add	a1,a1,a2

80009eb4 <exit>:
80009eb4:	00008067          	ret

80009eb8 <__floatundisf>:
80009eb8:	0bd00613          	li	a2,189
80009ebc:	00059a63          	bnez	a1,80009ed0 <__floatundisf+0x18>
80009ec0:	06050463          	beqz	a0,80009f28 <exit>
80009ec4:	00050593          	mv	a1,a0
80009ec8:	00000513          	li	a0,0
80009ecc:	fe060613          	addi	a2,a2,-32
80009ed0:	0005c863          	bltz	a1,80009ee0 <__floatundisf+0x28>
80009ed4:	fff60613          	addi	a2,a2,-1
80009ed8:	00159593          	slli	a1,a1,0x1
80009edc:	feb04ce3          	bgtz	a1,80009ed4 <__floatundisf+0x1c>
80009ee0:	f4360713          	addi	a4,a2,-189
80009ee4:	00070a63          	beqz	a4,80009ef8 <__floatundisf+0x40>
80009ee8:	00e556b3          	srl	a3,a0,a4
80009eec:	00d5e5b3          	or	a1,a1,a3
80009ef0:	40e00733          	neg	a4,a4
80009ef4:	00e51533          	sll	a0,a0,a4
80009ef8:	00a03733          	snez	a4,a0
80009efc:	0085d513          	srli	a0,a1,0x8
80009f00:	01859593          	slli	a1,a1,0x18
80009f04:	00e5e5b3          	or	a1,a1,a4
80009f08:	0005dc63          	bgez	a1,80009f20 <__floatundisf+0x68>
80009f0c:	00150513          	addi	a0,a0,1
80009f10:	00159593          	slli	a1,a1,0x1
80009f14:	0015b593          	seqz	a1,a1
80009f18:	fff5c593          	not	a1,a1
80009f1c:	00b57533          	and	a0,a0,a1
80009f20:	01761613          	slli	a2,a2,0x17
80009f24:	00c50533          	add	a0,a0,a2

80009f28 <exit>:
80009f28:	00008067          	ret

80009f2c <__floatunsidf>:
80009f2c:	00050593          	mv	a1,a0
80009f30:	02050463          	beqz	a0,80009f58 <exit>
80009f34:	41d00613          	li	a2,1053
80009f38:	0005c863          	bltz	a1,80009f48 <__floatunsidf+0x1c>
80009f3c:	fff60613          	addi	a2,a2,-1
80009f40:	00159593          	slli	a1,a1,0x1
80009f44:	fe05dce3          	bgez	a1,80009f3c <__floatunsidf+0x10>
80009f48:	01559513          	slli	a0,a1,0x15
80009f4c:	00b5d593          	srli	a1,a1,0xb
80009f50:	01461613          	slli	a2,a2,0x14
80009f54:	00c585b3          	add	a1,a1,a2

80009f58 <exit>:
80009f58:	00008067          	ret

80009f5c <__floatunsisf>:
80009f5c:	04050063          	beqz	a0,80009f9c <exit>
80009f60:	09d00593          	li	a1,157
80009f64:	00054863          	bltz	a0,80009f74 <__floatunsisf+0x18>
80009f68:	fff58593          	addi	a1,a1,-1
80009f6c:	00151513          	slli	a0,a0,0x1
80009f70:	fea04ce3          	bgtz	a0,80009f68 <__floatunsisf+0xc>
80009f74:	01851613          	slli	a2,a0,0x18
80009f78:	00855513          	srli	a0,a0,0x8
80009f7c:	00065c63          	bgez	a2,80009f94 <__floatunsisf+0x38>
80009f80:	00150513          	addi	a0,a0,1
80009f84:	00161613          	slli	a2,a2,0x1
80009f88:	00163613          	seqz	a2,a2
80009f8c:	fff64613          	not	a2,a2
80009f90:	00c57533          	and	a0,a0,a2
80009f94:	01759593          	slli	a1,a1,0x17
80009f98:	00b50533          	add	a0,a0,a1

80009f9c <exit>:
80009f9c:	00008067          	ret

80009fa0 <__gedf2>:
80009fa0:	00a03733          	snez	a4,a0
80009fa4:	00159793          	slli	a5,a1,0x1
80009fa8:	00e7e7b3          	or	a5,a5,a4
80009fac:	ffe00737          	lui	a4,0xffe00
80009fb0:	06f76263          	bltu	a4,a5,8000a014 <nan>
80009fb4:	00c037b3          	snez	a5,a2
80009fb8:	00169293          	slli	t0,a3,0x1
80009fbc:	00f2e2b3          	or	t0,t0,a5
80009fc0:	04576a63          	bltu	a4,t0,8000a014 <nan>
80009fc4:	00d5e733          	or	a4,a1,a3
80009fc8:	00171713          	slli	a4,a4,0x1
80009fcc:	00a76733          	or	a4,a4,a0
80009fd0:	00c76733          	or	a4,a4,a2
80009fd4:	00070c63          	beqz	a4,80009fec <xor_end>
80009fd8:	00d5c733          	xor	a4,a1,a3
80009fdc:	02074e63          	bltz	a4,8000a018 <pn_np>
80009fe0:	00d58c63          	beq	a1,a3,80009ff8 <pp_nn_h_eq>
80009fe4:	00d5b733          	sltu	a4,a1,a3
80009fe8:	0006a533          	sltz	a0,a3

80009fec <xor_end>:
80009fec:	00e54533          	xor	a0,a0,a4
80009ff0:	01f51513          	slli	a0,a0,0x1f
80009ff4:	00008067          	ret

80009ff8 <pp_nn_h_eq>:
80009ff8:	00c50a63          	beq	a0,a2,8000a00c <ret_0>
80009ffc:	00a63733          	sltu	a4,a2,a0
8000a000:	0005a533          	sltz	a0,a1
8000a004:	00154513          	xori	a0,a0,1
8000a008:	fe5ff06f          	j	80009fec <xor_end>

8000a00c <ret_0>:
8000a00c:	00000513          	li	a0,0
8000a010:	00008067          	ret

8000a014 <nan>:
8000a014:	00070593          	mv	a1,a4

8000a018 <pn_np>:
8000a018:	0005a533          	sltz	a0,a1
8000a01c:	01f51513          	slli	a0,a0,0x1f
8000a020:	00008067          	ret

8000a024 <__gesf2>:
8000a024:	ff0006b7          	lui	a3,0xff000
8000a028:	00151613          	slli	a2,a0,0x1
8000a02c:	02c6ea63          	bltu	a3,a2,8000a060 <ret_m1>
8000a030:	00159613          	slli	a2,a1,0x1
8000a034:	02c6e663          	bltu	a3,a2,8000a060 <ret_m1>
8000a038:	00b566b3          	or	a3,a0,a1
8000a03c:	00169693          	slli	a3,a3,0x1
8000a040:	00068c63          	beqz	a3,8000a058 <ret_0>
8000a044:	00b576b3          	and	a3,a0,a1
8000a048:	0206c063          	bltz	a3,8000a068 <nn>
8000a04c:	00b52533          	slt	a0,a0,a1
8000a050:	01f51513          	slli	a0,a0,0x1f
8000a054:	00008067          	ret

8000a058 <ret_0>:
8000a058:	00000513          	li	a0,0
8000a05c:	00008067          	ret

8000a060 <ret_m1>:
8000a060:	fff00513          	li	a0,-1
8000a064:	00008067          	ret

8000a068 <nn>:
8000a068:	00a5a533          	slt	a0,a1,a0
8000a06c:	01f51513          	slli	a0,a0,0x1f
8000a070:	00008067          	ret

8000a074 <__gtdf2>:
8000a074:	00a03733          	snez	a4,a0
8000a078:	00159793          	slli	a5,a1,0x1
8000a07c:	00e7e7b3          	or	a5,a5,a4
8000a080:	ffe00737          	lui	a4,0xffe00
8000a084:	04f76863          	bltu	a4,a5,8000a0d4 <ret_0>
8000a088:	00c037b3          	snez	a5,a2
8000a08c:	00169293          	slli	t0,a3,0x1
8000a090:	00f2e2b3          	or	t0,t0,a5
8000a094:	04576063          	bltu	a4,t0,8000a0d4 <ret_0>
8000a098:	00d5e733          	or	a4,a1,a3
8000a09c:	00171713          	slli	a4,a4,0x1
8000a0a0:	00a76733          	or	a4,a4,a0
8000a0a4:	00c76733          	or	a4,a4,a2
8000a0a8:	02070663          	beqz	a4,8000a0d4 <ret_0>
8000a0ac:	00d5c733          	xor	a4,a1,a3
8000a0b0:	02074663          	bltz	a4,8000a0dc <pn_np>
8000a0b4:	00d58a63          	beq	a1,a3,8000a0c8 <pp_nn_h_eq>
8000a0b8:	00b6b733          	sltu	a4,a3,a1

8000a0bc <end>:
8000a0bc:	0006a533          	sltz	a0,a3
8000a0c0:	00e54533          	xor	a0,a0,a4
8000a0c4:	00008067          	ret

8000a0c8 <pp_nn_h_eq>:
8000a0c8:	00c50663          	beq	a0,a2,8000a0d4 <ret_0>
8000a0cc:	00a63733          	sltu	a4,a2,a0
8000a0d0:	fedff06f          	j	8000a0bc <end>

8000a0d4 <ret_0>:
8000a0d4:	00000513          	li	a0,0
8000a0d8:	00008067          	ret

8000a0dc <pn_np>:
8000a0dc:	0006a533          	sltz	a0,a3
8000a0e0:	00008067          	ret

8000a0e4 <__gtsf2>:
8000a0e4:	ff0006b7          	lui	a3,0xff000
8000a0e8:	00151613          	slli	a2,a0,0x1
8000a0ec:	02c6e463          	bltu	a3,a2,8000a114 <ret_0>
8000a0f0:	00159613          	slli	a2,a1,0x1
8000a0f4:	02c6e063          	bltu	a3,a2,8000a114 <ret_0>
8000a0f8:	00b566b3          	or	a3,a0,a1
8000a0fc:	00169693          	slli	a3,a3,0x1
8000a100:	00068a63          	beqz	a3,8000a114 <ret_0>
8000a104:	00b576b3          	and	a3,a0,a1
8000a108:	0006ca63          	bltz	a3,8000a11c <nn>
8000a10c:	00a5a533          	slt	a0,a1,a0
8000a110:	00008067          	ret

8000a114 <ret_0>:
8000a114:	00000513          	li	a0,0
8000a118:	00008067          	ret

8000a11c <nn>:
8000a11c:	00b52533          	slt	a0,a0,a1
8000a120:	00008067          	ret

8000a124 <__ledf2>:
8000a124:	00a03733          	snez	a4,a0
8000a128:	00159793          	slli	a5,a1,0x1
8000a12c:	00e7e7b3          	or	a5,a5,a4
8000a130:	ffe00737          	lui	a4,0xffe00
8000a134:	04f76e63          	bltu	a4,a5,8000a190 <nan>
8000a138:	00c037b3          	snez	a5,a2
8000a13c:	00169293          	slli	t0,a3,0x1
8000a140:	00f2e2b3          	or	t0,t0,a5
8000a144:	04576663          	bltu	a4,t0,8000a190 <nan>
8000a148:	00d5e733          	or	a4,a1,a3
8000a14c:	00171713          	slli	a4,a4,0x1
8000a150:	00a76733          	or	a4,a4,a0
8000a154:	00c76733          	or	a4,a4,a2
8000a158:	00070c63          	beqz	a4,8000a170 <xor_end>
8000a15c:	00d5c733          	xor	a4,a1,a3
8000a160:	02074a63          	bltz	a4,8000a194 <pn_np>
8000a164:	00d58a63          	beq	a1,a3,8000a178 <pp_nn_h_eq>
8000a168:	00b6b733          	sltu	a4,a3,a1
8000a16c:	0005a533          	sltz	a0,a1

8000a170 <xor_end>:
8000a170:	00e54533          	xor	a0,a0,a4
8000a174:	00008067          	ret

8000a178 <pp_nn_h_eq>:
8000a178:	00c50863          	beq	a0,a2,8000a188 <ret_0>
8000a17c:	00a63733          	sltu	a4,a2,a0
8000a180:	0005a533          	sltz	a0,a1
8000a184:	fedff06f          	j	8000a170 <xor_end>

8000a188 <ret_0>:
8000a188:	00000513          	li	a0,0
8000a18c:	00008067          	ret

8000a190 <nan>:
8000a190:	00070693          	mv	a3,a4

8000a194 <pn_np>:
8000a194:	0006a533          	sltz	a0,a3
8000a198:	00008067          	ret

8000a19c <__lesf2>:
8000a19c:	ff0006b7          	lui	a3,0xff000
8000a1a0:	00151613          	slli	a2,a0,0x1
8000a1a4:	02c6e663          	bltu	a3,a2,8000a1d0 <ret_1>
8000a1a8:	00159613          	slli	a2,a1,0x1
8000a1ac:	02c6e263          	bltu	a3,a2,8000a1d0 <ret_1>
8000a1b0:	00b566b3          	or	a3,a0,a1
8000a1b4:	00169693          	slli	a3,a3,0x1
8000a1b8:	02068063          	beqz	a3,8000a1d8 <ret_0>
8000a1bc:	00b50e63          	beq	a0,a1,8000a1d8 <ret_0>
8000a1c0:	00b576b3          	and	a3,a0,a1
8000a1c4:	0006ce63          	bltz	a3,8000a1e0 <nn>
8000a1c8:	00a5a533          	slt	a0,a1,a0
8000a1cc:	00008067          	ret

8000a1d0 <ret_1>:
8000a1d0:	00100513          	li	a0,1
8000a1d4:	00008067          	ret

8000a1d8 <ret_0>:
8000a1d8:	00000513          	li	a0,0
8000a1dc:	00008067          	ret

8000a1e0 <nn>:
8000a1e0:	00b52533          	slt	a0,a0,a1
8000a1e4:	00008067          	ret

8000a1e8 <__ltdf2>:
8000a1e8:	00a03733          	snez	a4,a0
8000a1ec:	00159793          	slli	a5,a1,0x1
8000a1f0:	00e7e7b3          	or	a5,a5,a4
8000a1f4:	ffe00737          	lui	a4,0xffe00
8000a1f8:	04f76a63          	bltu	a4,a5,8000a24c <ret_0>
8000a1fc:	00c037b3          	snez	a5,a2
8000a200:	00169293          	slli	t0,a3,0x1
8000a204:	00f2e2b3          	or	t0,t0,a5
8000a208:	04576263          	bltu	a4,t0,8000a24c <ret_0>
8000a20c:	00d5e733          	or	a4,a1,a3
8000a210:	00171713          	slli	a4,a4,0x1
8000a214:	00a76733          	or	a4,a4,a0
8000a218:	00c76733          	or	a4,a4,a2
8000a21c:	02070863          	beqz	a4,8000a24c <ret_0>
8000a220:	00d5c733          	xor	a4,a1,a3
8000a224:	02074863          	bltz	a4,8000a254 <pn_np>
8000a228:	00d58c63          	beq	a1,a3,8000a240 <pp_nn_h_eq>
8000a22c:	00d5b733          	sltu	a4,a1,a3

8000a230 <end>:
8000a230:	0005a533          	sltz	a0,a1
8000a234:	00e54533          	xor	a0,a0,a4
8000a238:	01f51513          	slli	a0,a0,0x1f
8000a23c:	00008067          	ret

8000a240 <pp_nn_h_eq>:
8000a240:	00c50663          	beq	a0,a2,8000a24c <ret_0>
8000a244:	00c53733          	sltu	a4,a0,a2
8000a248:	fe9ff06f          	j	8000a230 <end>

8000a24c <ret_0>:
8000a24c:	00000513          	li	a0,0
8000a250:	00008067          	ret

8000a254 <pn_np>:
8000a254:	0005a533          	sltz	a0,a1
8000a258:	01f51513          	slli	a0,a0,0x1f
8000a25c:	00008067          	ret

8000a260 <__ltsf2>:
8000a260:	ff0006b7          	lui	a3,0xff000
8000a264:	00151613          	slli	a2,a0,0x1
8000a268:	02c6e663          	bltu	a3,a2,8000a294 <ret_0>
8000a26c:	00159613          	slli	a2,a1,0x1
8000a270:	02c6e263          	bltu	a3,a2,8000a294 <ret_0>
8000a274:	00b566b3          	or	a3,a0,a1
8000a278:	00169693          	slli	a3,a3,0x1
8000a27c:	00068c63          	beqz	a3,8000a294 <ret_0>
8000a280:	00b576b3          	and	a3,a0,a1
8000a284:	0006cc63          	bltz	a3,8000a29c <nn>
8000a288:	00b52533          	slt	a0,a0,a1
8000a28c:	01f51513          	slli	a0,a0,0x1f
8000a290:	00008067          	ret

8000a294 <ret_0>:
8000a294:	00000513          	li	a0,0
8000a298:	00008067          	ret

8000a29c <nn>:
8000a29c:	00a5a533          	slt	a0,a1,a0
8000a2a0:	01f51513          	slli	a0,a0,0x1f
8000a2a4:	00008067          	ret

8000a2a8 <__muldf3>:
8000a2a8:	7ff00793          	li	a5,2047
8000a2ac:	0145d713          	srli	a4,a1,0x14
8000a2b0:	00f77733          	and	a4,a4,a5
8000a2b4:	0146d813          	srli	a6,a3,0x14
8000a2b8:	00f87833          	and	a6,a6,a5
8000a2bc:	20f70263          	beq	a4,a5,8000a4c0 <inf_nan>
8000a2c0:	20f80063          	beq	a6,a5,8000a4c0 <inf_nan>
8000a2c4:	1c070663          	beqz	a4,8000a490 <zero_denormal>
8000a2c8:	1c080463          	beqz	a6,8000a490 <zero_denormal>

8000a2cc <normal_case>:
8000a2cc:	01070733          	add	a4,a4,a6
8000a2d0:	00d5c833          	xor	a6,a1,a3
8000a2d4:	800007b7          	lui	a5,0x80000
8000a2d8:	00f872b3          	and	t0,a6,a5
8000a2dc:	fff007b7          	lui	a5,0xfff00
8000a2e0:	fff7c793          	not	a5,a5
8000a2e4:	00f5f5b3          	and	a1,a1,a5
8000a2e8:	00f6f6b3          	and	a3,a3,a5
8000a2ec:	001007b7          	lui	a5,0x100
8000a2f0:	00f5e5b3          	or	a1,a1,a5
8000a2f4:	00f6e6b3          	or	a3,a3,a5
8000a2f8:	02c58333          	mul	t1,a1,a2
8000a2fc:	02c5b3b3          	mulhu	t2,a1,a2
8000a300:	02d50833          	mul	a6,a0,a3
8000a304:	02d538b3          	mulhu	a7,a0,a3
8000a308:	01030333          	add	t1,t1,a6
8000a30c:	01033833          	sltu	a6,t1,a6
8000a310:	010888b3          	add	a7,a7,a6
8000a314:	011383b3          	add	t2,t2,a7
8000a318:	02c50e33          	mul	t3,a0,a2
8000a31c:	02c53eb3          	mulhu	t4,a0,a2
8000a320:	02d58833          	mul	a6,a1,a3
8000a324:	02d5b8b3          	mulhu	a7,a1,a3
8000a328:	006e8eb3          	add	t4,t4,t1
8000a32c:	006eb333          	sltu	t1,t4,t1
8000a330:	006383b3          	add	t2,t2,t1
8000a334:	00780833          	add	a6,a6,t2
8000a338:	007833b3          	sltu	t2,a6,t2
8000a33c:	007888b3          	add	a7,a7,t2
8000a340:	01c037b3          	snez	a5,t3
8000a344:	00feeeb3          	or	t4,t4,a5
8000a348:	20000393          	li	t2,512
8000a34c:	0278f263          	bgeu	a7,t2,8000a370 <normal_case+0xa4>
8000a350:	00189893          	slli	a7,a7,0x1
8000a354:	01f85793          	srli	a5,a6,0x1f
8000a358:	00f8e8b3          	or	a7,a7,a5
8000a35c:	00181813          	slli	a6,a6,0x1
8000a360:	01fed793          	srli	a5,t4,0x1f
8000a364:	00f86833          	or	a6,a6,a5
8000a368:	001e9e93          	slli	t4,t4,0x1
8000a36c:	fff70713          	addi	a4,a4,-1 # ffdfffff <nnames+0x7fde2b03>
8000a370:	00b89593          	slli	a1,a7,0xb
8000a374:	01585793          	srli	a5,a6,0x15
8000a378:	00f5e5b3          	or	a1,a1,a5
8000a37c:	00b81513          	slli	a0,a6,0xb
8000a380:	015ed793          	srli	a5,t4,0x15
8000a384:	00f56533          	or	a0,a0,a5
8000a388:	00be9e93          	slli	t4,t4,0xb
8000a38c:	c0170713          	addi	a4,a4,-1023
8000a390:	7fe00313          	li	t1,2046
8000a394:	02677863          	bgeu	a4,t1,8000a3c4 <und_ov_flow>
8000a398:	01471713          	slli	a4,a4,0x14
8000a39c:	00e585b3          	add	a1,a1,a4

8000a3a0 <rounding>:
8000a3a0:	800007b7          	lui	a5,0x80000
8000a3a4:	00feec63          	bltu	t4,a5,8000a3bc <exit>
8000a3a8:	00150513          	addi	a0,a0,1
8000a3ac:	00153313          	seqz	t1,a0
8000a3b0:	006585b3          	add	a1,a1,t1
8000a3b4:	00fe9463          	bne	t4,a5,8000a3bc <exit>
8000a3b8:	ffe57513          	andi	a0,a0,-2

8000a3bc <exit>:
8000a3bc:	0055e5b3          	or	a1,a1,t0
8000a3c0:	00008067          	ret

8000a3c4 <und_ov_flow>:
8000a3c4:	12e04e63          	bgtz	a4,8000a500 <pre_ovf>
8000a3c8:	fcb00313          	li	t1,-53
8000a3cc:	00675863          	bge	a4,t1,8000a3dc <denormal_end>
8000a3d0:	00000513          	li	a0,0
8000a3d4:	00028593          	mv	a1,t0
8000a3d8:	00008067          	ret

8000a3dc <denormal_end>:
8000a3dc:	40e00733          	neg	a4,a4
8000a3e0:	02000793          	li	a5,32
8000a3e4:	02f75463          	bge	a4,a5,8000a40c <denormal_end+0x30>
8000a3e8:	40e787b3          	sub	a5,a5,a4
8000a3ec:	01d03633          	snez	a2,t4
8000a3f0:	00f51eb3          	sll	t4,a0,a5
8000a3f4:	00ceeeb3          	or	t4,t4,a2
8000a3f8:	00e55533          	srl	a0,a0,a4
8000a3fc:	00f59633          	sll	a2,a1,a5
8000a400:	00c56533          	or	a0,a0,a2
8000a404:	00e5d5b3          	srl	a1,a1,a4
8000a408:	f99ff06f          	j	8000a3a0 <rounding>
8000a40c:	fe070713          	addi	a4,a4,-32
8000a410:	01d03633          	snez	a2,t4
8000a414:	00050e93          	mv	t4,a0
8000a418:	00058513          	mv	a0,a1
8000a41c:	00000593          	li	a1,0
8000a420:	00ceeeb3          	or	t4,t4,a2
8000a424:	f6070ee3          	beqz	a4,8000a3a0 <rounding>
8000a428:	40e787b3          	sub	a5,a5,a4
8000a42c:	fc1ff06f          	j	8000a3ec <denormal_end+0x10>

8000a430 <denormal>:
8000a430:	00b7de13          	srli	t3,a5,0xb
8000a434:	00f5f333          	and	t1,a1,a5
8000a438:	02071263          	bnez	a4,8000a45c <denormal+0x2c>
8000a43c:	00159593          	slli	a1,a1,0x1
8000a440:	01f55f13          	srli	t5,a0,0x1f
8000a444:	01e5e5b3          	or	a1,a1,t5
8000a448:	00151513          	slli	a0,a0,0x1
8000a44c:	01c5f3b3          	and	t2,a1,t3
8000a450:	00039663          	bnez	t2,8000a45c <denormal+0x2c>
8000a454:	fff70713          	addi	a4,a4,-1
8000a458:	fe5ff06f          	j	8000a43c <denormal+0xc>
8000a45c:	0065e5b3          	or	a1,a1,t1
8000a460:	00d7f7b3          	and	a5,a5,a3
8000a464:	02081263          	bnez	a6,8000a488 <denormal+0x58>
8000a468:	00169693          	slli	a3,a3,0x1
8000a46c:	01f65f13          	srli	t5,a2,0x1f
8000a470:	01e6e6b3          	or	a3,a3,t5
8000a474:	00161613          	slli	a2,a2,0x1
8000a478:	01c6f3b3          	and	t2,a3,t3
8000a47c:	00039663          	bnez	t2,8000a488 <denormal+0x58>
8000a480:	fff80813          	addi	a6,a6,-1
8000a484:	fe5ff06f          	j	8000a468 <denormal+0x38>
8000a488:	00f6e6b3          	or	a3,a3,a5
8000a48c:	e41ff06f          	j	8000a2cc <normal_case>

8000a490 <zero_denormal>:
8000a490:	01f79793          	slli	a5,a5,0x1f
8000a494:	fff7ce13          	not	t3,a5
8000a498:	01c5f8b3          	and	a7,a1,t3
8000a49c:	00a8e8b3          	or	a7,a7,a0
8000a4a0:	00088863          	beqz	a7,8000a4b0 <zero>
8000a4a4:	01c6f8b3          	and	a7,a3,t3
8000a4a8:	00c8e8b3          	or	a7,a7,a2
8000a4ac:	f80892e3          	bnez	a7,8000a430 <denormal>

8000a4b0 <zero>:
8000a4b0:	00d5c5b3          	xor	a1,a1,a3
8000a4b4:	00f5f5b3          	and	a1,a1,a5
8000a4b8:	00000513          	li	a0,0
8000a4bc:	00008067          	ret

8000a4c0 <inf_nan>:
8000a4c0:	00159893          	slli	a7,a1,0x1
8000a4c4:	00a8e8b3          	or	a7,a7,a0
8000a4c8:	04088a63          	beqz	a7,8000a51c <nan>
8000a4cc:	00169893          	slli	a7,a3,0x1
8000a4d0:	00c8e8b3          	or	a7,a7,a2
8000a4d4:	04088463          	beqz	a7,8000a51c <nan>
8000a4d8:	00f71863          	bne	a4,a5,8000a4e8 <inf_nan+0x28>
8000a4dc:	00c59893          	slli	a7,a1,0xc
8000a4e0:	00a8e8b3          	or	a7,a7,a0
8000a4e4:	02089c63          	bnez	a7,8000a51c <nan>
8000a4e8:	00f81863          	bne	a6,a5,8000a4f8 <inf>
8000a4ec:	00c69713          	slli	a4,a3,0xc
8000a4f0:	00c76733          	or	a4,a4,a2
8000a4f4:	02071463          	bnez	a4,8000a51c <nan>

8000a4f8 <inf>:
8000a4f8:	00d5c5b3          	xor	a1,a1,a3
8000a4fc:	0080006f          	j	8000a504 <ovf>

8000a500 <pre_ovf>:
8000a500:	0055e5b3          	or	a1,a1,t0

8000a504 <ovf>:
8000a504:	7ff006b7          	lui	a3,0x7ff00
8000a508:	0145d593          	srli	a1,a1,0x14
8000a50c:	01459593          	slli	a1,a1,0x14
8000a510:	00d5e5b3          	or	a1,a1,a3
8000a514:	00000513          	li	a0,0
8000a518:	00008067          	ret

8000a51c <nan>:
8000a51c:	7ff805b7          	lui	a1,0x7ff80
8000a520:	00000513          	li	a0,0
8000a524:	00008067          	ret

8000a528 <__mulsf3>:
8000a528:	80000737          	lui	a4,0x80000
8000a52c:	0ff00813          	li	a6,255
8000a530:	01755613          	srli	a2,a0,0x17
8000a534:	01067633          	and	a2,a2,a6
8000a538:	0175d693          	srli	a3,a1,0x17
8000a53c:	0106f6b3          	and	a3,a3,a6
8000a540:	15060463          	beq	a2,a6,8000a688 <inf_nan>
8000a544:	15068263          	beq	a3,a6,8000a688 <inf_nan>
8000a548:	12060063          	beqz	a2,8000a668 <zero_denormal>
8000a54c:	10068e63          	beqz	a3,8000a668 <zero_denormal>

8000a550 <normal_case>:
8000a550:	00d60633          	add	a2,a2,a3
8000a554:	00b54833          	xor	a6,a0,a1
8000a558:	80000737          	lui	a4,0x80000
8000a55c:	00e87833          	and	a6,a6,a4
8000a560:	00951513          	slli	a0,a0,0x9
8000a564:	00959593          	slli	a1,a1,0x9
8000a568:	080006b7          	lui	a3,0x8000
8000a56c:	00555513          	srli	a0,a0,0x5
8000a570:	0055d593          	srli	a1,a1,0x5
8000a574:	00d56533          	or	a0,a0,a3
8000a578:	00d5e5b3          	or	a1,a1,a3
8000a57c:	02b506b3          	mul	a3,a0,a1
8000a580:	02b535b3          	mulhu	a1,a0,a1
8000a584:	00080513          	mv	a0,a6
8000a588:	00800837          	lui	a6,0x800
8000a58c:	0105fc63          	bgeu	a1,a6,8000a5a4 <normal_case+0x54>
8000a590:	00159593          	slli	a1,a1,0x1
8000a594:	01f6d813          	srli	a6,a3,0x1f
8000a598:	0105e5b3          	or	a1,a1,a6
8000a59c:	00169693          	slli	a3,a3,0x1
8000a5a0:	fff60613          	addi	a2,a2,-1
8000a5a4:	00b56533          	or	a0,a0,a1
8000a5a8:	f8160613          	addi	a2,a2,-127
8000a5ac:	0fe00813          	li	a6,254
8000a5b0:	03067063          	bgeu	a2,a6,8000a5d0 <und_ov_flow>
8000a5b4:	01761613          	slli	a2,a2,0x17
8000a5b8:	00c50533          	add	a0,a0,a2
8000a5bc:	00e6e863          	bltu	a3,a4,8000a5cc <exit>
8000a5c0:	00150513          	addi	a0,a0,1
8000a5c4:	00e69463          	bne	a3,a4,8000a5cc <exit>
8000a5c8:	ffe57513          	andi	a0,a0,-2

8000a5cc <exit>:
8000a5cc:	00008067          	ret

8000a5d0 <und_ov_flow>:
8000a5d0:	0ec04063          	bgtz	a2,8000a6b0 <ovf>
8000a5d4:	01a60813          	addi	a6,a2,26
8000a5d8:	00085663          	bgez	a6,8000a5e4 <denormal_end>
8000a5dc:	00e57533          	and	a0,a0,a4
8000a5e0:	00008067          	ret

8000a5e4 <denormal_end>:
8000a5e4:	40c007b3          	neg	a5,a2
8000a5e8:	00a77833          	and	a6,a4,a0
8000a5ec:	01054533          	xor	a0,a0,a6
8000a5f0:	02060613          	addi	a2,a2,32
8000a5f4:	00c51633          	sll	a2,a0,a2
8000a5f8:	00f55533          	srl	a0,a0,a5
8000a5fc:	01056533          	or	a0,a0,a6
8000a600:	0016d693          	srli	a3,a3,0x1
8000a604:	00d66633          	or	a2,a2,a3
8000a608:	fce662e3          	bltu	a2,a4,8000a5cc <exit>
8000a60c:	00150513          	addi	a0,a0,1
8000a610:	fae61ee3          	bne	a2,a4,8000a5cc <exit>
8000a614:	ffe57513          	andi	a0,a0,-2
8000a618:	00008067          	ret

8000a61c <denormal>:
8000a61c:	00800837          	lui	a6,0x800
8000a620:	00a77733          	and	a4,a4,a0
8000a624:	00061c63          	bnez	a2,8000a63c <denormal+0x20>
8000a628:	00151513          	slli	a0,a0,0x1
8000a62c:	010577b3          	and	a5,a0,a6
8000a630:	00079663          	bnez	a5,8000a63c <denormal+0x20>
8000a634:	fff60613          	addi	a2,a2,-1
8000a638:	ff1ff06f          	j	8000a628 <denormal+0xc>
8000a63c:	00e56533          	or	a0,a0,a4
8000a640:	80000737          	lui	a4,0x80000
8000a644:	00b77733          	and	a4,a4,a1
8000a648:	00069c63          	bnez	a3,8000a660 <denormal+0x44>
8000a64c:	00159593          	slli	a1,a1,0x1
8000a650:	0105f7b3          	and	a5,a1,a6
8000a654:	00079663          	bnez	a5,8000a660 <denormal+0x44>
8000a658:	fff68693          	addi	a3,a3,-1 # 7ffffff <_start-0x78000001>
8000a65c:	ff1ff06f          	j	8000a64c <denormal+0x30>
8000a660:	00e5e5b3          	or	a1,a1,a4
8000a664:	eedff06f          	j	8000a550 <normal_case>

8000a668 <zero_denormal>:
8000a668:	fff74813          	not	a6,a4
8000a66c:	00a877b3          	and	a5,a6,a0
8000a670:	00078663          	beqz	a5,8000a67c <zero>
8000a674:	00b87833          	and	a6,a6,a1
8000a678:	fa0812e3          	bnez	a6,8000a61c <denormal>

8000a67c <zero>:
8000a67c:	00b54533          	xor	a0,a0,a1
8000a680:	00e57533          	and	a0,a0,a4
8000a684:	00008067          	ret

8000a688 <inf_nan>:
8000a688:	02050c63          	beqz	a0,8000a6c0 <nan>
8000a68c:	02058a63          	beqz	a1,8000a6c0 <nan>
8000a690:	02e50863          	beq	a0,a4,8000a6c0 <nan>
8000a694:	02e58663          	beq	a1,a4,8000a6c0 <nan>
8000a698:	01881813          	slli	a6,a6,0x18
8000a69c:	00151793          	slli	a5,a0,0x1
8000a6a0:	02f86063          	bltu	a6,a5,8000a6c0 <nan>
8000a6a4:	00159793          	slli	a5,a1,0x1
8000a6a8:	00f86c63          	bltu	a6,a5,8000a6c0 <nan>

8000a6ac <inf>:
8000a6ac:	00b54533          	xor	a0,a0,a1

8000a6b0 <ovf>:
8000a6b0:	00e57533          	and	a0,a0,a4
8000a6b4:	7f800737          	lui	a4,0x7f800
8000a6b8:	00e56533          	or	a0,a0,a4
8000a6bc:	00008067          	ret

8000a6c0 <nan>:
8000a6c0:	7fc00537          	lui	a0,0x7fc00
8000a6c4:	00008067          	ret

8000a6c8 <__truncdfsf2>:
8000a6c8:	80000637          	lui	a2,0x80000
8000a6cc:	00b676b3          	and	a3,a2,a1
8000a6d0:	00159593          	slli	a1,a1,0x1
8000a6d4:	0155d713          	srli	a4,a1,0x15
8000a6d8:	c8070713          	addi	a4,a4,-896 # 7f7ffc80 <_start-0x800380>
8000a6dc:	06e05263          	blez	a4,8000a740 <undflow>
8000a6e0:	f0270793          	addi	a5,a4,-254
8000a6e4:	02f04c63          	bgtz	a5,8000a71c <inf_nan>
8000a6e8:	00351793          	slli	a5,a0,0x3
8000a6ec:	01d55513          	srli	a0,a0,0x1d
8000a6f0:	00b59593          	slli	a1,a1,0xb
8000a6f4:	0095d593          	srli	a1,a1,0x9
8000a6f8:	00b56533          	or	a0,a0,a1
8000a6fc:	01771713          	slli	a4,a4,0x17
8000a700:	00e50533          	add	a0,a0,a4

8000a704 <round>:
8000a704:	0007d863          	bgez	a5,8000a714 <sign_exit>
8000a708:	00150513          	addi	a0,a0,1 # 7fc00001 <_start-0x3fffff>
8000a70c:	00c79463          	bne	a5,a2,8000a714 <sign_exit>
8000a710:	ffe57513          	andi	a0,a0,-2

8000a714 <sign_exit>:
8000a714:	00d56533          	or	a0,a0,a3
8000a718:	00008067          	ret

8000a71c <inf_nan>:
8000a71c:	00a03533          	snez	a0,a0
8000a720:	00a5e5b3          	or	a1,a1,a0
8000a724:	ffe00537          	lui	a0,0xffe00
8000a728:	00b56863          	bltu	a0,a1,8000a738 <nan>
8000a72c:	7f800537          	lui	a0,0x7f800
8000a730:	00d56533          	or	a0,a0,a3
8000a734:	00008067          	ret

8000a738 <nan>:
8000a738:	7fc00537          	lui	a0,0x7fc00
8000a73c:	00008067          	ret

8000a740 <undflow>:
8000a740:	01770313          	addi	t1,a4,23
8000a744:	04034463          	bltz	t1,8000a78c <zero>
8000a748:	002002b7          	lui	t0,0x200
8000a74c:	0055e5b3          	or	a1,a1,t0
8000a750:	00a59593          	slli	a1,a1,0xa
8000a754:	0085d593          	srli	a1,a1,0x8
8000a758:	01d55713          	srli	a4,a0,0x1d
8000a75c:	00e5e5b3          	or	a1,a1,a4
8000a760:	00351513          	slli	a0,a0,0x3
8000a764:	fe830313          	addi	t1,t1,-24 # 7fffffe8 <_start-0x18>
8000a768:	40600733          	neg	a4,t1
8000a76c:	006512b3          	sll	t0,a0,t1
8000a770:	00e557b3          	srl	a5,a0,a4
8000a774:	005032b3          	snez	t0,t0
8000a778:	0057e7b3          	or	a5,a5,t0
8000a77c:	006593b3          	sll	t2,a1,t1
8000a780:	0077e7b3          	or	a5,a5,t2
8000a784:	00e5d533          	srl	a0,a1,a4
8000a788:	f7dff06f          	j	8000a704 <round>

8000a78c <zero>:
8000a78c:	00068513          	mv	a0,a3
8000a790:	00008067          	ret

8000a794 <context_irq_enable>:
8000a794:	fe010113          	addi	sp,sp,-32
8000a798:	00812e23          	sw	s0,28(sp)
8000a79c:	02010413          	addi	s0,sp,32
8000a7a0:	fea42623          	sw	a0,-20(s0)
8000a7a4:	feb42423          	sw	a1,-24(s0)
8000a7a8:	fec42783          	lw	a5,-20(s0)
8000a7ac:	0047a783          	lw	a5,4(a5) # 80000004 <_start+0x4>
8000a7b0:	f7f7f713          	andi	a4,a5,-129
8000a7b4:	fec42783          	lw	a5,-20(s0)
8000a7b8:	00e7a223          	sw	a4,4(a5)
8000a7bc:	fec42783          	lw	a5,-20(s0)
8000a7c0:	0047a703          	lw	a4,4(a5)
8000a7c4:	fe842783          	lw	a5,-24(s0)
8000a7c8:	00078663          	beqz	a5,8000a7d4 <context_irq_enable+0x40>
8000a7cc:	08000793          	li	a5,128
8000a7d0:	0080006f          	j	8000a7d8 <context_irq_enable+0x44>
8000a7d4:	00000793          	li	a5,0
8000a7d8:	00e7e733          	or	a4,a5,a4
8000a7dc:	fec42783          	lw	a5,-20(s0)
8000a7e0:	00e7a223          	sw	a4,4(a5)
8000a7e4:	00000013          	nop
8000a7e8:	01c12403          	lw	s0,28(sp)
8000a7ec:	02010113          	addi	sp,sp,32
8000a7f0:	00008067          	ret

8000a7f4 <timer_diff>:
8000a7f4:	fe010113          	addi	sp,sp,-32
8000a7f8:	00812e23          	sw	s0,28(sp)
8000a7fc:	02010413          	addi	s0,sp,32
8000a800:	fea42623          	sw	a0,-20(s0)
8000a804:	feb42423          	sw	a1,-24(s0)
8000a808:	fec42703          	lw	a4,-20(s0)
8000a80c:	fe842783          	lw	a5,-24(s0)
8000a810:	40f707b3          	sub	a5,a4,a5
8000a814:	00078513          	mv	a0,a5
8000a818:	01c12403          	lw	s0,28(sp)
8000a81c:	02010113          	addi	sp,sp,32
8000a820:	00008067          	ret

8000a824 <clkhandler>:
8000a824:	ff010113          	addi	sp,sp,-16
8000a828:	00112623          	sw	ra,12(sp)
8000a82c:	00812423          	sw	s0,8(sp)
8000a830:	01010413          	addi	s0,sp,16
8000a834:	06400513          	li	a0,100
8000a838:	00000593          	li	a1,0
8000a83c:	850f60ef          	jal	8000088c <clkupdate>
8000a840:	8001d7b7          	lui	a5,0x8001d
8000a844:	4cc7a783          	lw	a5,1228(a5) # 8001d4cc <count1000>
8000a848:	00178713          	addi	a4,a5,1
8000a84c:	8001d7b7          	lui	a5,0x8001d
8000a850:	4ce7a623          	sw	a4,1228(a5) # 8001d4cc <count1000>
8000a854:	8001d7b7          	lui	a5,0x8001d
8000a858:	4cc7a703          	lw	a4,1228(a5) # 8001d4cc <count1000>
8000a85c:	3e700793          	li	a5,999
8000a860:	02e7f063          	bgeu	a5,a4,8000a880 <clkhandler+0x5c>
8000a864:	8001d7b7          	lui	a5,0x8001d
8000a868:	4c87a783          	lw	a5,1224(a5) # 8001d4c8 <clktime>
8000a86c:	00178713          	addi	a4,a5,1
8000a870:	8001d7b7          	lui	a5,0x8001d
8000a874:	4ce7a423          	sw	a4,1224(a5) # 8001d4c8 <clktime>
8000a878:	8001d7b7          	lui	a5,0x8001d
8000a87c:	4c07a623          	sw	zero,1228(a5) # 8001d4cc <count1000>
8000a880:	8001d7b7          	lui	a5,0x8001d
8000a884:	4d079783          	lh	a5,1232(a5) # 8001d4d0 <sleepq>
8000a888:	00078693          	mv	a3,a5
8000a88c:	800177b7          	lui	a5,0x80017
8000a890:	e9c78713          	addi	a4,a5,-356 # 80016e9c <queuetab>
8000a894:	00369793          	slli	a5,a3,0x3
8000a898:	00f707b3          	add	a5,a4,a5
8000a89c:	00479703          	lh	a4,4(a5)
8000a8a0:	00900793          	li	a5,9
8000a8a4:	06e7c663          	blt	a5,a4,8000a910 <clkhandler+0xec>
8000a8a8:	8001d7b7          	lui	a5,0x8001d
8000a8ac:	4d079783          	lh	a5,1232(a5) # 8001d4d0 <sleepq>
8000a8b0:	00078693          	mv	a3,a5
8000a8b4:	800177b7          	lui	a5,0x80017
8000a8b8:	e9c78713          	addi	a4,a5,-356 # 80016e9c <queuetab>
8000a8bc:	00369793          	slli	a5,a3,0x3
8000a8c0:	00f707b3          	add	a5,a4,a5
8000a8c4:	00479783          	lh	a5,4(a5)
8000a8c8:	80017737          	lui	a4,0x80017
8000a8cc:	e9c70693          	addi	a3,a4,-356 # 80016e9c <queuetab>
8000a8d0:	00379713          	slli	a4,a5,0x3
8000a8d4:	00e68733          	add	a4,a3,a4
8000a8d8:	00072703          	lw	a4,0(a4)
8000a8dc:	fff70693          	addi	a3,a4,-1
8000a8e0:	80017737          	lui	a4,0x80017
8000a8e4:	e9c70613          	addi	a2,a4,-356 # 80016e9c <queuetab>
8000a8e8:	00379713          	slli	a4,a5,0x3
8000a8ec:	00e60733          	add	a4,a2,a4
8000a8f0:	00d72023          	sw	a3,0(a4)
8000a8f4:	80017737          	lui	a4,0x80017
8000a8f8:	e9c70713          	addi	a4,a4,-356 # 80016e9c <queuetab>
8000a8fc:	00379793          	slli	a5,a5,0x3
8000a900:	00f707b3          	add	a5,a4,a5
8000a904:	0007a783          	lw	a5,0(a5)
8000a908:	00079463          	bnez	a5,8000a910 <clkhandler+0xec>
8000a90c:	335000ef          	jal	8000b440 <wakeup>
8000a910:	8001d7b7          	lui	a5,0x8001d
8000a914:	4d47a783          	lw	a5,1236(a5) # 8001d4d4 <preempt>
8000a918:	fff78713          	addi	a4,a5,-1
8000a91c:	8001d7b7          	lui	a5,0x8001d
8000a920:	4ce7aa23          	sw	a4,1236(a5) # 8001d4d4 <preempt>
8000a924:	8001d7b7          	lui	a5,0x8001d
8000a928:	4d47a783          	lw	a5,1236(a5) # 8001d4d4 <preempt>
8000a92c:	00079a63          	bnez	a5,8000a940 <clkhandler+0x11c>
8000a930:	8001d7b7          	lui	a5,0x8001d
8000a934:	00a00713          	li	a4,10
8000a938:	4ce7aa23          	sw	a4,1236(a5) # 8001d4d4 <preempt>
8000a93c:	2d5000ef          	jal	8000b410 <yield>
8000a940:	00000013          	nop
8000a944:	00c12083          	lw	ra,12(sp)
8000a948:	00812403          	lw	s0,8(sp)
8000a94c:	01010113          	addi	sp,sp,16
8000a950:	00008067          	ret

8000a954 <context_irq_enable>:
8000a954:	fe010113          	addi	sp,sp,-32
8000a958:	00812e23          	sw	s0,28(sp)
8000a95c:	02010413          	addi	s0,sp,32
8000a960:	fea42623          	sw	a0,-20(s0)
8000a964:	feb42423          	sw	a1,-24(s0)
8000a968:	fec42783          	lw	a5,-20(s0)
8000a96c:	0047a783          	lw	a5,4(a5)
8000a970:	f7f7f713          	andi	a4,a5,-129
8000a974:	fec42783          	lw	a5,-20(s0)
8000a978:	00e7a223          	sw	a4,4(a5)
8000a97c:	fec42783          	lw	a5,-20(s0)
8000a980:	0047a703          	lw	a4,4(a5)
8000a984:	fe842783          	lw	a5,-24(s0)
8000a988:	00078663          	beqz	a5,8000a994 <context_irq_enable+0x40>
8000a98c:	08000793          	li	a5,128
8000a990:	0080006f          	j	8000a998 <context_irq_enable+0x44>
8000a994:	00000793          	li	a5,0
8000a998:	00e7e733          	or	a4,a5,a4
8000a99c:	fec42783          	lw	a5,-20(s0)
8000a9a0:	00e7a223          	sw	a4,4(a5)
8000a9a4:	00000013          	nop
8000a9a8:	01c12403          	lw	s0,28(sp)
8000a9ac:	02010113          	addi	sp,sp,32
8000a9b0:	00008067          	ret

8000a9b4 <timer_diff>:
8000a9b4:	fe010113          	addi	sp,sp,-32
8000a9b8:	00812e23          	sw	s0,28(sp)
8000a9bc:	02010413          	addi	s0,sp,32
8000a9c0:	fea42623          	sw	a0,-20(s0)
8000a9c4:	feb42423          	sw	a1,-24(s0)
8000a9c8:	fec42703          	lw	a4,-20(s0)
8000a9cc:	fe842783          	lw	a5,-24(s0)
8000a9d0:	40f707b3          	sub	a5,a4,a5
8000a9d4:	00078513          	mv	a0,a5
8000a9d8:	01c12403          	lw	s0,28(sp)
8000a9dc:	02010113          	addi	sp,sp,32
8000a9e0:	00008067          	ret

8000a9e4 <clkinit>:
8000a9e4:	ff010113          	addi	sp,sp,-16
8000a9e8:	00112623          	sw	ra,12(sp)
8000a9ec:	00812423          	sw	s0,8(sp)
8000a9f0:	01010413          	addi	s0,sp,16
8000a9f4:	3a5020ef          	jal	8000d598 <newqueue>
8000a9f8:	00050793          	mv	a5,a0
8000a9fc:	00078713          	mv	a4,a5
8000aa00:	8001d7b7          	lui	a5,0x8001d
8000aa04:	4ce79823          	sh	a4,1232(a5) # 8001d4d0 <sleepq>
8000aa08:	8001d7b7          	lui	a5,0x8001d
8000aa0c:	00a00713          	li	a4,10
8000aa10:	4ce7aa23          	sw	a4,1236(a5) # 8001d4d4 <preempt>
8000aa14:	8001d7b7          	lui	a5,0x8001d
8000aa18:	4c07a423          	sw	zero,1224(a5) # 8001d4c8 <clktime>
8000aa1c:	8001d7b7          	lui	a5,0x8001d
8000aa20:	4c07a623          	sw	zero,1228(a5) # 8001d4cc <count1000>
8000aa24:	00000013          	nop
8000aa28:	00c12083          	lw	ra,12(sp)
8000aa2c:	00812403          	lw	s0,8(sp)
8000aa30:	01010113          	addi	sp,sp,16
8000aa34:	00008067          	ret

8000aa38 <context_irq_enable>:
8000aa38:	fe010113          	addi	sp,sp,-32
8000aa3c:	00812e23          	sw	s0,28(sp)
8000aa40:	02010413          	addi	s0,sp,32
8000aa44:	fea42623          	sw	a0,-20(s0)
8000aa48:	feb42423          	sw	a1,-24(s0)
8000aa4c:	fec42783          	lw	a5,-20(s0)
8000aa50:	0047a783          	lw	a5,4(a5)
8000aa54:	f7f7f713          	andi	a4,a5,-129
8000aa58:	fec42783          	lw	a5,-20(s0)
8000aa5c:	00e7a223          	sw	a4,4(a5)
8000aa60:	fec42783          	lw	a5,-20(s0)
8000aa64:	0047a703          	lw	a4,4(a5)
8000aa68:	fe842783          	lw	a5,-24(s0)
8000aa6c:	00078663          	beqz	a5,8000aa78 <context_irq_enable+0x40>
8000aa70:	08000793          	li	a5,128
8000aa74:	0080006f          	j	8000aa7c <context_irq_enable+0x44>
8000aa78:	00000793          	li	a5,0
8000aa7c:	00e7e733          	or	a4,a5,a4
8000aa80:	fec42783          	lw	a5,-20(s0)
8000aa84:	00e7a223          	sw	a4,4(a5)
8000aa88:	00000013          	nop
8000aa8c:	01c12403          	lw	s0,28(sp)
8000aa90:	02010113          	addi	sp,sp,32
8000aa94:	00008067          	ret

8000aa98 <timer_diff>:
8000aa98:	fe010113          	addi	sp,sp,-32
8000aa9c:	00812e23          	sw	s0,28(sp)
8000aaa0:	02010413          	addi	s0,sp,32
8000aaa4:	fea42623          	sw	a0,-20(s0)
8000aaa8:	feb42423          	sw	a1,-24(s0)
8000aaac:	fec42703          	lw	a4,-20(s0)
8000aab0:	fe842783          	lw	a5,-24(s0)
8000aab4:	40f707b3          	sub	a5,a4,a5
8000aab8:	00078513          	mv	a0,a5
8000aabc:	01c12403          	lw	s0,28(sp)
8000aac0:	02010113          	addi	sp,sp,32
8000aac4:	00008067          	ret

8000aac8 <context_irq_enable>:
8000aac8:	fe010113          	addi	sp,sp,-32
8000aacc:	00812e23          	sw	s0,28(sp)
8000aad0:	02010413          	addi	s0,sp,32
8000aad4:	fea42623          	sw	a0,-20(s0)
8000aad8:	feb42423          	sw	a1,-24(s0)
8000aadc:	fec42783          	lw	a5,-20(s0)
8000aae0:	0047a783          	lw	a5,4(a5)
8000aae4:	f7f7f713          	andi	a4,a5,-129
8000aae8:	fec42783          	lw	a5,-20(s0)
8000aaec:	00e7a223          	sw	a4,4(a5)
8000aaf0:	fec42783          	lw	a5,-20(s0)
8000aaf4:	0047a703          	lw	a4,4(a5)
8000aaf8:	fe842783          	lw	a5,-24(s0)
8000aafc:	00078663          	beqz	a5,8000ab08 <context_irq_enable+0x40>
8000ab00:	08000793          	li	a5,128
8000ab04:	0080006f          	j	8000ab0c <context_irq_enable+0x44>
8000ab08:	00000793          	li	a5,0
8000ab0c:	00e7e733          	or	a4,a5,a4
8000ab10:	fec42783          	lw	a5,-20(s0)
8000ab14:	00e7a223          	sw	a4,4(a5)
8000ab18:	00000013          	nop
8000ab1c:	01c12403          	lw	s0,28(sp)
8000ab20:	02010113          	addi	sp,sp,32
8000ab24:	00008067          	ret

8000ab28 <timer_diff>:
8000ab28:	fe010113          	addi	sp,sp,-32
8000ab2c:	00812e23          	sw	s0,28(sp)
8000ab30:	02010413          	addi	s0,sp,32
8000ab34:	fea42623          	sw	a0,-20(s0)
8000ab38:	feb42423          	sw	a1,-24(s0)
8000ab3c:	fec42703          	lw	a4,-20(s0)
8000ab40:	fe842783          	lw	a5,-24(s0)
8000ab44:	40f707b3          	sub	a5,a4,a5
8000ab48:	00078513          	mv	a0,a5
8000ab4c:	01c12403          	lw	s0,28(sp)
8000ab50:	02010113          	addi	sp,sp,32
8000ab54:	00008067          	ret

8000ab58 <createFromShell>:
8000ab58:	fb010113          	addi	sp,sp,-80
8000ab5c:	04112623          	sw	ra,76(sp)
8000ab60:	04812423          	sw	s0,72(sp)
8000ab64:	05010413          	addi	s0,sp,80
8000ab68:	fca42623          	sw	a0,-52(s0)
8000ab6c:	fcb42423          	sw	a1,-56(s0)
8000ab70:	fcd42023          	sw	a3,-64(s0)
8000ab74:	fae42e23          	sw	a4,-68(s0)
8000ab78:	faf42c23          	sw	a5,-72(s0)
8000ab7c:	00060793          	mv	a5,a2
8000ab80:	fcf41323          	sh	a5,-58(s0)
8000ab84:	f08f50ef          	jal	8000028c <disable>
8000ab88:	fea42423          	sw	a0,-24(s0)
8000ab8c:	fc842783          	lw	a5,-56(s0)
8000ab90:	00378793          	addi	a5,a5,3
8000ab94:	ffc7f793          	andi	a5,a5,-4
8000ab98:	fcf42423          	sw	a5,-56(s0)
8000ab9c:	fc842503          	lw	a0,-56(s0)
8000aba0:	c0cfa0ef          	jal	80004fac <getstk>
8000aba4:	fea42223          	sw	a0,-28(s0)
8000aba8:	fe442703          	lw	a4,-28(s0)
8000abac:	fff00793          	li	a5,-1
8000abb0:	02f71263          	bne	a4,a5,8000abd4 <createFromShell+0x7c>
8000abb4:	fc042583          	lw	a1,-64(s0)
8000abb8:	800147b7          	lui	a5,0x80014
8000abbc:	01478513          	addi	a0,a5,20 # 80014014 <r+0xf0>
8000abc0:	385080ef          	jal	80013744 <kprintf>
8000abc4:	fe842503          	lw	a0,-24(s0)
8000abc8:	eccf50ef          	jal	80000294 <restore>
8000abcc:	fff00793          	li	a5,-1
8000abd0:	15c0006f          	j	8000ad2c <createFromShell+0x1d4>
8000abd4:	8001d7b7          	lui	a5,0x8001d
8000abd8:	4ec7a783          	lw	a5,1260(a5) # 8001d4ec <prcount>
8000abdc:	00178713          	addi	a4,a5,1
8000abe0:	8001d7b7          	lui	a5,0x8001d
8000abe4:	4ee7a623          	sw	a4,1260(a5) # 8001d4ec <prcount>
8000abe8:	3b0000ef          	jal	8000af98 <newpid>
8000abec:	fea42023          	sw	a0,-32(s0)
8000abf0:	fe042703          	lw	a4,-32(s0)
8000abf4:	fff00793          	li	a5,-1
8000abf8:	02f71663          	bne	a4,a5,8000ac24 <createFromShell+0xcc>
8000abfc:	fc042583          	lw	a1,-64(s0)
8000ac00:	800147b7          	lui	a5,0x80014
8000ac04:	02878513          	addi	a0,a5,40 # 80014028 <r+0x104>
8000ac08:	33d080ef          	jal	80013744 <kprintf>
8000ac0c:	fe442503          	lw	a0,-28(s0)
8000ac10:	d7cfa0ef          	jal	8000518c <free>
8000ac14:	fe842503          	lw	a0,-24(s0)
8000ac18:	e7cf50ef          	jal	80000294 <restore>
8000ac1c:	fff00793          	li	a5,-1
8000ac20:	10c0006f          	j	8000ad2c <createFromShell+0x1d4>
8000ac24:	fe042703          	lw	a4,-32(s0)
8000ac28:	06400793          	li	a5,100
8000ac2c:	02f70733          	mul	a4,a4,a5
8000ac30:	800177b7          	lui	a5,0x80017
8000ac34:	a3c78793          	addi	a5,a5,-1476 # 80016a3c <proctab>
8000ac38:	00f707b3          	add	a5,a4,a5
8000ac3c:	fcf42e23          	sw	a5,-36(s0)
8000ac40:	fdc42783          	lw	a5,-36(s0)
8000ac44:	02078c23          	sb	zero,56(a5)
8000ac48:	fdc42783          	lw	a5,-36(s0)
8000ac4c:	02078823          	sb	zero,48(a5)
8000ac50:	3f0000ef          	jal	8000b040 <getpid>
8000ac54:	00050713          	mv	a4,a0
8000ac58:	fdc42783          	lw	a5,-36(s0)
8000ac5c:	02e7a423          	sw	a4,40(a5)
8000ac60:	fdc42783          	lw	a5,-36(s0)
8000ac64:	00500713          	li	a4,5
8000ac68:	00e79023          	sh	a4,0(a5)
8000ac6c:	fdc42783          	lw	a5,-36(s0)
8000ac70:	fe442703          	lw	a4,-28(s0)
8000ac74:	00e7a423          	sw	a4,8(a5)
8000ac78:	fdc42783          	lw	a5,-36(s0)
8000ac7c:	fc842703          	lw	a4,-56(s0)
8000ac80:	00e7a623          	sw	a4,12(a5)
8000ac84:	fdc42783          	lw	a5,-36(s0)
8000ac88:	020781a3          	sb	zero,35(a5)
8000ac8c:	fe042623          	sw	zero,-20(s0)
8000ac90:	0100006f          	j	8000aca0 <createFromShell+0x148>
8000ac94:	fec42783          	lw	a5,-20(s0)
8000ac98:	00178793          	addi	a5,a5,1
8000ac9c:	fef42623          	sw	a5,-20(s0)
8000aca0:	fec42703          	lw	a4,-20(s0)
8000aca4:	01200793          	li	a5,18
8000aca8:	02e7cc63          	blt	a5,a4,8000ace0 <createFromShell+0x188>
8000acac:	fec42783          	lw	a5,-20(s0)
8000acb0:	fc042703          	lw	a4,-64(s0)
8000acb4:	00f707b3          	add	a5,a4,a5
8000acb8:	0007c703          	lbu	a4,0(a5)
8000acbc:	fdc42683          	lw	a3,-36(s0)
8000acc0:	fec42783          	lw	a5,-20(s0)
8000acc4:	00f687b3          	add	a5,a3,a5
8000acc8:	00e78823          	sb	a4,16(a5)
8000accc:	fdc42703          	lw	a4,-36(s0)
8000acd0:	fec42783          	lw	a5,-20(s0)
8000acd4:	00f707b3          	add	a5,a4,a5
8000acd8:	0107c783          	lbu	a5,16(a5)
8000acdc:	fa079ce3          	bnez	a5,8000ac94 <createFromShell+0x13c>
8000ace0:	fdc42783          	lw	a5,-36(s0)
8000ace4:	02079923          	sh	zero,50(a5)
8000ace8:	fdc42783          	lw	a5,-36(s0)
8000acec:	02079a23          	sh	zero,52(a5)
8000acf0:	fdc42783          	lw	a5,-36(s0)
8000acf4:	02079b23          	sh	zero,54(a5)
8000acf8:	fb842703          	lw	a4,-72(s0)
8000acfc:	fbc42683          	lw	a3,-68(s0)
8000ad00:	8000b7b7          	lui	a5,0x8000b
8000ad04:	61078613          	addi	a2,a5,1552 # 8000b610 <userret>
8000ad08:	fcc42583          	lw	a1,-52(s0)
8000ad0c:	fe442503          	lw	a0,-28(s0)
8000ad10:	070030ef          	jal	8000dd80 <setupStackFromShell>
8000ad14:	00050713          	mv	a4,a0
8000ad18:	fdc42783          	lw	a5,-36(s0)
8000ad1c:	00e7a223          	sw	a4,4(a5)
8000ad20:	fe842503          	lw	a0,-24(s0)
8000ad24:	d70f50ef          	jal	80000294 <restore>
8000ad28:	fe042783          	lw	a5,-32(s0)
8000ad2c:	00078513          	mv	a0,a5
8000ad30:	04c12083          	lw	ra,76(sp)
8000ad34:	04812403          	lw	s0,72(sp)
8000ad38:	05010113          	addi	sp,sp,80
8000ad3c:	00008067          	ret

8000ad40 <create>:
8000ad40:	fa010113          	addi	sp,sp,-96
8000ad44:	04112623          	sw	ra,76(sp)
8000ad48:	04812423          	sw	s0,72(sp)
8000ad4c:	05010413          	addi	s0,sp,80
8000ad50:	fca42623          	sw	a0,-52(s0)
8000ad54:	fcb42423          	sw	a1,-56(s0)
8000ad58:	fcd42023          	sw	a3,-64(s0)
8000ad5c:	fae42e23          	sw	a4,-68(s0)
8000ad60:	00f42223          	sw	a5,4(s0)
8000ad64:	01042423          	sw	a6,8(s0)
8000ad68:	01142623          	sw	a7,12(s0)
8000ad6c:	00060793          	mv	a5,a2
8000ad70:	fcf41323          	sh	a5,-58(s0)
8000ad74:	d18f50ef          	jal	8000028c <disable>
8000ad78:	fea42223          	sw	a0,-28(s0)
8000ad7c:	fc842783          	lw	a5,-56(s0)
8000ad80:	00378793          	addi	a5,a5,3
8000ad84:	ffc7f793          	andi	a5,a5,-4
8000ad88:	fcf42423          	sw	a5,-56(s0)
8000ad8c:	fc842503          	lw	a0,-56(s0)
8000ad90:	a1cfa0ef          	jal	80004fac <getstk>
8000ad94:	fea42023          	sw	a0,-32(s0)
8000ad98:	fe042703          	lw	a4,-32(s0)
8000ad9c:	fff00793          	li	a5,-1
8000ada0:	02f71263          	bne	a4,a5,8000adc4 <create+0x84>
8000ada4:	fc042583          	lw	a1,-64(s0)
8000ada8:	800147b7          	lui	a5,0x80014
8000adac:	01478513          	addi	a0,a5,20 # 80014014 <r+0xf0>
8000adb0:	195080ef          	jal	80013744 <kprintf>
8000adb4:	fe442503          	lw	a0,-28(s0)
8000adb8:	cdcf50ef          	jal	80000294 <restore>
8000adbc:	fff00793          	li	a5,-1
8000adc0:	1c40006f          	j	8000af84 <create+0x244>
8000adc4:	8001d7b7          	lui	a5,0x8001d
8000adc8:	4ec7a783          	lw	a5,1260(a5) # 8001d4ec <prcount>
8000adcc:	00178713          	addi	a4,a5,1
8000add0:	8001d7b7          	lui	a5,0x8001d
8000add4:	4ee7a623          	sw	a4,1260(a5) # 8001d4ec <prcount>
8000add8:	1c0000ef          	jal	8000af98 <newpid>
8000addc:	fca42e23          	sw	a0,-36(s0)
8000ade0:	fdc42703          	lw	a4,-36(s0)
8000ade4:	fff00793          	li	a5,-1
8000ade8:	02f71663          	bne	a4,a5,8000ae14 <create+0xd4>
8000adec:	fc042583          	lw	a1,-64(s0)
8000adf0:	800147b7          	lui	a5,0x80014
8000adf4:	02878513          	addi	a0,a5,40 # 80014028 <r+0x104>
8000adf8:	14d080ef          	jal	80013744 <kprintf>
8000adfc:	fe042503          	lw	a0,-32(s0)
8000ae00:	b8cfa0ef          	jal	8000518c <free>
8000ae04:	fe442503          	lw	a0,-28(s0)
8000ae08:	c8cf50ef          	jal	80000294 <restore>
8000ae0c:	fff00793          	li	a5,-1
8000ae10:	1740006f          	j	8000af84 <create+0x244>
8000ae14:	fdc42703          	lw	a4,-36(s0)
8000ae18:	06400793          	li	a5,100
8000ae1c:	02f70733          	mul	a4,a4,a5
8000ae20:	800177b7          	lui	a5,0x80017
8000ae24:	a3c78793          	addi	a5,a5,-1476 # 80016a3c <proctab>
8000ae28:	00f707b3          	add	a5,a4,a5
8000ae2c:	fcf42c23          	sw	a5,-40(s0)
8000ae30:	fd842783          	lw	a5,-40(s0)
8000ae34:	02078c23          	sb	zero,56(a5)
8000ae38:	fd842783          	lw	a5,-40(s0)
8000ae3c:	02078823          	sb	zero,48(a5)
8000ae40:	200000ef          	jal	8000b040 <getpid>
8000ae44:	00050713          	mv	a4,a0
8000ae48:	fd842783          	lw	a5,-40(s0)
8000ae4c:	02e7a423          	sw	a4,40(a5)
8000ae50:	fd842783          	lw	a5,-40(s0)
8000ae54:	00500713          	li	a4,5
8000ae58:	00e79023          	sh	a4,0(a5)
8000ae5c:	fd842783          	lw	a5,-40(s0)
8000ae60:	fe042703          	lw	a4,-32(s0)
8000ae64:	00e7a423          	sw	a4,8(a5)
8000ae68:	fd842783          	lw	a5,-40(s0)
8000ae6c:	fc842703          	lw	a4,-56(s0)
8000ae70:	00e7a623          	sw	a4,12(a5)
8000ae74:	fd842783          	lw	a5,-40(s0)
8000ae78:	020781a3          	sb	zero,35(a5)
8000ae7c:	fe042623          	sw	zero,-20(s0)
8000ae80:	0100006f          	j	8000ae90 <create+0x150>
8000ae84:	fec42783          	lw	a5,-20(s0)
8000ae88:	00178793          	addi	a5,a5,1
8000ae8c:	fef42623          	sw	a5,-20(s0)
8000ae90:	fec42703          	lw	a4,-20(s0)
8000ae94:	01200793          	li	a5,18
8000ae98:	02e7ec63          	bltu	a5,a4,8000aed0 <create+0x190>
8000ae9c:	fc042703          	lw	a4,-64(s0)
8000aea0:	fec42783          	lw	a5,-20(s0)
8000aea4:	00f707b3          	add	a5,a4,a5
8000aea8:	0007c703          	lbu	a4,0(a5)
8000aeac:	fd842683          	lw	a3,-40(s0)
8000aeb0:	fec42783          	lw	a5,-20(s0)
8000aeb4:	00f687b3          	add	a5,a3,a5
8000aeb8:	00e78823          	sb	a4,16(a5)
8000aebc:	fd842703          	lw	a4,-40(s0)
8000aec0:	fec42783          	lw	a5,-20(s0)
8000aec4:	00f707b3          	add	a5,a4,a5
8000aec8:	0107c783          	lbu	a5,16(a5)
8000aecc:	fa079ce3          	bnez	a5,8000ae84 <create+0x144>
8000aed0:	fd842783          	lw	a5,-40(s0)
8000aed4:	02079923          	sh	zero,50(a5)
8000aed8:	fd842783          	lw	a5,-40(s0)
8000aedc:	02079a23          	sh	zero,52(a5)
8000aee0:	fd842783          	lw	a5,-40(s0)
8000aee4:	02079b23          	sh	zero,54(a5)
8000aee8:	01040793          	addi	a5,s0,16
8000aeec:	faf42c23          	sw	a5,-72(s0)
8000aef0:	fb842783          	lw	a5,-72(s0)
8000aef4:	ff478793          	addi	a5,a5,-12
8000aef8:	fcf42a23          	sw	a5,-44(s0)
8000aefc:	fe042423          	sw	zero,-24(s0)
8000af00:	03c0006f          	j	8000af3c <create+0x1fc>
8000af04:	fd442783          	lw	a5,-44(s0)
8000af08:	00478713          	addi	a4,a5,4
8000af0c:	fce42a23          	sw	a4,-44(s0)
8000af10:	0007a783          	lw	a5,0(a5)
8000af14:	00078693          	mv	a3,a5
8000af18:	fd842703          	lw	a4,-40(s0)
8000af1c:	fe842783          	lw	a5,-24(s0)
8000af20:	01078793          	addi	a5,a5,16
8000af24:	00279793          	slli	a5,a5,0x2
8000af28:	00f707b3          	add	a5,a4,a5
8000af2c:	00d7a223          	sw	a3,4(a5)
8000af30:	fe842783          	lw	a5,-24(s0)
8000af34:	00178793          	addi	a5,a5,1
8000af38:	fef42423          	sw	a5,-24(s0)
8000af3c:	fe842783          	lw	a5,-24(s0)
8000af40:	fbc42703          	lw	a4,-68(s0)
8000af44:	fce7e0e3          	bltu	a5,a4,8000af04 <create+0x1c4>
8000af48:	fd842783          	lw	a5,-40(s0)
8000af4c:	04478793          	addi	a5,a5,68
8000af50:	00078713          	mv	a4,a5
8000af54:	fbc42683          	lw	a3,-68(s0)
8000af58:	8000b7b7          	lui	a5,0x8000b
8000af5c:	61078613          	addi	a2,a5,1552 # 8000b610 <userret>
8000af60:	fcc42583          	lw	a1,-52(s0)
8000af64:	fe042503          	lw	a0,-32(s0)
8000af68:	619020ef          	jal	8000dd80 <setupStackFromShell>
8000af6c:	00050713          	mv	a4,a0
8000af70:	fd842783          	lw	a5,-40(s0)
8000af74:	00e7a223          	sw	a4,4(a5)
8000af78:	fe442503          	lw	a0,-28(s0)
8000af7c:	b18f50ef          	jal	80000294 <restore>
8000af80:	fdc42783          	lw	a5,-36(s0)
8000af84:	00078513          	mv	a0,a5
8000af88:	04c12083          	lw	ra,76(sp)
8000af8c:	04812403          	lw	s0,72(sp)
8000af90:	06010113          	addi	sp,sp,96
8000af94:	00008067          	ret

8000af98 <newpid>:
8000af98:	fe010113          	addi	sp,sp,-32
8000af9c:	00812e23          	sw	s0,28(sp)
8000afa0:	02010413          	addi	s0,sp,32
8000afa4:	fe042623          	sw	zero,-20(s0)
8000afa8:	0780006f          	j	8000b020 <newpid+0x88>
8000afac:	800177b7          	lui	a5,0x80017
8000afb0:	a387a703          	lw	a4,-1480(a5) # 80016a38 <nextpid.0>
8000afb4:	00a00793          	li	a5,10
8000afb8:	02f76733          	rem	a4,a4,a5
8000afbc:	800177b7          	lui	a5,0x80017
8000afc0:	a2e7ac23          	sw	a4,-1480(a5) # 80016a38 <nextpid.0>
8000afc4:	800177b7          	lui	a5,0x80017
8000afc8:	a387a683          	lw	a3,-1480(a5) # 80016a38 <nextpid.0>
8000afcc:	800177b7          	lui	a5,0x80017
8000afd0:	a3c78713          	addi	a4,a5,-1476 # 80016a3c <proctab>
8000afd4:	06400793          	li	a5,100
8000afd8:	02f687b3          	mul	a5,a3,a5
8000afdc:	00f707b3          	add	a5,a4,a5
8000afe0:	0007d783          	lhu	a5,0(a5)
8000afe4:	00079e63          	bnez	a5,8000b000 <newpid+0x68>
8000afe8:	800177b7          	lui	a5,0x80017
8000afec:	a387a783          	lw	a5,-1480(a5) # 80016a38 <nextpid.0>
8000aff0:	00178693          	addi	a3,a5,1
8000aff4:	80017737          	lui	a4,0x80017
8000aff8:	a2d72c23          	sw	a3,-1480(a4) # 80016a38 <nextpid.0>
8000affc:	0340006f          	j	8000b030 <newpid+0x98>
8000b000:	800177b7          	lui	a5,0x80017
8000b004:	a387a783          	lw	a5,-1480(a5) # 80016a38 <nextpid.0>
8000b008:	00178713          	addi	a4,a5,1
8000b00c:	800177b7          	lui	a5,0x80017
8000b010:	a2e7ac23          	sw	a4,-1480(a5) # 80016a38 <nextpid.0>
8000b014:	fec42783          	lw	a5,-20(s0)
8000b018:	00178793          	addi	a5,a5,1
8000b01c:	fef42623          	sw	a5,-20(s0)
8000b020:	fec42703          	lw	a4,-20(s0)
8000b024:	00900793          	li	a5,9
8000b028:	f8e7f2e3          	bgeu	a5,a4,8000afac <newpid+0x14>
8000b02c:	fff00793          	li	a5,-1
8000b030:	00078513          	mv	a0,a5
8000b034:	01c12403          	lw	s0,28(sp)
8000b038:	02010113          	addi	sp,sp,32
8000b03c:	00008067          	ret

8000b040 <getpid>:
8000b040:	ff010113          	addi	sp,sp,-16
8000b044:	00812623          	sw	s0,12(sp)
8000b048:	01010413          	addi	s0,sp,16
8000b04c:	8001d7b7          	lui	a5,0x8001d
8000b050:	4f07a783          	lw	a5,1264(a5) # 8001d4f0 <currpid>
8000b054:	00078513          	mv	a0,a5
8000b058:	00c12403          	lw	s0,12(sp)
8000b05c:	01010113          	addi	sp,sp,16
8000b060:	00008067          	ret

8000b064 <chprio>:
8000b064:	fd010113          	addi	sp,sp,-48
8000b068:	02112623          	sw	ra,44(sp)
8000b06c:	02812423          	sw	s0,40(sp)
8000b070:	03010413          	addi	s0,sp,48
8000b074:	fca42e23          	sw	a0,-36(s0)
8000b078:	00058793          	mv	a5,a1
8000b07c:	fcf41d23          	sh	a5,-38(s0)
8000b080:	a0cf50ef          	jal	8000028c <disable>
8000b084:	fea42623          	sw	a0,-20(s0)
8000b088:	fdc42783          	lw	a5,-36(s0)
8000b08c:	0207c863          	bltz	a5,8000b0bc <chprio+0x58>
8000b090:	fdc42703          	lw	a4,-36(s0)
8000b094:	00900793          	li	a5,9
8000b098:	02e7c263          	blt	a5,a4,8000b0bc <chprio+0x58>
8000b09c:	800177b7          	lui	a5,0x80017
8000b0a0:	a3c78713          	addi	a4,a5,-1476 # 80016a3c <proctab>
8000b0a4:	fdc42683          	lw	a3,-36(s0)
8000b0a8:	06400793          	li	a5,100
8000b0ac:	02f687b3          	mul	a5,a3,a5
8000b0b0:	00f707b3          	add	a5,a4,a5
8000b0b4:	0007d783          	lhu	a5,0(a5)
8000b0b8:	00079a63          	bnez	a5,8000b0cc <chprio+0x68>
8000b0bc:	fec42503          	lw	a0,-20(s0)
8000b0c0:	9d4f50ef          	jal	80000294 <restore>
8000b0c4:	fff00793          	li	a5,-1
8000b0c8:	0440006f          	j	8000b10c <chprio+0xa8>
8000b0cc:	fdc42703          	lw	a4,-36(s0)
8000b0d0:	06400793          	li	a5,100
8000b0d4:	02f70733          	mul	a4,a4,a5
8000b0d8:	800177b7          	lui	a5,0x80017
8000b0dc:	a3c78793          	addi	a5,a5,-1476 # 80016a3c <proctab>
8000b0e0:	00f707b3          	add	a5,a4,a5
8000b0e4:	fef42423          	sw	a5,-24(s0)
8000b0e8:	fe842783          	lw	a5,-24(s0)
8000b0ec:	0027d783          	lhu	a5,2(a5)
8000b0f0:	fef41323          	sh	a5,-26(s0)
8000b0f4:	fe842783          	lw	a5,-24(s0)
8000b0f8:	fda45703          	lhu	a4,-38(s0)
8000b0fc:	00e79123          	sh	a4,2(a5)
8000b100:	fec42503          	lw	a0,-20(s0)
8000b104:	990f50ef          	jal	80000294 <restore>
8000b108:	fe641783          	lh	a5,-26(s0)
8000b10c:	00078513          	mv	a0,a5
8000b110:	02c12083          	lw	ra,44(sp)
8000b114:	02812403          	lw	s0,40(sp)
8000b118:	03010113          	addi	sp,sp,48
8000b11c:	00008067          	ret

8000b120 <getprio>:
8000b120:	fd010113          	addi	sp,sp,-48
8000b124:	02112623          	sw	ra,44(sp)
8000b128:	02812423          	sw	s0,40(sp)
8000b12c:	03010413          	addi	s0,sp,48
8000b130:	fca42e23          	sw	a0,-36(s0)
8000b134:	958f50ef          	jal	8000028c <disable>
8000b138:	fea42623          	sw	a0,-20(s0)
8000b13c:	fdc42783          	lw	a5,-36(s0)
8000b140:	0207c863          	bltz	a5,8000b170 <getprio+0x50>
8000b144:	fdc42703          	lw	a4,-36(s0)
8000b148:	00900793          	li	a5,9
8000b14c:	02e7c263          	blt	a5,a4,8000b170 <getprio+0x50>
8000b150:	800177b7          	lui	a5,0x80017
8000b154:	a3c78713          	addi	a4,a5,-1476 # 80016a3c <proctab>
8000b158:	fdc42683          	lw	a3,-36(s0)
8000b15c:	06400793          	li	a5,100
8000b160:	02f687b3          	mul	a5,a3,a5
8000b164:	00f707b3          	add	a5,a4,a5
8000b168:	0007d783          	lhu	a5,0(a5)
8000b16c:	00079a63          	bnez	a5,8000b180 <getprio+0x60>
8000b170:	fec42503          	lw	a0,-20(s0)
8000b174:	920f50ef          	jal	80000294 <restore>
8000b178:	fff00793          	li	a5,-1
8000b17c:	0300006f          	j	8000b1ac <getprio+0x8c>
8000b180:	800177b7          	lui	a5,0x80017
8000b184:	a3c78713          	addi	a4,a5,-1476 # 80016a3c <proctab>
8000b188:	fdc42683          	lw	a3,-36(s0)
8000b18c:	06400793          	li	a5,100
8000b190:	02f687b3          	mul	a5,a3,a5
8000b194:	00f707b3          	add	a5,a4,a5
8000b198:	00279783          	lh	a5,2(a5)
8000b19c:	fef42423          	sw	a5,-24(s0)
8000b1a0:	fec42503          	lw	a0,-20(s0)
8000b1a4:	8f0f50ef          	jal	80000294 <restore>
8000b1a8:	fe842783          	lw	a5,-24(s0)
8000b1ac:	00078513          	mv	a0,a5
8000b1b0:	02c12083          	lw	ra,44(sp)
8000b1b4:	02812403          	lw	s0,40(sp)
8000b1b8:	03010113          	addi	sp,sp,48
8000b1bc:	00008067          	ret

8000b1c0 <kill>:
8000b1c0:	fd010113          	addi	sp,sp,-48
8000b1c4:	02112623          	sw	ra,44(sp)
8000b1c8:	02812423          	sw	s0,40(sp)
8000b1cc:	03010413          	addi	s0,sp,48
8000b1d0:	fca42e23          	sw	a0,-36(s0)
8000b1d4:	8b8f50ef          	jal	8000028c <disable>
8000b1d8:	fea42423          	sw	a0,-24(s0)
8000b1dc:	fdc42783          	lw	a5,-36(s0)
8000b1e0:	0607c063          	bltz	a5,8000b240 <kill+0x80>
8000b1e4:	fdc42703          	lw	a4,-36(s0)
8000b1e8:	00900793          	li	a5,9
8000b1ec:	04e7ca63          	blt	a5,a4,8000b240 <kill+0x80>
8000b1f0:	800177b7          	lui	a5,0x80017
8000b1f4:	a3c78713          	addi	a4,a5,-1476 # 80016a3c <proctab>
8000b1f8:	fdc42683          	lw	a3,-36(s0)
8000b1fc:	06400793          	li	a5,100
8000b200:	02f687b3          	mul	a5,a3,a5
8000b204:	00f707b3          	add	a5,a4,a5
8000b208:	0007d783          	lhu	a5,0(a5)
8000b20c:	02078a63          	beqz	a5,8000b240 <kill+0x80>
8000b210:	fdc42783          	lw	a5,-36(s0)
8000b214:	02078663          	beqz	a5,8000b240 <kill+0x80>
8000b218:	fdc42703          	lw	a4,-36(s0)
8000b21c:	06400793          	li	a5,100
8000b220:	02f70733          	mul	a4,a4,a5
8000b224:	800177b7          	lui	a5,0x80017
8000b228:	a3c78793          	addi	a5,a5,-1476 # 80016a3c <proctab>
8000b22c:	00f707b3          	add	a5,a4,a5
8000b230:	fef42223          	sw	a5,-28(s0)
8000b234:	fe442783          	lw	a5,-28(s0)
8000b238:	0007d783          	lhu	a5,0(a5)
8000b23c:	00079a63          	bnez	a5,8000b250 <kill+0x90>
8000b240:	fe842503          	lw	a0,-24(s0)
8000b244:	850f50ef          	jal	80000294 <restore>
8000b248:	fff00793          	li	a5,-1
8000b24c:	1b00006f          	j	8000b3fc <kill+0x23c>
8000b250:	8001d7b7          	lui	a5,0x8001d
8000b254:	4ec7a783          	lw	a5,1260(a5) # 8001d4ec <prcount>
8000b258:	fff78713          	addi	a4,a5,-1
8000b25c:	8001d7b7          	lui	a5,0x8001d
8000b260:	4ee7a623          	sw	a4,1260(a5) # 8001d4ec <prcount>
8000b264:	8001d7b7          	lui	a5,0x8001d
8000b268:	4ec7a703          	lw	a4,1260(a5) # 8001d4ec <prcount>
8000b26c:	00100793          	li	a5,1
8000b270:	00e7c463          	blt	a5,a4,8000b278 <kill+0xb8>
8000b274:	4bc030ef          	jal	8000e730 <xdone>
8000b278:	fe442783          	lw	a5,-28(s0)
8000b27c:	0287a783          	lw	a5,40(a5)
8000b280:	fdc42703          	lw	a4,-36(s0)
8000b284:	00070593          	mv	a1,a4
8000b288:	00078513          	mv	a0,a5
8000b28c:	169010ef          	jal	8000cbf4 <send>
8000b290:	fe042623          	sw	zero,-20(s0)
8000b294:	0300006f          	j	8000b2c4 <kill+0x104>
8000b298:	fe442703          	lw	a4,-28(s0)
8000b29c:	fec42783          	lw	a5,-20(s0)
8000b2a0:	01878793          	addi	a5,a5,24
8000b2a4:	00179793          	slli	a5,a5,0x1
8000b2a8:	00f707b3          	add	a5,a4,a5
8000b2ac:	00279783          	lh	a5,2(a5)
8000b2b0:	00078513          	mv	a0,a5
8000b2b4:	481000ef          	jal	8000bf34 <close>
8000b2b8:	fec42783          	lw	a5,-20(s0)
8000b2bc:	00178793          	addi	a5,a5,1
8000b2c0:	fef42623          	sw	a5,-20(s0)
8000b2c4:	fec42703          	lw	a4,-20(s0)
8000b2c8:	00200793          	li	a5,2
8000b2cc:	fce7d6e3          	bge	a5,a4,8000b298 <kill+0xd8>
8000b2d0:	fe442783          	lw	a5,-28(s0)
8000b2d4:	0087a783          	lw	a5,8(a5)
8000b2d8:	00078713          	mv	a4,a5
8000b2dc:	fe442783          	lw	a5,-28(s0)
8000b2e0:	00c7a783          	lw	a5,12(a5)
8000b2e4:	00778793          	addi	a5,a5,7
8000b2e8:	ff87f793          	andi	a5,a5,-8
8000b2ec:	40f707b3          	sub	a5,a4,a5
8000b2f0:	00478793          	addi	a5,a5,4
8000b2f4:	00078713          	mv	a4,a5
8000b2f8:	fe442783          	lw	a5,-28(s0)
8000b2fc:	00c7a783          	lw	a5,12(a5)
8000b300:	00778793          	addi	a5,a5,7
8000b304:	ff87f793          	andi	a5,a5,-8
8000b308:	00078593          	mv	a1,a5
8000b30c:	00070513          	mv	a0,a4
8000b310:	925f90ef          	jal	80004c34 <freemem>
8000b314:	fe442783          	lw	a5,-28(s0)
8000b318:	0387c703          	lbu	a4,56(a5)
8000b31c:	00100793          	li	a5,1
8000b320:	02f71663          	bne	a4,a5,8000b34c <kill+0x18c>
8000b324:	fe442783          	lw	a5,-28(s0)
8000b328:	03c7a783          	lw	a5,60(a5)
8000b32c:	00078513          	mv	a0,a5
8000b330:	e5df90ef          	jal	8000518c <free>
8000b334:	fe442783          	lw	a5,-28(s0)
8000b338:	03c7a783          	lw	a5,60(a5)
8000b33c:	00078593          	mv	a1,a5
8000b340:	800147b7          	lui	a5,0x80014
8000b344:	03c78513          	addi	a0,a5,60 # 8001403c <r+0x118>
8000b348:	3fc080ef          	jal	80013744 <kprintf>
8000b34c:	fe442783          	lw	a5,-28(s0)
8000b350:	0007d783          	lhu	a5,0(a5)
8000b354:	00700713          	li	a4,7
8000b358:	08f76863          	bltu	a4,a5,8000b3e8 <kill+0x228>
8000b35c:	00279713          	slli	a4,a5,0x2
8000b360:	800147b7          	lui	a5,0x80014
8000b364:	04c78793          	addi	a5,a5,76 # 8001404c <r+0x128>
8000b368:	00f707b3          	add	a5,a4,a5
8000b36c:	0007a783          	lw	a5,0(a5)
8000b370:	00078067          	jr	a5
8000b374:	fe442783          	lw	a5,-28(s0)
8000b378:	00079023          	sh	zero,0(a5)
8000b37c:	71c000ef          	jal	8000ba98 <resched>
8000b380:	fdc42503          	lw	a0,-36(s0)
8000b384:	2c0000ef          	jal	8000b644 <unsleep>
8000b388:	fe442783          	lw	a5,-28(s0)
8000b38c:	00079023          	sh	zero,0(a5)
8000b390:	0600006f          	j	8000b3f0 <kill+0x230>
8000b394:	fe442783          	lw	a5,-28(s0)
8000b398:	0247a703          	lw	a4,36(a5)
8000b39c:	800177b7          	lui	a5,0x80017
8000b3a0:	e2478693          	addi	a3,a5,-476 # 80016e24 <semtab>
8000b3a4:	00070793          	mv	a5,a4
8000b3a8:	00179793          	slli	a5,a5,0x1
8000b3ac:	00e787b3          	add	a5,a5,a4
8000b3b0:	00279793          	slli	a5,a5,0x2
8000b3b4:	00f687b3          	add	a5,a3,a5
8000b3b8:	0047a783          	lw	a5,4(a5)
8000b3bc:	00178693          	addi	a3,a5,1
8000b3c0:	800177b7          	lui	a5,0x80017
8000b3c4:	e2478613          	addi	a2,a5,-476 # 80016e24 <semtab>
8000b3c8:	00070793          	mv	a5,a4
8000b3cc:	00179793          	slli	a5,a5,0x1
8000b3d0:	00e787b3          	add	a5,a5,a4
8000b3d4:	00279793          	slli	a5,a5,0x2
8000b3d8:	00f607b3          	add	a5,a2,a5
8000b3dc:	00d7a223          	sw	a3,4(a5)
8000b3e0:	fdc42503          	lw	a0,-36(s0)
8000b3e4:	561010ef          	jal	8000d144 <getitem>
8000b3e8:	fe442783          	lw	a5,-28(s0)
8000b3ec:	00079023          	sh	zero,0(a5)
8000b3f0:	fe842503          	lw	a0,-24(s0)
8000b3f4:	ea1f40ef          	jal	80000294 <restore>
8000b3f8:	00100793          	li	a5,1
8000b3fc:	00078513          	mv	a0,a5
8000b400:	02c12083          	lw	ra,44(sp)
8000b404:	02812403          	lw	s0,40(sp)
8000b408:	03010113          	addi	sp,sp,48
8000b40c:	00008067          	ret

8000b410 <yield>:
8000b410:	ff010113          	addi	sp,sp,-16
8000b414:	00112623          	sw	ra,12(sp)
8000b418:	00812423          	sw	s0,8(sp)
8000b41c:	01010413          	addi	s0,sp,16
8000b420:	03d00513          	li	a0,61
8000b424:	3e90a0ef          	jal	8001600c <__syscall>
8000b428:	00100793          	li	a5,1
8000b42c:	00078513          	mv	a0,a5
8000b430:	00c12083          	lw	ra,12(sp)
8000b434:	00812403          	lw	s0,8(sp)
8000b438:	01010113          	addi	sp,sp,16
8000b43c:	00008067          	ret

8000b440 <wakeup>:
8000b440:	ff010113          	addi	sp,sp,-16
8000b444:	00112623          	sw	ra,12(sp)
8000b448:	00812423          	sw	s0,8(sp)
8000b44c:	01010413          	addi	s0,sp,16
8000b450:	00100513          	li	a0,1
8000b454:	7e8000ef          	jal	8000bc3c <resched_cntl>
8000b458:	0200006f          	j	8000b478 <wakeup+0x38>
8000b45c:	8001d7b7          	lui	a5,0x8001d
8000b460:	4d079783          	lh	a5,1232(a5) # 8001d4d0 <sleepq>
8000b464:	00078513          	mv	a0,a5
8000b468:	319010ef          	jal	8000cf80 <dequeue>
8000b46c:	00050793          	mv	a5,a0
8000b470:	00078513          	mv	a0,a5
8000b474:	0a5000ef          	jal	8000bd18 <ready>
8000b478:	8001d7b7          	lui	a5,0x8001d
8000b47c:	4d079783          	lh	a5,1232(a5) # 8001d4d0 <sleepq>
8000b480:	00078693          	mv	a3,a5
8000b484:	800177b7          	lui	a5,0x80017
8000b488:	e9c78713          	addi	a4,a5,-356 # 80016e9c <queuetab>
8000b48c:	00369793          	slli	a5,a3,0x3
8000b490:	00f707b3          	add	a5,a4,a5
8000b494:	00479703          	lh	a4,4(a5)
8000b498:	00900793          	li	a5,9
8000b49c:	04e7c063          	blt	a5,a4,8000b4dc <wakeup+0x9c>
8000b4a0:	8001d7b7          	lui	a5,0x8001d
8000b4a4:	4d079783          	lh	a5,1232(a5) # 8001d4d0 <sleepq>
8000b4a8:	00078693          	mv	a3,a5
8000b4ac:	800177b7          	lui	a5,0x80017
8000b4b0:	e9c78713          	addi	a4,a5,-356 # 80016e9c <queuetab>
8000b4b4:	00369793          	slli	a5,a3,0x3
8000b4b8:	00f707b3          	add	a5,a4,a5
8000b4bc:	00479783          	lh	a5,4(a5)
8000b4c0:	00078693          	mv	a3,a5
8000b4c4:	800177b7          	lui	a5,0x80017
8000b4c8:	e9c78713          	addi	a4,a5,-356 # 80016e9c <queuetab>
8000b4cc:	00369793          	slli	a5,a3,0x3
8000b4d0:	00f707b3          	add	a5,a4,a5
8000b4d4:	0007a783          	lw	a5,0(a5)
8000b4d8:	f8f052e3          	blez	a5,8000b45c <wakeup+0x1c>
8000b4dc:	00200513          	li	a0,2
8000b4e0:	75c000ef          	jal	8000bc3c <resched_cntl>
8000b4e4:	00000013          	nop
8000b4e8:	00c12083          	lw	ra,12(sp)
8000b4ec:	00812403          	lw	s0,8(sp)
8000b4f0:	01010113          	addi	sp,sp,16
8000b4f4:	00008067          	ret

8000b4f8 <wait>:
8000b4f8:	fd010113          	addi	sp,sp,-48
8000b4fc:	02112623          	sw	ra,44(sp)
8000b500:	02812423          	sw	s0,40(sp)
8000b504:	03010413          	addi	s0,sp,48
8000b508:	fca42e23          	sw	a0,-36(s0)
8000b50c:	d81f40ef          	jal	8000028c <disable>
8000b510:	fea42623          	sw	a0,-20(s0)
8000b514:	fdc42783          	lw	a5,-36(s0)
8000b518:	0007c863          	bltz	a5,8000b528 <wait+0x30>
8000b51c:	fdc42703          	lw	a4,-36(s0)
8000b520:	00900793          	li	a5,9
8000b524:	00e7da63          	bge	a5,a4,8000b538 <wait+0x40>
8000b528:	fec42503          	lw	a0,-20(s0)
8000b52c:	d69f40ef          	jal	80000294 <restore>
8000b530:	fff00793          	li	a5,-1
8000b534:	0c80006f          	j	8000b5fc <wait+0x104>
8000b538:	fdc42703          	lw	a4,-36(s0)
8000b53c:	00070793          	mv	a5,a4
8000b540:	00179793          	slli	a5,a5,0x1
8000b544:	00e787b3          	add	a5,a5,a4
8000b548:	00279793          	slli	a5,a5,0x2
8000b54c:	80017737          	lui	a4,0x80017
8000b550:	e2470713          	addi	a4,a4,-476 # 80016e24 <semtab>
8000b554:	00e787b3          	add	a5,a5,a4
8000b558:	fef42423          	sw	a5,-24(s0)
8000b55c:	fe842783          	lw	a5,-24(s0)
8000b560:	0007c783          	lbu	a5,0(a5)
8000b564:	00079a63          	bnez	a5,8000b578 <wait+0x80>
8000b568:	fec42503          	lw	a0,-20(s0)
8000b56c:	d29f40ef          	jal	80000294 <restore>
8000b570:	fff00793          	li	a5,-1
8000b574:	0880006f          	j	8000b5fc <wait+0x104>
8000b578:	fe842783          	lw	a5,-24(s0)
8000b57c:	0047a783          	lw	a5,4(a5)
8000b580:	fff78713          	addi	a4,a5,-1
8000b584:	fe842783          	lw	a5,-24(s0)
8000b588:	00e7a223          	sw	a4,4(a5)
8000b58c:	fe842783          	lw	a5,-24(s0)
8000b590:	0047a783          	lw	a5,4(a5)
8000b594:	0407de63          	bgez	a5,8000b5f0 <wait+0xf8>
8000b598:	8001d7b7          	lui	a5,0x8001d
8000b59c:	4f07a703          	lw	a4,1264(a5) # 8001d4f0 <currpid>
8000b5a0:	06400793          	li	a5,100
8000b5a4:	02f70733          	mul	a4,a4,a5
8000b5a8:	800177b7          	lui	a5,0x80017
8000b5ac:	a3c78793          	addi	a5,a5,-1476 # 80016a3c <proctab>
8000b5b0:	00f707b3          	add	a5,a4,a5
8000b5b4:	fef42223          	sw	a5,-28(s0)
8000b5b8:	fe442783          	lw	a5,-28(s0)
8000b5bc:	00600713          	li	a4,6
8000b5c0:	00e79023          	sh	a4,0(a5)
8000b5c4:	fe442783          	lw	a5,-28(s0)
8000b5c8:	fdc42703          	lw	a4,-36(s0)
8000b5cc:	02e7a223          	sw	a4,36(a5)
8000b5d0:	8001d7b7          	lui	a5,0x8001d
8000b5d4:	4f07a703          	lw	a4,1264(a5) # 8001d4f0 <currpid>
8000b5d8:	fe842783          	lw	a5,-24(s0)
8000b5dc:	00879783          	lh	a5,8(a5)
8000b5e0:	00078593          	mv	a1,a5
8000b5e4:	00070513          	mv	a0,a4
8000b5e8:	069010ef          	jal	8000ce50 <enqueue>
8000b5ec:	4ac000ef          	jal	8000ba98 <resched>
8000b5f0:	fec42503          	lw	a0,-20(s0)
8000b5f4:	ca1f40ef          	jal	80000294 <restore>
8000b5f8:	00100793          	li	a5,1
8000b5fc:	00078513          	mv	a0,a5
8000b600:	02c12083          	lw	ra,44(sp)
8000b604:	02812403          	lw	s0,40(sp)
8000b608:	03010113          	addi	sp,sp,48
8000b60c:	00008067          	ret

8000b610 <userret>:
8000b610:	ff010113          	addi	sp,sp,-16
8000b614:	00112623          	sw	ra,12(sp)
8000b618:	00812423          	sw	s0,8(sp)
8000b61c:	01010413          	addi	s0,sp,16
8000b620:	a21ff0ef          	jal	8000b040 <getpid>
8000b624:	00050793          	mv	a5,a0
8000b628:	00078513          	mv	a0,a5
8000b62c:	b95ff0ef          	jal	8000b1c0 <kill>
8000b630:	00000013          	nop
8000b634:	00c12083          	lw	ra,12(sp)
8000b638:	00812403          	lw	s0,8(sp)
8000b63c:	01010113          	addi	sp,sp,16
8000b640:	00008067          	ret

8000b644 <unsleep>:
8000b644:	fd010113          	addi	sp,sp,-48
8000b648:	02112623          	sw	ra,44(sp)
8000b64c:	02812423          	sw	s0,40(sp)
8000b650:	03010413          	addi	s0,sp,48
8000b654:	fca42e23          	sw	a0,-36(s0)
8000b658:	c35f40ef          	jal	8000028c <disable>
8000b65c:	fea42623          	sw	a0,-20(s0)
8000b660:	fdc42783          	lw	a5,-36(s0)
8000b664:	0207c863          	bltz	a5,8000b694 <unsleep+0x50>
8000b668:	fdc42703          	lw	a4,-36(s0)
8000b66c:	00900793          	li	a5,9
8000b670:	02e7c263          	blt	a5,a4,8000b694 <unsleep+0x50>
8000b674:	800177b7          	lui	a5,0x80017
8000b678:	a3c78713          	addi	a4,a5,-1476 # 80016a3c <proctab>
8000b67c:	fdc42683          	lw	a3,-36(s0)
8000b680:	06400793          	li	a5,100
8000b684:	02f687b3          	mul	a5,a3,a5
8000b688:	00f707b3          	add	a5,a4,a5
8000b68c:	0007d783          	lhu	a5,0(a5)
8000b690:	00079a63          	bnez	a5,8000b6a4 <unsleep+0x60>
8000b694:	fec42503          	lw	a0,-20(s0)
8000b698:	bfdf40ef          	jal	80000294 <restore>
8000b69c:	fff00793          	li	a5,-1
8000b6a0:	0d80006f          	j	8000b778 <unsleep+0x134>
8000b6a4:	fdc42703          	lw	a4,-36(s0)
8000b6a8:	06400793          	li	a5,100
8000b6ac:	02f70733          	mul	a4,a4,a5
8000b6b0:	800177b7          	lui	a5,0x80017
8000b6b4:	a3c78793          	addi	a5,a5,-1476 # 80016a3c <proctab>
8000b6b8:	00f707b3          	add	a5,a4,a5
8000b6bc:	fef42423          	sw	a5,-24(s0)
8000b6c0:	fe842783          	lw	a5,-24(s0)
8000b6c4:	0007d703          	lhu	a4,0(a5)
8000b6c8:	00400793          	li	a5,4
8000b6cc:	02f70263          	beq	a4,a5,8000b6f0 <unsleep+0xac>
8000b6d0:	fe842783          	lw	a5,-24(s0)
8000b6d4:	0007d703          	lhu	a4,0(a5)
8000b6d8:	00700793          	li	a5,7
8000b6dc:	00f70a63          	beq	a4,a5,8000b6f0 <unsleep+0xac>
8000b6e0:	fec42503          	lw	a0,-20(s0)
8000b6e4:	bb1f40ef          	jal	80000294 <restore>
8000b6e8:	fff00793          	li	a5,-1
8000b6ec:	08c0006f          	j	8000b778 <unsleep+0x134>
8000b6f0:	800177b7          	lui	a5,0x80017
8000b6f4:	e9c78713          	addi	a4,a5,-356 # 80016e9c <queuetab>
8000b6f8:	fdc42783          	lw	a5,-36(s0)
8000b6fc:	00379793          	slli	a5,a5,0x3
8000b700:	00f707b3          	add	a5,a4,a5
8000b704:	00479783          	lh	a5,4(a5)
8000b708:	fef42223          	sw	a5,-28(s0)
8000b70c:	fe442703          	lw	a4,-28(s0)
8000b710:	00900793          	li	a5,9
8000b714:	04e7c863          	blt	a5,a4,8000b764 <unsleep+0x120>
8000b718:	800177b7          	lui	a5,0x80017
8000b71c:	e9c78713          	addi	a4,a5,-356 # 80016e9c <queuetab>
8000b720:	fe442783          	lw	a5,-28(s0)
8000b724:	00379793          	slli	a5,a5,0x3
8000b728:	00f707b3          	add	a5,a4,a5
8000b72c:	0007a703          	lw	a4,0(a5)
8000b730:	800177b7          	lui	a5,0x80017
8000b734:	e9c78693          	addi	a3,a5,-356 # 80016e9c <queuetab>
8000b738:	fdc42783          	lw	a5,-36(s0)
8000b73c:	00379793          	slli	a5,a5,0x3
8000b740:	00f687b3          	add	a5,a3,a5
8000b744:	0007a783          	lw	a5,0(a5)
8000b748:	00f70733          	add	a4,a4,a5
8000b74c:	800177b7          	lui	a5,0x80017
8000b750:	e9c78693          	addi	a3,a5,-356 # 80016e9c <queuetab>
8000b754:	fe442783          	lw	a5,-28(s0)
8000b758:	00379793          	slli	a5,a5,0x3
8000b75c:	00f687b3          	add	a5,a3,a5
8000b760:	00e7a023          	sw	a4,0(a5)
8000b764:	fdc42503          	lw	a0,-36(s0)
8000b768:	1dd010ef          	jal	8000d144 <getitem>
8000b76c:	fec42503          	lw	a0,-20(s0)
8000b770:	b25f40ef          	jal	80000294 <restore>
8000b774:	00100793          	li	a5,1
8000b778:	00078513          	mv	a0,a5
8000b77c:	02c12083          	lw	ra,44(sp)
8000b780:	02812403          	lw	s0,40(sp)
8000b784:	03010113          	addi	sp,sp,48
8000b788:	00008067          	ret

8000b78c <suspend>:
8000b78c:	fd010113          	addi	sp,sp,-48
8000b790:	02112623          	sw	ra,44(sp)
8000b794:	02812423          	sw	s0,40(sp)
8000b798:	03010413          	addi	s0,sp,48
8000b79c:	fca42e23          	sw	a0,-36(s0)
8000b7a0:	aedf40ef          	jal	8000028c <disable>
8000b7a4:	fea42623          	sw	a0,-20(s0)
8000b7a8:	fdc42783          	lw	a5,-36(s0)
8000b7ac:	0207cc63          	bltz	a5,8000b7e4 <suspend+0x58>
8000b7b0:	fdc42703          	lw	a4,-36(s0)
8000b7b4:	00900793          	li	a5,9
8000b7b8:	02e7c663          	blt	a5,a4,8000b7e4 <suspend+0x58>
8000b7bc:	800177b7          	lui	a5,0x80017
8000b7c0:	a3c78713          	addi	a4,a5,-1476 # 80016a3c <proctab>
8000b7c4:	fdc42683          	lw	a3,-36(s0)
8000b7c8:	06400793          	li	a5,100
8000b7cc:	02f687b3          	mul	a5,a3,a5
8000b7d0:	00f707b3          	add	a5,a4,a5
8000b7d4:	0007d783          	lhu	a5,0(a5)
8000b7d8:	00078663          	beqz	a5,8000b7e4 <suspend+0x58>
8000b7dc:	fdc42783          	lw	a5,-36(s0)
8000b7e0:	00079a63          	bnez	a5,8000b7f4 <suspend+0x68>
8000b7e4:	fec42503          	lw	a0,-20(s0)
8000b7e8:	aadf40ef          	jal	80000294 <restore>
8000b7ec:	fff00793          	li	a5,-1
8000b7f0:	0a00006f          	j	8000b890 <suspend+0x104>
8000b7f4:	fdc42703          	lw	a4,-36(s0)
8000b7f8:	06400793          	li	a5,100
8000b7fc:	02f70733          	mul	a4,a4,a5
8000b800:	800177b7          	lui	a5,0x80017
8000b804:	a3c78793          	addi	a5,a5,-1476 # 80016a3c <proctab>
8000b808:	00f707b3          	add	a5,a4,a5
8000b80c:	fef42423          	sw	a5,-24(s0)
8000b810:	fe842783          	lw	a5,-24(s0)
8000b814:	0007d703          	lhu	a4,0(a5)
8000b818:	00100793          	li	a5,1
8000b81c:	02f70263          	beq	a4,a5,8000b840 <suspend+0xb4>
8000b820:	fe842783          	lw	a5,-24(s0)
8000b824:	0007d703          	lhu	a4,0(a5)
8000b828:	00200793          	li	a5,2
8000b82c:	00f70a63          	beq	a4,a5,8000b840 <suspend+0xb4>
8000b830:	fec42503          	lw	a0,-20(s0)
8000b834:	a61f40ef          	jal	80000294 <restore>
8000b838:	fff00793          	li	a5,-1
8000b83c:	0540006f          	j	8000b890 <suspend+0x104>
8000b840:	fe842783          	lw	a5,-24(s0)
8000b844:	0007d703          	lhu	a4,0(a5)
8000b848:	00200793          	li	a5,2
8000b84c:	00f71e63          	bne	a4,a5,8000b868 <suspend+0xdc>
8000b850:	fdc42503          	lw	a0,-36(s0)
8000b854:	0f1010ef          	jal	8000d144 <getitem>
8000b858:	fe842783          	lw	a5,-24(s0)
8000b85c:	00500713          	li	a4,5
8000b860:	00e79023          	sh	a4,0(a5)
8000b864:	0140006f          	j	8000b878 <suspend+0xec>
8000b868:	fe842783          	lw	a5,-24(s0)
8000b86c:	00500713          	li	a4,5
8000b870:	00e79023          	sh	a4,0(a5)
8000b874:	224000ef          	jal	8000ba98 <resched>
8000b878:	fe842783          	lw	a5,-24(s0)
8000b87c:	0027d783          	lhu	a5,2(a5)
8000b880:	fef41323          	sh	a5,-26(s0)
8000b884:	fec42503          	lw	a0,-20(s0)
8000b888:	a0df40ef          	jal	80000294 <restore>
8000b88c:	fe641783          	lh	a5,-26(s0)
8000b890:	00078513          	mv	a0,a5
8000b894:	02c12083          	lw	ra,44(sp)
8000b898:	02812403          	lw	s0,40(sp)
8000b89c:	03010113          	addi	sp,sp,48
8000b8a0:	00008067          	ret

8000b8a4 <sleep>:
8000b8a4:	fe010113          	addi	sp,sp,-32
8000b8a8:	00112e23          	sw	ra,28(sp)
8000b8ac:	00812c23          	sw	s0,24(sp)
8000b8b0:	02010413          	addi	s0,sp,32
8000b8b4:	fea42623          	sw	a0,-20(s0)
8000b8b8:	fec42783          	lw	a5,-20(s0)
8000b8bc:	0007ca63          	bltz	a5,8000b8d0 <sleep+0x2c>
8000b8c0:	fec42703          	lw	a4,-20(s0)
8000b8c4:	0020c7b7          	lui	a5,0x20c
8000b8c8:	49b78793          	addi	a5,a5,1179 # 20c49b <_start-0x7fdf3b65>
8000b8cc:	00e7d663          	bge	a5,a4,8000b8d8 <sleep+0x34>
8000b8d0:	fff00793          	li	a5,-1
8000b8d4:	01c0006f          	j	8000b8f0 <sleep+0x4c>
8000b8d8:	fec42703          	lw	a4,-20(s0)
8000b8dc:	3e800793          	li	a5,1000
8000b8e0:	02f707b3          	mul	a5,a4,a5
8000b8e4:	00078513          	mv	a0,a5
8000b8e8:	01c000ef          	jal	8000b904 <sleepms>
8000b8ec:	00100793          	li	a5,1
8000b8f0:	00078513          	mv	a0,a5
8000b8f4:	01c12083          	lw	ra,28(sp)
8000b8f8:	01812403          	lw	s0,24(sp)
8000b8fc:	02010113          	addi	sp,sp,32
8000b900:	00008067          	ret

8000b904 <sleepms>:
8000b904:	fd010113          	addi	sp,sp,-48
8000b908:	02112623          	sw	ra,44(sp)
8000b90c:	02812423          	sw	s0,40(sp)
8000b910:	03010413          	addi	s0,sp,48
8000b914:	fca42e23          	sw	a0,-36(s0)
8000b918:	fdc42783          	lw	a5,-36(s0)
8000b91c:	0007d663          	bgez	a5,8000b928 <sleepms+0x24>
8000b920:	fff00793          	li	a5,-1
8000b924:	0900006f          	j	8000b9b4 <sleepms+0xb0>
8000b928:	fdc42783          	lw	a5,-36(s0)
8000b92c:	00079863          	bnez	a5,8000b93c <sleepms+0x38>
8000b930:	ae1ff0ef          	jal	8000b410 <yield>
8000b934:	00100793          	li	a5,1
8000b938:	07c0006f          	j	8000b9b4 <sleepms+0xb0>
8000b93c:	951f40ef          	jal	8000028c <disable>
8000b940:	fea42623          	sw	a0,-20(s0)
8000b944:	8001d7b7          	lui	a5,0x8001d
8000b948:	4f07a703          	lw	a4,1264(a5) # 8001d4f0 <currpid>
8000b94c:	8001d7b7          	lui	a5,0x8001d
8000b950:	4d079783          	lh	a5,1232(a5) # 8001d4d0 <sleepq>
8000b954:	fdc42603          	lw	a2,-36(s0)
8000b958:	00078593          	mv	a1,a5
8000b95c:	00070513          	mv	a0,a4
8000b960:	221010ef          	jal	8000d380 <insertd>
8000b964:	00050713          	mv	a4,a0
8000b968:	fff00793          	li	a5,-1
8000b96c:	00f71a63          	bne	a4,a5,8000b980 <sleepms+0x7c>
8000b970:	fec42503          	lw	a0,-20(s0)
8000b974:	921f40ef          	jal	80000294 <restore>
8000b978:	fff00793          	li	a5,-1
8000b97c:	0380006f          	j	8000b9b4 <sleepms+0xb0>
8000b980:	8001d7b7          	lui	a5,0x8001d
8000b984:	4f07a683          	lw	a3,1264(a5) # 8001d4f0 <currpid>
8000b988:	800177b7          	lui	a5,0x80017
8000b98c:	a3c78713          	addi	a4,a5,-1476 # 80016a3c <proctab>
8000b990:	06400793          	li	a5,100
8000b994:	02f687b3          	mul	a5,a3,a5
8000b998:	00f707b3          	add	a5,a4,a5
8000b99c:	00400713          	li	a4,4
8000b9a0:	00e79023          	sh	a4,0(a5)
8000b9a4:	0f4000ef          	jal	8000ba98 <resched>
8000b9a8:	fec42503          	lw	a0,-20(s0)
8000b9ac:	8e9f40ef          	jal	80000294 <restore>
8000b9b0:	00100793          	li	a5,1
8000b9b4:	00078513          	mv	a0,a5
8000b9b8:	02c12083          	lw	ra,44(sp)
8000b9bc:	02812403          	lw	s0,40(sp)
8000b9c0:	03010113          	addi	sp,sp,48
8000b9c4:	00008067          	ret

8000b9c8 <resume>:
8000b9c8:	fd010113          	addi	sp,sp,-48
8000b9cc:	02112623          	sw	ra,44(sp)
8000b9d0:	02812423          	sw	s0,40(sp)
8000b9d4:	03010413          	addi	s0,sp,48
8000b9d8:	fca42e23          	sw	a0,-36(s0)
8000b9dc:	8b1f40ef          	jal	8000028c <disable>
8000b9e0:	fea42623          	sw	a0,-20(s0)
8000b9e4:	fdc42783          	lw	a5,-36(s0)
8000b9e8:	0207c863          	bltz	a5,8000ba18 <resume+0x50>
8000b9ec:	fdc42703          	lw	a4,-36(s0)
8000b9f0:	00900793          	li	a5,9
8000b9f4:	02e7c263          	blt	a5,a4,8000ba18 <resume+0x50>
8000b9f8:	800177b7          	lui	a5,0x80017
8000b9fc:	a3c78713          	addi	a4,a5,-1476 # 80016a3c <proctab>
8000ba00:	fdc42683          	lw	a3,-36(s0)
8000ba04:	06400793          	li	a5,100
8000ba08:	02f687b3          	mul	a5,a3,a5
8000ba0c:	00f707b3          	add	a5,a4,a5
8000ba10:	0007d783          	lhu	a5,0(a5)
8000ba14:	00079a63          	bnez	a5,8000ba28 <resume+0x60>
8000ba18:	fec42503          	lw	a0,-20(s0)
8000ba1c:	879f40ef          	jal	80000294 <restore>
8000ba20:	fff00793          	li	a5,-1
8000ba24:	0600006f          	j	8000ba84 <resume+0xbc>
8000ba28:	fdc42703          	lw	a4,-36(s0)
8000ba2c:	06400793          	li	a5,100
8000ba30:	02f70733          	mul	a4,a4,a5
8000ba34:	800177b7          	lui	a5,0x80017
8000ba38:	a3c78793          	addi	a5,a5,-1476 # 80016a3c <proctab>
8000ba3c:	00f707b3          	add	a5,a4,a5
8000ba40:	fef42423          	sw	a5,-24(s0)
8000ba44:	fe842783          	lw	a5,-24(s0)
8000ba48:	0007d703          	lhu	a4,0(a5)
8000ba4c:	00500793          	li	a5,5
8000ba50:	00f70a63          	beq	a4,a5,8000ba64 <resume+0x9c>
8000ba54:	fec42503          	lw	a0,-20(s0)
8000ba58:	83df40ef          	jal	80000294 <restore>
8000ba5c:	fff00793          	li	a5,-1
8000ba60:	0240006f          	j	8000ba84 <resume+0xbc>
8000ba64:	fe842783          	lw	a5,-24(s0)
8000ba68:	0027d783          	lhu	a5,2(a5)
8000ba6c:	fef41323          	sh	a5,-26(s0)
8000ba70:	fec42503          	lw	a0,-20(s0)
8000ba74:	821f40ef          	jal	80000294 <restore>
8000ba78:	fdc42503          	lw	a0,-36(s0)
8000ba7c:	29c000ef          	jal	8000bd18 <ready>
8000ba80:	fe641783          	lh	a5,-26(s0)
8000ba84:	00078513          	mv	a0,a5
8000ba88:	02c12083          	lw	ra,44(sp)
8000ba8c:	02812403          	lw	s0,40(sp)
8000ba90:	03010113          	addi	sp,sp,48
8000ba94:	00008067          	ret

8000ba98 <resched>:
8000ba98:	fe010113          	addi	sp,sp,-32
8000ba9c:	00112e23          	sw	ra,28(sp)
8000baa0:	00812c23          	sw	s0,24(sp)
8000baa4:	02010413          	addi	s0,sp,32
8000baa8:	8001d7b7          	lui	a5,0x8001d
8000baac:	4d878793          	addi	a5,a5,1240 # 8001d4d8 <Defer>
8000bab0:	0007a783          	lw	a5,0(a5)
8000bab4:	00f05c63          	blez	a5,8000bacc <resched+0x34>
8000bab8:	8001d7b7          	lui	a5,0x8001d
8000babc:	4d878793          	addi	a5,a5,1240 # 8001d4d8 <Defer>
8000bac0:	00100713          	li	a4,1
8000bac4:	00e78223          	sb	a4,4(a5)
8000bac8:	1640006f          	j	8000bc2c <resched+0x194>
8000bacc:	8001d7b7          	lui	a5,0x8001d
8000bad0:	4f07a703          	lw	a4,1264(a5) # 8001d4f0 <currpid>
8000bad4:	06400793          	li	a5,100
8000bad8:	02f70733          	mul	a4,a4,a5
8000badc:	800177b7          	lui	a5,0x80017
8000bae0:	a3c78793          	addi	a5,a5,-1476 # 80016a3c <proctab>
8000bae4:	00f707b3          	add	a5,a4,a5
8000bae8:	fef42623          	sw	a5,-20(s0)
8000baec:	fec42783          	lw	a5,-20(s0)
8000baf0:	0007d703          	lhu	a4,0(a5)
8000baf4:	00100793          	li	a5,1
8000baf8:	0af71463          	bne	a4,a5,8000bba0 <resched+0x108>
8000bafc:	8001d7b7          	lui	a5,0x8001d
8000bb00:	4e079783          	lh	a5,1248(a5) # 8001d4e0 <readylist>
8000bb04:	00078693          	mv	a3,a5
8000bb08:	800177b7          	lui	a5,0x80017
8000bb0c:	e9c78713          	addi	a4,a5,-356 # 80016e9c <queuetab>
8000bb10:	00369793          	slli	a5,a3,0x3
8000bb14:	00f707b3          	add	a5,a4,a5
8000bb18:	00479703          	lh	a4,4(a5)
8000bb1c:	00900793          	li	a5,9
8000bb20:	04e7c663          	blt	a5,a4,8000bb6c <resched+0xd4>
8000bb24:	fec42783          	lw	a5,-20(s0)
8000bb28:	00279783          	lh	a5,2(a5)
8000bb2c:	00078693          	mv	a3,a5
8000bb30:	8001d7b7          	lui	a5,0x8001d
8000bb34:	4e079783          	lh	a5,1248(a5) # 8001d4e0 <readylist>
8000bb38:	00078613          	mv	a2,a5
8000bb3c:	800177b7          	lui	a5,0x80017
8000bb40:	e9c78713          	addi	a4,a5,-356 # 80016e9c <queuetab>
8000bb44:	00361793          	slli	a5,a2,0x3
8000bb48:	00f707b3          	add	a5,a4,a5
8000bb4c:	00479783          	lh	a5,4(a5)
8000bb50:	00078613          	mv	a2,a5
8000bb54:	800177b7          	lui	a5,0x80017
8000bb58:	e9c78713          	addi	a4,a5,-356 # 80016e9c <queuetab>
8000bb5c:	00361793          	slli	a5,a2,0x3
8000bb60:	00f707b3          	add	a5,a4,a5
8000bb64:	0007a783          	lw	a5,0(a5)
8000bb68:	0cd7c063          	blt	a5,a3,8000bc28 <resched+0x190>
8000bb6c:	fec42783          	lw	a5,-20(s0)
8000bb70:	00200713          	li	a4,2
8000bb74:	00e79023          	sh	a4,0(a5)
8000bb78:	8001d7b7          	lui	a5,0x8001d
8000bb7c:	4f07a703          	lw	a4,1264(a5) # 8001d4f0 <currpid>
8000bb80:	8001d7b7          	lui	a5,0x8001d
8000bb84:	4e079683          	lh	a3,1248(a5) # 8001d4e0 <readylist>
8000bb88:	fec42783          	lw	a5,-20(s0)
8000bb8c:	00279783          	lh	a5,2(a5)
8000bb90:	00078613          	mv	a2,a5
8000bb94:	00068593          	mv	a1,a3
8000bb98:	00070513          	mv	a0,a4
8000bb9c:	64c010ef          	jal	8000d1e8 <insert>
8000bba0:	8001d7b7          	lui	a5,0x8001d
8000bba4:	4e079783          	lh	a5,1248(a5) # 8001d4e0 <readylist>
8000bba8:	00078513          	mv	a0,a5
8000bbac:	3d4010ef          	jal	8000cf80 <dequeue>
8000bbb0:	00050713          	mv	a4,a0
8000bbb4:	8001d7b7          	lui	a5,0x8001d
8000bbb8:	4ee7a823          	sw	a4,1264(a5) # 8001d4f0 <currpid>
8000bbbc:	8001d7b7          	lui	a5,0x8001d
8000bbc0:	4f07a703          	lw	a4,1264(a5) # 8001d4f0 <currpid>
8000bbc4:	06400793          	li	a5,100
8000bbc8:	02f70733          	mul	a4,a4,a5
8000bbcc:	800177b7          	lui	a5,0x80017
8000bbd0:	a3c78793          	addi	a5,a5,-1476 # 80016a3c <proctab>
8000bbd4:	00f707b3          	add	a5,a4,a5
8000bbd8:	fef42423          	sw	a5,-24(s0)
8000bbdc:	fe842783          	lw	a5,-24(s0)
8000bbe0:	00100713          	li	a4,1
8000bbe4:	00e79023          	sh	a4,0(a5)
8000bbe8:	8001d7b7          	lui	a5,0x8001d
8000bbec:	00a00713          	li	a4,10
8000bbf0:	4ce7aa23          	sw	a4,1236(a5) # 8001d4d4 <preempt>
8000bbf4:	8001d7b7          	lui	a5,0x8001d
8000bbf8:	4f07a783          	lw	a5,1264(a5) # 8001d4f0 <currpid>
8000bbfc:	fef403a3          	sb	a5,-25(s0)
8000bc00:	fec42783          	lw	a5,-20(s0)
8000bc04:	00478713          	addi	a4,a5,4
8000bc08:	fe842783          	lw	a5,-24(s0)
8000bc0c:	00478793          	addi	a5,a5,4
8000bc10:	fe744683          	lbu	a3,-25(s0)
8000bc14:	00068613          	mv	a2,a3
8000bc18:	00078593          	mv	a1,a5
8000bc1c:	00070513          	mv	a0,a4
8000bc20:	d7cf40ef          	jal	8000019c <ctxsw>
8000bc24:	0080006f          	j	8000bc2c <resched+0x194>
8000bc28:	00000013          	nop
8000bc2c:	01c12083          	lw	ra,28(sp)
8000bc30:	01812403          	lw	s0,24(sp)
8000bc34:	02010113          	addi	sp,sp,32
8000bc38:	00008067          	ret

8000bc3c <resched_cntl>:
8000bc3c:	fe010113          	addi	sp,sp,-32
8000bc40:	00112e23          	sw	ra,28(sp)
8000bc44:	00812c23          	sw	s0,24(sp)
8000bc48:	02010413          	addi	s0,sp,32
8000bc4c:	fea42623          	sw	a0,-20(s0)
8000bc50:	fec42703          	lw	a4,-20(s0)
8000bc54:	00100793          	li	a5,1
8000bc58:	00f70a63          	beq	a4,a5,8000bc6c <resched_cntl+0x30>
8000bc5c:	fec42703          	lw	a4,-20(s0)
8000bc60:	00200793          	li	a5,2
8000bc64:	02f70e63          	beq	a4,a5,8000bca0 <resched_cntl+0x64>
8000bc68:	0980006f          	j	8000bd00 <resched_cntl+0xc4>
8000bc6c:	8001d7b7          	lui	a5,0x8001d
8000bc70:	4d878793          	addi	a5,a5,1240 # 8001d4d8 <Defer>
8000bc74:	0007a783          	lw	a5,0(a5)
8000bc78:	00178693          	addi	a3,a5,1
8000bc7c:	8001d737          	lui	a4,0x8001d
8000bc80:	4d870713          	addi	a4,a4,1240 # 8001d4d8 <Defer>
8000bc84:	00d72023          	sw	a3,0(a4)
8000bc88:	00079863          	bnez	a5,8000bc98 <resched_cntl+0x5c>
8000bc8c:	8001d7b7          	lui	a5,0x8001d
8000bc90:	4d878793          	addi	a5,a5,1240 # 8001d4d8 <Defer>
8000bc94:	00078223          	sb	zero,4(a5)
8000bc98:	00100793          	li	a5,1
8000bc9c:	0680006f          	j	8000bd04 <resched_cntl+0xc8>
8000bca0:	8001d7b7          	lui	a5,0x8001d
8000bca4:	4d878793          	addi	a5,a5,1240 # 8001d4d8 <Defer>
8000bca8:	0007a783          	lw	a5,0(a5)
8000bcac:	00f04663          	bgtz	a5,8000bcb8 <resched_cntl+0x7c>
8000bcb0:	fff00793          	li	a5,-1
8000bcb4:	0500006f          	j	8000bd04 <resched_cntl+0xc8>
8000bcb8:	8001d7b7          	lui	a5,0x8001d
8000bcbc:	4d878793          	addi	a5,a5,1240 # 8001d4d8 <Defer>
8000bcc0:	0007a783          	lw	a5,0(a5)
8000bcc4:	fff78713          	addi	a4,a5,-1
8000bcc8:	8001d7b7          	lui	a5,0x8001d
8000bccc:	4d878793          	addi	a5,a5,1240 # 8001d4d8 <Defer>
8000bcd0:	00e7a023          	sw	a4,0(a5)
8000bcd4:	8001d7b7          	lui	a5,0x8001d
8000bcd8:	4d878793          	addi	a5,a5,1240 # 8001d4d8 <Defer>
8000bcdc:	0007a783          	lw	a5,0(a5)
8000bce0:	00079c63          	bnez	a5,8000bcf8 <resched_cntl+0xbc>
8000bce4:	8001d7b7          	lui	a5,0x8001d
8000bce8:	4d878793          	addi	a5,a5,1240 # 8001d4d8 <Defer>
8000bcec:	0047c783          	lbu	a5,4(a5)
8000bcf0:	00078463          	beqz	a5,8000bcf8 <resched_cntl+0xbc>
8000bcf4:	da5ff0ef          	jal	8000ba98 <resched>
8000bcf8:	00100793          	li	a5,1
8000bcfc:	0080006f          	j	8000bd04 <resched_cntl+0xc8>
8000bd00:	fff00793          	li	a5,-1
8000bd04:	00078513          	mv	a0,a5
8000bd08:	01c12083          	lw	ra,28(sp)
8000bd0c:	01812403          	lw	s0,24(sp)
8000bd10:	02010113          	addi	sp,sp,32
8000bd14:	00008067          	ret

8000bd18 <ready>:
8000bd18:	fe010113          	addi	sp,sp,-32
8000bd1c:	00112e23          	sw	ra,28(sp)
8000bd20:	00812c23          	sw	s0,24(sp)
8000bd24:	02010413          	addi	s0,sp,32
8000bd28:	fea42623          	sw	a0,-20(s0)
8000bd2c:	fec42783          	lw	a5,-20(s0)
8000bd30:	0207c863          	bltz	a5,8000bd60 <ready+0x48>
8000bd34:	fec42703          	lw	a4,-20(s0)
8000bd38:	00900793          	li	a5,9
8000bd3c:	02e7c263          	blt	a5,a4,8000bd60 <ready+0x48>
8000bd40:	800177b7          	lui	a5,0x80017
8000bd44:	a3c78713          	addi	a4,a5,-1476 # 80016a3c <proctab>
8000bd48:	fec42683          	lw	a3,-20(s0)
8000bd4c:	06400793          	li	a5,100
8000bd50:	02f687b3          	mul	a5,a3,a5
8000bd54:	00f707b3          	add	a5,a4,a5
8000bd58:	0007d783          	lhu	a5,0(a5)
8000bd5c:	00079663          	bnez	a5,8000bd68 <ready+0x50>
8000bd60:	fff00793          	li	a5,-1
8000bd64:	0480006f          	j	8000bdac <ready+0x94>
8000bd68:	fec42703          	lw	a4,-20(s0)
8000bd6c:	06400793          	li	a5,100
8000bd70:	02f70733          	mul	a4,a4,a5
8000bd74:	800177b7          	lui	a5,0x80017
8000bd78:	a3c78793          	addi	a5,a5,-1476 # 80016a3c <proctab>
8000bd7c:	00f700b3          	add	ra,a4,a5
8000bd80:	00200793          	li	a5,2
8000bd84:	00f09023          	sh	a5,0(ra)
8000bd88:	8001d7b7          	lui	a5,0x8001d
8000bd8c:	4e079783          	lh	a5,1248(a5) # 8001d4e0 <readylist>
8000bd90:	00209703          	lh	a4,2(ra)
8000bd94:	00070613          	mv	a2,a4
8000bd98:	00078593          	mv	a1,a5
8000bd9c:	fec42503          	lw	a0,-20(s0)
8000bda0:	448010ef          	jal	8000d1e8 <insert>
8000bda4:	cf5ff0ef          	jal	8000ba98 <resched>
8000bda8:	00100793          	li	a5,1
8000bdac:	00078513          	mv	a0,a5
8000bdb0:	01c12083          	lw	ra,28(sp)
8000bdb4:	01812403          	lw	s0,24(sp)
8000bdb8:	02010113          	addi	sp,sp,32
8000bdbc:	00008067          	ret

8000bdc0 <exit>:
8000bdc0:	fe010113          	addi	sp,sp,-32
8000bdc4:	00112e23          	sw	ra,28(sp)
8000bdc8:	00812c23          	sw	s0,24(sp)
8000bdcc:	02010413          	addi	s0,sp,32
8000bdd0:	fea42623          	sw	a0,-20(s0)
8000bdd4:	a6cff0ef          	jal	8000b040 <getpid>
8000bdd8:	00050793          	mv	a5,a0
8000bddc:	00078513          	mv	a0,a5
8000bde0:	be0ff0ef          	jal	8000b1c0 <kill>
8000bde4:	00000013          	nop
8000bde8:	01c12083          	lw	ra,28(sp)
8000bdec:	01812403          	lw	s0,24(sp)
8000bdf0:	02010113          	addi	sp,sp,32
8000bdf4:	00008067          	ret

8000bdf8 <context_irq_enable>:
8000bdf8:	fe010113          	addi	sp,sp,-32
8000bdfc:	00812e23          	sw	s0,28(sp)
8000be00:	02010413          	addi	s0,sp,32
8000be04:	fea42623          	sw	a0,-20(s0)
8000be08:	feb42423          	sw	a1,-24(s0)
8000be0c:	fec42783          	lw	a5,-20(s0)
8000be10:	0047a783          	lw	a5,4(a5)
8000be14:	f7f7f713          	andi	a4,a5,-129
8000be18:	fec42783          	lw	a5,-20(s0)
8000be1c:	00e7a223          	sw	a4,4(a5)
8000be20:	fec42783          	lw	a5,-20(s0)
8000be24:	0047a703          	lw	a4,4(a5)
8000be28:	fe842783          	lw	a5,-24(s0)
8000be2c:	00078663          	beqz	a5,8000be38 <context_irq_enable+0x40>
8000be30:	08000793          	li	a5,128
8000be34:	0080006f          	j	8000be3c <context_irq_enable+0x44>
8000be38:	00000793          	li	a5,0
8000be3c:	00e7e733          	or	a4,a5,a4
8000be40:	fec42783          	lw	a5,-20(s0)
8000be44:	00e7a223          	sw	a4,4(a5)
8000be48:	00000013          	nop
8000be4c:	01c12403          	lw	s0,28(sp)
8000be50:	02010113          	addi	sp,sp,32
8000be54:	00008067          	ret

8000be58 <timer_diff>:
8000be58:	fe010113          	addi	sp,sp,-32
8000be5c:	00812e23          	sw	s0,28(sp)
8000be60:	02010413          	addi	s0,sp,32
8000be64:	fea42623          	sw	a0,-20(s0)
8000be68:	feb42423          	sw	a1,-24(s0)
8000be6c:	fec42703          	lw	a4,-20(s0)
8000be70:	fe842783          	lw	a5,-24(s0)
8000be74:	40f707b3          	sub	a5,a4,a5
8000be78:	00078513          	mv	a0,a5
8000be7c:	01c12403          	lw	s0,28(sp)
8000be80:	02010113          	addi	sp,sp,32
8000be84:	00008067          	ret

8000be88 <init>:
8000be88:	fd010113          	addi	sp,sp,-48
8000be8c:	02112623          	sw	ra,44(sp)
8000be90:	02812423          	sw	s0,40(sp)
8000be94:	03010413          	addi	s0,sp,48
8000be98:	fca42e23          	sw	a0,-36(s0)
8000be9c:	bf0f40ef          	jal	8000028c <disable>
8000bea0:	fea42623          	sw	a0,-20(s0)
8000bea4:	fdc42783          	lw	a5,-36(s0)
8000bea8:	01f7d793          	srli	a5,a5,0x1f
8000beac:	0ff7f713          	zext.b	a4,a5
8000beb0:	fdc42783          	lw	a5,-36(s0)
8000beb4:	0037a793          	slti	a5,a5,3
8000beb8:	0017b793          	seqz	a5,a5
8000bebc:	0ff7f793          	zext.b	a5,a5
8000bec0:	00f767b3          	or	a5,a4,a5
8000bec4:	0ff7f793          	zext.b	a5,a5
8000bec8:	00078a63          	beqz	a5,8000bedc <init+0x54>
8000becc:	fec42503          	lw	a0,-20(s0)
8000bed0:	bc4f40ef          	jal	80000294 <restore>
8000bed4:	fff00793          	li	a5,-1
8000bed8:	0480006f          	j	8000bf20 <init+0x98>
8000bedc:	fdc42703          	lw	a4,-36(s0)
8000bee0:	00070793          	mv	a5,a4
8000bee4:	00479793          	slli	a5,a5,0x4
8000bee8:	40e787b3          	sub	a5,a5,a4
8000beec:	00279793          	slli	a5,a5,0x2
8000bef0:	80017737          	lui	a4,0x80017
8000bef4:	8f070713          	addi	a4,a4,-1808 # 800168f0 <devtab>
8000bef8:	00e787b3          	add	a5,a5,a4
8000befc:	fef42423          	sw	a5,-24(s0)
8000bf00:	fe842783          	lw	a5,-24(s0)
8000bf04:	00c7a783          	lw	a5,12(a5)
8000bf08:	fe842503          	lw	a0,-24(s0)
8000bf0c:	000780e7          	jalr	a5
8000bf10:	fea42223          	sw	a0,-28(s0)
8000bf14:	fec42503          	lw	a0,-20(s0)
8000bf18:	b7cf40ef          	jal	80000294 <restore>
8000bf1c:	fe442783          	lw	a5,-28(s0)
8000bf20:	00078513          	mv	a0,a5
8000bf24:	02c12083          	lw	ra,44(sp)
8000bf28:	02812403          	lw	s0,40(sp)
8000bf2c:	03010113          	addi	sp,sp,48
8000bf30:	00008067          	ret

8000bf34 <close>:
8000bf34:	fd010113          	addi	sp,sp,-48
8000bf38:	02112623          	sw	ra,44(sp)
8000bf3c:	02812423          	sw	s0,40(sp)
8000bf40:	03010413          	addi	s0,sp,48
8000bf44:	fca42e23          	sw	a0,-36(s0)
8000bf48:	b44f40ef          	jal	8000028c <disable>
8000bf4c:	fea42623          	sw	a0,-20(s0)
8000bf50:	fdc42783          	lw	a5,-36(s0)
8000bf54:	01f7d793          	srli	a5,a5,0x1f
8000bf58:	0ff7f713          	zext.b	a4,a5
8000bf5c:	fdc42783          	lw	a5,-36(s0)
8000bf60:	0037a793          	slti	a5,a5,3
8000bf64:	0017b793          	seqz	a5,a5
8000bf68:	0ff7f793          	zext.b	a5,a5
8000bf6c:	00f767b3          	or	a5,a4,a5
8000bf70:	0ff7f793          	zext.b	a5,a5
8000bf74:	00078a63          	beqz	a5,8000bf88 <close+0x54>
8000bf78:	fec42503          	lw	a0,-20(s0)
8000bf7c:	b18f40ef          	jal	80000294 <restore>
8000bf80:	fff00793          	li	a5,-1
8000bf84:	0480006f          	j	8000bfcc <close+0x98>
8000bf88:	fdc42703          	lw	a4,-36(s0)
8000bf8c:	00070793          	mv	a5,a4
8000bf90:	00479793          	slli	a5,a5,0x4
8000bf94:	40e787b3          	sub	a5,a5,a4
8000bf98:	00279793          	slli	a5,a5,0x2
8000bf9c:	80017737          	lui	a4,0x80017
8000bfa0:	8f070713          	addi	a4,a4,-1808 # 800168f0 <devtab>
8000bfa4:	00e787b3          	add	a5,a5,a4
8000bfa8:	fef42423          	sw	a5,-24(s0)
8000bfac:	fe842783          	lw	a5,-24(s0)
8000bfb0:	0147a783          	lw	a5,20(a5)
8000bfb4:	fe842503          	lw	a0,-24(s0)
8000bfb8:	000780e7          	jalr	a5
8000bfbc:	fea42223          	sw	a0,-28(s0)
8000bfc0:	fec42503          	lw	a0,-20(s0)
8000bfc4:	ad0f40ef          	jal	80000294 <restore>
8000bfc8:	fe442783          	lw	a5,-28(s0)
8000bfcc:	00078513          	mv	a0,a5
8000bfd0:	02c12083          	lw	ra,44(sp)
8000bfd4:	02812403          	lw	s0,40(sp)
8000bfd8:	03010113          	addi	sp,sp,48
8000bfdc:	00008067          	ret

8000bfe0 <getc>:
8000bfe0:	fd010113          	addi	sp,sp,-48
8000bfe4:	02112623          	sw	ra,44(sp)
8000bfe8:	02812423          	sw	s0,40(sp)
8000bfec:	03010413          	addi	s0,sp,48
8000bff0:	fca42e23          	sw	a0,-36(s0)
8000bff4:	a98f40ef          	jal	8000028c <disable>
8000bff8:	fea42623          	sw	a0,-20(s0)
8000bffc:	fdc42783          	lw	a5,-36(s0)
8000c000:	01f7d793          	srli	a5,a5,0x1f
8000c004:	0ff7f713          	zext.b	a4,a5
8000c008:	fdc42783          	lw	a5,-36(s0)
8000c00c:	0037a793          	slti	a5,a5,3
8000c010:	0017b793          	seqz	a5,a5
8000c014:	0ff7f793          	zext.b	a5,a5
8000c018:	00f767b3          	or	a5,a4,a5
8000c01c:	0ff7f793          	zext.b	a5,a5
8000c020:	00078a63          	beqz	a5,8000c034 <getc+0x54>
8000c024:	fec42503          	lw	a0,-20(s0)
8000c028:	a6cf40ef          	jal	80000294 <restore>
8000c02c:	fff00793          	li	a5,-1
8000c030:	0480006f          	j	8000c078 <getc+0x98>
8000c034:	fdc42703          	lw	a4,-36(s0)
8000c038:	00070793          	mv	a5,a4
8000c03c:	00479793          	slli	a5,a5,0x4
8000c040:	40e787b3          	sub	a5,a5,a4
8000c044:	00279793          	slli	a5,a5,0x2
8000c048:	80017737          	lui	a4,0x80017
8000c04c:	8f070713          	addi	a4,a4,-1808 # 800168f0 <devtab>
8000c050:	00e787b3          	add	a5,a5,a4
8000c054:	fef42423          	sw	a5,-24(s0)
8000c058:	fe842783          	lw	a5,-24(s0)
8000c05c:	0247a783          	lw	a5,36(a5)
8000c060:	fe842503          	lw	a0,-24(s0)
8000c064:	000780e7          	jalr	a5
8000c068:	fea42223          	sw	a0,-28(s0)
8000c06c:	fec42503          	lw	a0,-20(s0)
8000c070:	a24f40ef          	jal	80000294 <restore>
8000c074:	fe442783          	lw	a5,-28(s0)
8000c078:	00078513          	mv	a0,a5
8000c07c:	02c12083          	lw	ra,44(sp)
8000c080:	02812403          	lw	s0,40(sp)
8000c084:	03010113          	addi	sp,sp,48
8000c088:	00008067          	ret

8000c08c <ioerr>:
8000c08c:	ff010113          	addi	sp,sp,-16
8000c090:	00812623          	sw	s0,12(sp)
8000c094:	01010413          	addi	s0,sp,16
8000c098:	fff00793          	li	a5,-1
8000c09c:	00078513          	mv	a0,a5
8000c0a0:	00c12403          	lw	s0,12(sp)
8000c0a4:	01010113          	addi	sp,sp,16
8000c0a8:	00008067          	ret

8000c0ac <ionull>:
8000c0ac:	ff010113          	addi	sp,sp,-16
8000c0b0:	00812623          	sw	s0,12(sp)
8000c0b4:	01010413          	addi	s0,sp,16
8000c0b8:	00100793          	li	a5,1
8000c0bc:	00078513          	mv	a0,a5
8000c0c0:	00c12403          	lw	s0,12(sp)
8000c0c4:	01010113          	addi	sp,sp,16
8000c0c8:	00008067          	ret

8000c0cc <open>:
8000c0cc:	fd010113          	addi	sp,sp,-48
8000c0d0:	02112623          	sw	ra,44(sp)
8000c0d4:	02812423          	sw	s0,40(sp)
8000c0d8:	03010413          	addi	s0,sp,48
8000c0dc:	fca42e23          	sw	a0,-36(s0)
8000c0e0:	fcb42c23          	sw	a1,-40(s0)
8000c0e4:	fcc42a23          	sw	a2,-44(s0)
8000c0e8:	9a4f40ef          	jal	8000028c <disable>
8000c0ec:	fea42623          	sw	a0,-20(s0)
8000c0f0:	fdc42783          	lw	a5,-36(s0)
8000c0f4:	01f7d793          	srli	a5,a5,0x1f
8000c0f8:	0ff7f713          	zext.b	a4,a5
8000c0fc:	fdc42783          	lw	a5,-36(s0)
8000c100:	0037a793          	slti	a5,a5,3
8000c104:	0017b793          	seqz	a5,a5
8000c108:	0ff7f793          	zext.b	a5,a5
8000c10c:	00f767b3          	or	a5,a4,a5
8000c110:	0ff7f793          	zext.b	a5,a5
8000c114:	00078a63          	beqz	a5,8000c128 <open+0x5c>
8000c118:	fec42503          	lw	a0,-20(s0)
8000c11c:	978f40ef          	jal	80000294 <restore>
8000c120:	fff00793          	li	a5,-1
8000c124:	0500006f          	j	8000c174 <open+0xa8>
8000c128:	fdc42703          	lw	a4,-36(s0)
8000c12c:	00070793          	mv	a5,a4
8000c130:	00479793          	slli	a5,a5,0x4
8000c134:	40e787b3          	sub	a5,a5,a4
8000c138:	00279793          	slli	a5,a5,0x2
8000c13c:	80017737          	lui	a4,0x80017
8000c140:	8f070713          	addi	a4,a4,-1808 # 800168f0 <devtab>
8000c144:	00e787b3          	add	a5,a5,a4
8000c148:	fef42423          	sw	a5,-24(s0)
8000c14c:	fe842783          	lw	a5,-24(s0)
8000c150:	0107a783          	lw	a5,16(a5)
8000c154:	fd442603          	lw	a2,-44(s0)
8000c158:	fd842583          	lw	a1,-40(s0)
8000c15c:	fe842503          	lw	a0,-24(s0)
8000c160:	000780e7          	jalr	a5
8000c164:	fea42223          	sw	a0,-28(s0)
8000c168:	fec42503          	lw	a0,-20(s0)
8000c16c:	928f40ef          	jal	80000294 <restore>
8000c170:	fe442783          	lw	a5,-28(s0)
8000c174:	00078513          	mv	a0,a5
8000c178:	02c12083          	lw	ra,44(sp)
8000c17c:	02812403          	lw	s0,40(sp)
8000c180:	03010113          	addi	sp,sp,48
8000c184:	00008067          	ret

8000c188 <putc>:
8000c188:	fd010113          	addi	sp,sp,-48
8000c18c:	02112623          	sw	ra,44(sp)
8000c190:	02812423          	sw	s0,40(sp)
8000c194:	03010413          	addi	s0,sp,48
8000c198:	fca42e23          	sw	a0,-36(s0)
8000c19c:	00058793          	mv	a5,a1
8000c1a0:	fcf40da3          	sb	a5,-37(s0)
8000c1a4:	8e8f40ef          	jal	8000028c <disable>
8000c1a8:	fea42623          	sw	a0,-20(s0)
8000c1ac:	fdc42783          	lw	a5,-36(s0)
8000c1b0:	01f7d793          	srli	a5,a5,0x1f
8000c1b4:	0ff7f713          	zext.b	a4,a5
8000c1b8:	fdc42783          	lw	a5,-36(s0)
8000c1bc:	0037a793          	slti	a5,a5,3
8000c1c0:	0017b793          	seqz	a5,a5
8000c1c4:	0ff7f793          	zext.b	a5,a5
8000c1c8:	00f767b3          	or	a5,a4,a5
8000c1cc:	0ff7f793          	zext.b	a5,a5
8000c1d0:	00078a63          	beqz	a5,8000c1e4 <putc+0x5c>
8000c1d4:	fec42503          	lw	a0,-20(s0)
8000c1d8:	8bcf40ef          	jal	80000294 <restore>
8000c1dc:	fff00793          	li	a5,-1
8000c1e0:	0500006f          	j	8000c230 <putc+0xa8>
8000c1e4:	fdc42703          	lw	a4,-36(s0)
8000c1e8:	00070793          	mv	a5,a4
8000c1ec:	00479793          	slli	a5,a5,0x4
8000c1f0:	40e787b3          	sub	a5,a5,a4
8000c1f4:	00279793          	slli	a5,a5,0x2
8000c1f8:	80017737          	lui	a4,0x80017
8000c1fc:	8f070713          	addi	a4,a4,-1808 # 800168f0 <devtab>
8000c200:	00e787b3          	add	a5,a5,a4
8000c204:	fef42423          	sw	a5,-24(s0)
8000c208:	fe842783          	lw	a5,-24(s0)
8000c20c:	0287a783          	lw	a5,40(a5)
8000c210:	fdb44703          	lbu	a4,-37(s0)
8000c214:	00070593          	mv	a1,a4
8000c218:	fe842503          	lw	a0,-24(s0)
8000c21c:	000780e7          	jalr	a5
8000c220:	fea42223          	sw	a0,-28(s0)
8000c224:	fec42503          	lw	a0,-20(s0)
8000c228:	86cf40ef          	jal	80000294 <restore>
8000c22c:	fe442783          	lw	a5,-28(s0)
8000c230:	00078513          	mv	a0,a5
8000c234:	02c12083          	lw	ra,44(sp)
8000c238:	02812403          	lw	s0,40(sp)
8000c23c:	03010113          	addi	sp,sp,48
8000c240:	00008067          	ret

8000c244 <read>:
8000c244:	fd010113          	addi	sp,sp,-48
8000c248:	02112623          	sw	ra,44(sp)
8000c24c:	02812423          	sw	s0,40(sp)
8000c250:	03010413          	addi	s0,sp,48
8000c254:	fca42e23          	sw	a0,-36(s0)
8000c258:	fcb42c23          	sw	a1,-40(s0)
8000c25c:	fcc42a23          	sw	a2,-44(s0)
8000c260:	82cf40ef          	jal	8000028c <disable>
8000c264:	fea42623          	sw	a0,-20(s0)
8000c268:	fdc42783          	lw	a5,-36(s0)
8000c26c:	01f7d793          	srli	a5,a5,0x1f
8000c270:	0ff7f713          	zext.b	a4,a5
8000c274:	fdc42783          	lw	a5,-36(s0)
8000c278:	0037a793          	slti	a5,a5,3
8000c27c:	0017b793          	seqz	a5,a5
8000c280:	0ff7f793          	zext.b	a5,a5
8000c284:	00f767b3          	or	a5,a4,a5
8000c288:	0ff7f793          	zext.b	a5,a5
8000c28c:	00078a63          	beqz	a5,8000c2a0 <read+0x5c>
8000c290:	fec42503          	lw	a0,-20(s0)
8000c294:	800f40ef          	jal	80000294 <restore>
8000c298:	fff00793          	li	a5,-1
8000c29c:	0500006f          	j	8000c2ec <read+0xa8>
8000c2a0:	fdc42703          	lw	a4,-36(s0)
8000c2a4:	00070793          	mv	a5,a4
8000c2a8:	00479793          	slli	a5,a5,0x4
8000c2ac:	40e787b3          	sub	a5,a5,a4
8000c2b0:	00279793          	slli	a5,a5,0x2
8000c2b4:	80017737          	lui	a4,0x80017
8000c2b8:	8f070713          	addi	a4,a4,-1808 # 800168f0 <devtab>
8000c2bc:	00e787b3          	add	a5,a5,a4
8000c2c0:	fef42423          	sw	a5,-24(s0)
8000c2c4:	fe842783          	lw	a5,-24(s0)
8000c2c8:	0187a783          	lw	a5,24(a5)
8000c2cc:	fd442603          	lw	a2,-44(s0)
8000c2d0:	fd842583          	lw	a1,-40(s0)
8000c2d4:	fe842503          	lw	a0,-24(s0)
8000c2d8:	000780e7          	jalr	a5
8000c2dc:	fea42223          	sw	a0,-28(s0)
8000c2e0:	fec42503          	lw	a0,-20(s0)
8000c2e4:	fb1f30ef          	jal	80000294 <restore>
8000c2e8:	fe442783          	lw	a5,-28(s0)
8000c2ec:	00078513          	mv	a0,a5
8000c2f0:	02c12083          	lw	ra,44(sp)
8000c2f4:	02812403          	lw	s0,40(sp)
8000c2f8:	03010113          	addi	sp,sp,48
8000c2fc:	00008067          	ret

8000c300 <write>:
8000c300:	fd010113          	addi	sp,sp,-48
8000c304:	02112623          	sw	ra,44(sp)
8000c308:	02812423          	sw	s0,40(sp)
8000c30c:	03010413          	addi	s0,sp,48
8000c310:	fca42e23          	sw	a0,-36(s0)
8000c314:	fcb42c23          	sw	a1,-40(s0)
8000c318:	fcc42a23          	sw	a2,-44(s0)
8000c31c:	f71f30ef          	jal	8000028c <disable>
8000c320:	fea42623          	sw	a0,-20(s0)
8000c324:	fdc42783          	lw	a5,-36(s0)
8000c328:	01f7d793          	srli	a5,a5,0x1f
8000c32c:	0ff7f713          	zext.b	a4,a5
8000c330:	fdc42783          	lw	a5,-36(s0)
8000c334:	0037a793          	slti	a5,a5,3
8000c338:	0017b793          	seqz	a5,a5
8000c33c:	0ff7f793          	zext.b	a5,a5
8000c340:	00f767b3          	or	a5,a4,a5
8000c344:	0ff7f793          	zext.b	a5,a5
8000c348:	00078a63          	beqz	a5,8000c35c <write+0x5c>
8000c34c:	fec42503          	lw	a0,-20(s0)
8000c350:	f45f30ef          	jal	80000294 <restore>
8000c354:	fff00793          	li	a5,-1
8000c358:	0500006f          	j	8000c3a8 <write+0xa8>
8000c35c:	fdc42703          	lw	a4,-36(s0)
8000c360:	00070793          	mv	a5,a4
8000c364:	00479793          	slli	a5,a5,0x4
8000c368:	40e787b3          	sub	a5,a5,a4
8000c36c:	00279793          	slli	a5,a5,0x2
8000c370:	80017737          	lui	a4,0x80017
8000c374:	8f070713          	addi	a4,a4,-1808 # 800168f0 <devtab>
8000c378:	00e787b3          	add	a5,a5,a4
8000c37c:	fef42423          	sw	a5,-24(s0)
8000c380:	fe842783          	lw	a5,-24(s0)
8000c384:	01c7a783          	lw	a5,28(a5)
8000c388:	fd442603          	lw	a2,-44(s0)
8000c38c:	fd842583          	lw	a1,-40(s0)
8000c390:	fe842503          	lw	a0,-24(s0)
8000c394:	000780e7          	jalr	a5
8000c398:	fea42223          	sw	a0,-28(s0)
8000c39c:	fec42503          	lw	a0,-20(s0)
8000c3a0:	ef5f30ef          	jal	80000294 <restore>
8000c3a4:	fe442783          	lw	a5,-28(s0)
8000c3a8:	00078513          	mv	a0,a5
8000c3ac:	02c12083          	lw	ra,44(sp)
8000c3b0:	02812403          	lw	s0,40(sp)
8000c3b4:	03010113          	addi	sp,sp,48
8000c3b8:	00008067          	ret

8000c3bc <seek>:
8000c3bc:	fd010113          	addi	sp,sp,-48
8000c3c0:	02112623          	sw	ra,44(sp)
8000c3c4:	02812423          	sw	s0,40(sp)
8000c3c8:	03010413          	addi	s0,sp,48
8000c3cc:	fca42e23          	sw	a0,-36(s0)
8000c3d0:	fcb42c23          	sw	a1,-40(s0)
8000c3d4:	eb9f30ef          	jal	8000028c <disable>
8000c3d8:	fea42623          	sw	a0,-20(s0)
8000c3dc:	fdc42783          	lw	a5,-36(s0)
8000c3e0:	01f7d793          	srli	a5,a5,0x1f
8000c3e4:	0ff7f713          	zext.b	a4,a5
8000c3e8:	fdc42783          	lw	a5,-36(s0)
8000c3ec:	0037a793          	slti	a5,a5,3
8000c3f0:	0017b793          	seqz	a5,a5
8000c3f4:	0ff7f793          	zext.b	a5,a5
8000c3f8:	00f767b3          	or	a5,a4,a5
8000c3fc:	0ff7f793          	zext.b	a5,a5
8000c400:	00078a63          	beqz	a5,8000c414 <seek+0x58>
8000c404:	fec42503          	lw	a0,-20(s0)
8000c408:	e8df30ef          	jal	80000294 <restore>
8000c40c:	fff00793          	li	a5,-1
8000c410:	0500006f          	j	8000c460 <seek+0xa4>
8000c414:	fdc42703          	lw	a4,-36(s0)
8000c418:	00070793          	mv	a5,a4
8000c41c:	00479793          	slli	a5,a5,0x4
8000c420:	40e787b3          	sub	a5,a5,a4
8000c424:	00279793          	slli	a5,a5,0x2
8000c428:	80017737          	lui	a4,0x80017
8000c42c:	8f070713          	addi	a4,a4,-1808 # 800168f0 <devtab>
8000c430:	00e787b3          	add	a5,a5,a4
8000c434:	fef42423          	sw	a5,-24(s0)
8000c438:	fe842783          	lw	a5,-24(s0)
8000c43c:	0207a783          	lw	a5,32(a5)
8000c440:	fd842703          	lw	a4,-40(s0)
8000c444:	00070593          	mv	a1,a4
8000c448:	fe842503          	lw	a0,-24(s0)
8000c44c:	000780e7          	jalr	a5
8000c450:	fea42223          	sw	a0,-28(s0)
8000c454:	fec42503          	lw	a0,-20(s0)
8000c458:	e3df30ef          	jal	80000294 <restore>
8000c45c:	fe442783          	lw	a5,-28(s0)
8000c460:	00078513          	mv	a0,a5
8000c464:	02c12083          	lw	ra,44(sp)
8000c468:	02812403          	lw	s0,40(sp)
8000c46c:	03010113          	addi	sp,sp,48
8000c470:	00008067          	ret

8000c474 <control>:
8000c474:	fd010113          	addi	sp,sp,-48
8000c478:	02112623          	sw	ra,44(sp)
8000c47c:	02812423          	sw	s0,40(sp)
8000c480:	03010413          	addi	s0,sp,48
8000c484:	fca42e23          	sw	a0,-36(s0)
8000c488:	fcb42c23          	sw	a1,-40(s0)
8000c48c:	fcc42a23          	sw	a2,-44(s0)
8000c490:	fcd42823          	sw	a3,-48(s0)
8000c494:	df9f30ef          	jal	8000028c <disable>
8000c498:	fea42623          	sw	a0,-20(s0)
8000c49c:	fdc42783          	lw	a5,-36(s0)
8000c4a0:	01f7d793          	srli	a5,a5,0x1f
8000c4a4:	0ff7f713          	zext.b	a4,a5
8000c4a8:	fdc42783          	lw	a5,-36(s0)
8000c4ac:	0037a793          	slti	a5,a5,3
8000c4b0:	0017b793          	seqz	a5,a5
8000c4b4:	0ff7f793          	zext.b	a5,a5
8000c4b8:	00f767b3          	or	a5,a4,a5
8000c4bc:	0ff7f793          	zext.b	a5,a5
8000c4c0:	00078a63          	beqz	a5,8000c4d4 <control+0x60>
8000c4c4:	fec42503          	lw	a0,-20(s0)
8000c4c8:	dcdf30ef          	jal	80000294 <restore>
8000c4cc:	fff00793          	li	a5,-1
8000c4d0:	0540006f          	j	8000c524 <control+0xb0>
8000c4d4:	fdc42703          	lw	a4,-36(s0)
8000c4d8:	00070793          	mv	a5,a4
8000c4dc:	00479793          	slli	a5,a5,0x4
8000c4e0:	40e787b3          	sub	a5,a5,a4
8000c4e4:	00279793          	slli	a5,a5,0x2
8000c4e8:	80017737          	lui	a4,0x80017
8000c4ec:	8f070713          	addi	a4,a4,-1808 # 800168f0 <devtab>
8000c4f0:	00e787b3          	add	a5,a5,a4
8000c4f4:	fef42423          	sw	a5,-24(s0)
8000c4f8:	fe842783          	lw	a5,-24(s0)
8000c4fc:	02c7a783          	lw	a5,44(a5)
8000c500:	fd042683          	lw	a3,-48(s0)
8000c504:	fd442603          	lw	a2,-44(s0)
8000c508:	fd842583          	lw	a1,-40(s0)
8000c50c:	fe842503          	lw	a0,-24(s0)
8000c510:	000780e7          	jalr	a5
8000c514:	fea42223          	sw	a0,-28(s0)
8000c518:	fec42503          	lw	a0,-20(s0)
8000c51c:	d79f30ef          	jal	80000294 <restore>
8000c520:	fe442783          	lw	a5,-28(s0)
8000c524:	00078513          	mv	a0,a5
8000c528:	02c12083          	lw	ra,44(sp)
8000c52c:	02812403          	lw	s0,40(sp)
8000c530:	03010113          	addi	sp,sp,48
8000c534:	00008067          	ret

8000c538 <getdev>:
8000c538:	fd010113          	addi	sp,sp,-48
8000c53c:	02112623          	sw	ra,44(sp)
8000c540:	02812423          	sw	s0,40(sp)
8000c544:	03010413          	addi	s0,sp,48
8000c548:	fca42e23          	sw	a0,-36(s0)
8000c54c:	d41f30ef          	jal	8000028c <disable>
8000c550:	fea42423          	sw	a0,-24(s0)
8000c554:	fe042623          	sw	zero,-20(s0)
8000c558:	05c0006f          	j	8000c5b4 <getdev+0x7c>
8000c55c:	800177b7          	lui	a5,0x80017
8000c560:	8f078693          	addi	a3,a5,-1808 # 800168f0 <devtab>
8000c564:	fec42703          	lw	a4,-20(s0)
8000c568:	00070793          	mv	a5,a4
8000c56c:	00479793          	slli	a5,a5,0x4
8000c570:	40e787b3          	sub	a5,a5,a4
8000c574:	00279793          	slli	a5,a5,0x2
8000c578:	00f687b3          	add	a5,a3,a5
8000c57c:	0087a783          	lw	a5,8(a5)
8000c580:	01000613          	li	a2,16
8000c584:	00078593          	mv	a1,a5
8000c588:	fdc42503          	lw	a0,-36(s0)
8000c58c:	88cfc0ef          	jal	80008618 <strncmp>
8000c590:	00050793          	mv	a5,a0
8000c594:	00078a63          	beqz	a5,8000c5a8 <getdev+0x70>
8000c598:	fe842503          	lw	a0,-24(s0)
8000c59c:	cf9f30ef          	jal	80000294 <restore>
8000c5a0:	fec42783          	lw	a5,-20(s0)
8000c5a4:	0280006f          	j	8000c5cc <getdev+0x94>
8000c5a8:	fec42783          	lw	a5,-20(s0)
8000c5ac:	00178793          	addi	a5,a5,1
8000c5b0:	fef42623          	sw	a5,-20(s0)
8000c5b4:	fec42703          	lw	a4,-20(s0)
8000c5b8:	00200793          	li	a5,2
8000c5bc:	fae7d0e3          	bge	a5,a4,8000c55c <getdev+0x24>
8000c5c0:	fe842503          	lw	a0,-24(s0)
8000c5c4:	cd1f30ef          	jal	80000294 <restore>
8000c5c8:	fff00793          	li	a5,-1
8000c5cc:	00078513          	mv	a0,a5
8000c5d0:	02c12083          	lw	ra,44(sp)
8000c5d4:	02812403          	lw	s0,40(sp)
8000c5d8:	03010113          	addi	sp,sp,48
8000c5dc:	00008067          	ret

8000c5e0 <context_irq_enable>:
8000c5e0:	fe010113          	addi	sp,sp,-32
8000c5e4:	00812e23          	sw	s0,28(sp)
8000c5e8:	02010413          	addi	s0,sp,32
8000c5ec:	fea42623          	sw	a0,-20(s0)
8000c5f0:	feb42423          	sw	a1,-24(s0)
8000c5f4:	fec42783          	lw	a5,-20(s0)
8000c5f8:	0047a783          	lw	a5,4(a5)
8000c5fc:	f7f7f713          	andi	a4,a5,-129
8000c600:	fec42783          	lw	a5,-20(s0)
8000c604:	00e7a223          	sw	a4,4(a5)
8000c608:	fec42783          	lw	a5,-20(s0)
8000c60c:	0047a703          	lw	a4,4(a5)
8000c610:	fe842783          	lw	a5,-24(s0)
8000c614:	00078663          	beqz	a5,8000c620 <context_irq_enable+0x40>
8000c618:	08000793          	li	a5,128
8000c61c:	0080006f          	j	8000c624 <context_irq_enable+0x44>
8000c620:	00000793          	li	a5,0
8000c624:	00e7e733          	or	a4,a5,a4
8000c628:	fec42783          	lw	a5,-20(s0)
8000c62c:	00e7a223          	sw	a4,4(a5)
8000c630:	00000013          	nop
8000c634:	01c12403          	lw	s0,28(sp)
8000c638:	02010113          	addi	sp,sp,32
8000c63c:	00008067          	ret

8000c640 <timer_diff>:
8000c640:	fe010113          	addi	sp,sp,-32
8000c644:	00812e23          	sw	s0,28(sp)
8000c648:	02010413          	addi	s0,sp,32
8000c64c:	fea42623          	sw	a0,-20(s0)
8000c650:	feb42423          	sw	a1,-24(s0)
8000c654:	fec42703          	lw	a4,-20(s0)
8000c658:	fe842783          	lw	a5,-24(s0)
8000c65c:	40f707b3          	sub	a5,a4,a5
8000c660:	00078513          	mv	a0,a5
8000c664:	01c12403          	lw	s0,28(sp)
8000c668:	02010113          	addi	sp,sp,32
8000c66c:	00008067          	ret

8000c670 <ilde>:
8000c670:	ff010113          	addi	sp,sp,-16
8000c674:	00112623          	sw	ra,12(sp)
8000c678:	00812423          	sw	s0,8(sp)
8000c67c:	01010413          	addi	s0,sp,16
8000c680:	00100513          	li	a0,1
8000c684:	a20ff0ef          	jal	8000b8a4 <sleep>
8000c688:	ff9ff06f          	j	8000c680 <ilde+0x10>

8000c68c <ilde2>:
8000c68c:	ff010113          	addi	sp,sp,-16
8000c690:	00112623          	sw	ra,12(sp)
8000c694:	00812423          	sw	s0,8(sp)
8000c698:	01010413          	addi	s0,sp,16
8000c69c:	00100513          	li	a0,1
8000c6a0:	a04ff0ef          	jal	8000b8a4 <sleep>
8000c6a4:	ff9ff06f          	j	8000c69c <ilde2+0x10>

8000c6a8 <nullprocess>:
8000c6a8:	ff010113          	addi	sp,sp,-16
8000c6ac:	00112623          	sw	ra,12(sp)
8000c6b0:	00812423          	sw	s0,8(sp)
8000c6b4:	01010413          	addi	s0,sp,16
8000c6b8:	00000713          	li	a4,0
8000c6bc:	800147b7          	lui	a5,0x80014
8000c6c0:	06c78693          	addi	a3,a5,108 # 8001406c <r+0x148>
8000c6c4:	00300613          	li	a2,3
8000c6c8:	20000593          	li	a1,512
8000c6cc:	8000c7b7          	lui	a5,0x8000c
8000c6d0:	68c78513          	addi	a0,a5,1676 # 8000c68c <ilde2>
8000c6d4:	e6cfe0ef          	jal	8000ad40 <create>
8000c6d8:	00050793          	mv	a5,a0
8000c6dc:	00078513          	mv	a0,a5
8000c6e0:	ae8ff0ef          	jal	8000b9c8 <resume>
8000c6e4:	00000713          	li	a4,0
8000c6e8:	800147b7          	lui	a5,0x80014
8000c6ec:	07478693          	addi	a3,a5,116 # 80014074 <r+0x150>
8000c6f0:	00100613          	li	a2,1
8000c6f4:	000015b7          	lui	a1,0x1
8000c6f8:	8000f7b7          	lui	a5,0x8000f
8000c6fc:	dc478513          	addi	a0,a5,-572 # 8000edc4 <shell>
8000c700:	e40fe0ef          	jal	8000ad40 <create>
8000c704:	00050793          	mv	a5,a0
8000c708:	00078513          	mv	a0,a5
8000c70c:	abcff0ef          	jal	8000b9c8 <resume>
8000c710:	00000793          	li	a5,0
8000c714:	00078513          	mv	a0,a5
8000c718:	00c12083          	lw	ra,12(sp)
8000c71c:	00812403          	lw	s0,8(sp)
8000c720:	01010113          	addi	sp,sp,16
8000c724:	00008067          	ret

8000c728 <nulluser>:
8000c728:	fe010113          	addi	sp,sp,-32
8000c72c:	00112e23          	sw	ra,28(sp)
8000c730:	00812c23          	sw	s0,24(sp)
8000c734:	02010413          	addi	s0,sp,32
8000c738:	800147b7          	lui	a5,0x80014
8000c73c:	07c78613          	addi	a2,a5,124 # 8001407c <r+0x158>
8000c740:	800147b7          	lui	a5,0x80014
8000c744:	08878593          	addi	a1,a5,136 # 80014088 <r+0x164>
8000c748:	800147b7          	lui	a5,0x80014
8000c74c:	09478513          	addi	a0,a5,148 # 80014094 <r+0x170>
8000c750:	7f5060ef          	jal	80013744 <kprintf>
8000c754:	b39f30ef          	jal	8000028c <disable>
8000c758:	094000ef          	jal	8000c7ec <sysinit>
8000c75c:	8001d7b7          	lui	a5,0x8001d
8000c760:	00a00713          	li	a4,10
8000c764:	4ce7aa23          	sw	a4,1236(a5) # 8001d4d4 <preempt>
8000c768:	00000713          	li	a4,0
8000c76c:	800147b7          	lui	a5,0x80014
8000c770:	0a878693          	addi	a3,a5,168 # 800140a8 <r+0x184>
8000c774:	00100613          	li	a2,1
8000c778:	20000593          	li	a1,512
8000c77c:	8000c7b7          	lui	a5,0x8000c
8000c780:	67078513          	addi	a0,a5,1648 # 8000c670 <ilde>
8000c784:	dbcfe0ef          	jal	8000ad40 <create>
8000c788:	fea42623          	sw	a0,-20(s0)
8000c78c:	fec42703          	lw	a4,-20(s0)
8000c790:	06400793          	li	a5,100
8000c794:	02f70733          	mul	a4,a4,a5
8000c798:	800177b7          	lui	a5,0x80017
8000c79c:	a3c78793          	addi	a5,a5,-1476 # 80016a3c <proctab>
8000c7a0:	00f707b3          	add	a5,a4,a5
8000c7a4:	fef42423          	sw	a5,-24(s0)
8000c7a8:	fe842783          	lw	a5,-24(s0)
8000c7ac:	00100713          	li	a4,1
8000c7b0:	00e79023          	sh	a4,0(a5)
8000c7b4:	ad1f30ef          	jal	80000284 <enable>
8000c7b8:	00000713          	li	a4,0
8000c7bc:	800147b7          	lui	a5,0x80014
8000c7c0:	0b078693          	addi	a3,a5,176 # 800140b0 <r+0x18c>
8000c7c4:	00300613          	li	a2,3
8000c7c8:	000017b7          	lui	a5,0x1
8000c7cc:	80078593          	addi	a1,a5,-2048 # 800 <_start-0x7ffff800>
8000c7d0:	8000c7b7          	lui	a5,0x8000c
8000c7d4:	6a878513          	addi	a0,a5,1704 # 8000c6a8 <nullprocess>
8000c7d8:	d68fe0ef          	jal	8000ad40 <create>
8000c7dc:	00050793          	mv	a5,a0
8000c7e0:	00078513          	mv	a0,a5
8000c7e4:	d34ff0ef          	jal	8000bd18 <ready>
8000c7e8:	0000006f          	j	8000c7e8 <nulluser+0xc0>

8000c7ec <sysinit>:
8000c7ec:	fe010113          	addi	sp,sp,-32
8000c7f0:	00112e23          	sw	ra,28(sp)
8000c7f4:	00812c23          	sw	s0,24(sp)
8000c7f8:	02010413          	addi	s0,sp,32
8000c7fc:	9e8fe0ef          	jal	8000a9e4 <clkinit>
8000c800:	25d010ef          	jal	8000e25c <syscall_os_init>
8000c804:	fe042423          	sw	zero,-24(s0)
8000c808:	01c0006f          	j	8000c824 <sysinit+0x38>
8000c80c:	800147b7          	lui	a5,0x80014
8000c810:	0c078513          	addi	a0,a5,192 # 800140c0 <r+0x19c>
8000c814:	731060ef          	jal	80013744 <kprintf>
8000c818:	fe842783          	lw	a5,-24(s0)
8000c81c:	00178793          	addi	a5,a5,1
8000c820:	fef42423          	sw	a5,-24(s0)
8000c824:	fe842703          	lw	a4,-24(s0)
8000c828:	00100793          	li	a5,1
8000c82c:	fee7d0e3          	bge	a5,a4,8000c80c <sysinit+0x20>
8000c830:	8001d7b7          	lui	a5,0x8001d
8000c834:	4e07a623          	sw	zero,1260(a5) # 8001d4ec <prcount>
8000c838:	fe042623          	sw	zero,-20(s0)
8000c83c:	0540006f          	j	8000c890 <sysinit+0xa4>
8000c840:	fec42703          	lw	a4,-20(s0)
8000c844:	06400793          	li	a5,100
8000c848:	02f70733          	mul	a4,a4,a5
8000c84c:	800177b7          	lui	a5,0x80017
8000c850:	a3c78793          	addi	a5,a5,-1476 # 80016a3c <proctab>
8000c854:	00f707b3          	add	a5,a4,a5
8000c858:	fef42023          	sw	a5,-32(s0)
8000c85c:	fe042783          	lw	a5,-32(s0)
8000c860:	00079023          	sh	zero,0(a5)
8000c864:	fe042783          	lw	a5,-32(s0)
8000c868:	00078823          	sb	zero,16(a5)
8000c86c:	fe042783          	lw	a5,-32(s0)
8000c870:	0007a423          	sw	zero,8(a5)
8000c874:	fe042783          	lw	a5,-32(s0)
8000c878:	02078c23          	sb	zero,56(a5)
8000c87c:	fe042783          	lw	a5,-32(s0)
8000c880:	00079123          	sh	zero,2(a5)
8000c884:	fec42783          	lw	a5,-20(s0)
8000c888:	00178793          	addi	a5,a5,1
8000c88c:	fef42623          	sw	a5,-20(s0)
8000c890:	fec42703          	lw	a4,-20(s0)
8000c894:	00900793          	li	a5,9
8000c898:	fae7d4e3          	bge	a5,a4,8000c840 <sysinit+0x54>
8000c89c:	fe042623          	sw	zero,-20(s0)
8000c8a0:	0580006f          	j	8000c8f8 <sysinit+0x10c>
8000c8a4:	fec42703          	lw	a4,-20(s0)
8000c8a8:	00070793          	mv	a5,a4
8000c8ac:	00179793          	slli	a5,a5,0x1
8000c8b0:	00e787b3          	add	a5,a5,a4
8000c8b4:	00279793          	slli	a5,a5,0x2
8000c8b8:	80017737          	lui	a4,0x80017
8000c8bc:	e2470713          	addi	a4,a4,-476 # 80016e24 <semtab>
8000c8c0:	00e787b3          	add	a5,a5,a4
8000c8c4:	fef42223          	sw	a5,-28(s0)
8000c8c8:	fe442783          	lw	a5,-28(s0)
8000c8cc:	00078023          	sb	zero,0(a5)
8000c8d0:	fe442783          	lw	a5,-28(s0)
8000c8d4:	0007a223          	sw	zero,4(a5)
8000c8d8:	4c1000ef          	jal	8000d598 <newqueue>
8000c8dc:	00050793          	mv	a5,a0
8000c8e0:	00078713          	mv	a4,a5
8000c8e4:	fe442783          	lw	a5,-28(s0)
8000c8e8:	00e79423          	sh	a4,8(a5)
8000c8ec:	fec42783          	lw	a5,-20(s0)
8000c8f0:	00178793          	addi	a5,a5,1
8000c8f4:	fef42623          	sw	a5,-20(s0)
8000c8f8:	fec42703          	lw	a4,-20(s0)
8000c8fc:	00900793          	li	a5,9
8000c900:	fae7d2e3          	bge	a5,a4,8000c8a4 <sysinit+0xb8>
8000c904:	495000ef          	jal	8000d598 <newqueue>
8000c908:	00050793          	mv	a5,a0
8000c90c:	00078713          	mv	a4,a5
8000c910:	8001d7b7          	lui	a5,0x8001d
8000c914:	4ee79023          	sh	a4,1248(a5) # 8001d4e0 <readylist>
8000c918:	fe042623          	sw	zero,-20(s0)
8000c91c:	0180006f          	j	8000c934 <sysinit+0x148>
8000c920:	fec42503          	lw	a0,-20(s0)
8000c924:	d64ff0ef          	jal	8000be88 <init>
8000c928:	fec42783          	lw	a5,-20(s0)
8000c92c:	00178793          	addi	a5,a5,1
8000c930:	fef42623          	sw	a5,-20(s0)
8000c934:	fec42703          	lw	a4,-20(s0)
8000c938:	00200793          	li	a5,2
8000c93c:	fee7d2e3          	bge	a5,a4,8000c920 <sysinit+0x134>
8000c940:	00000013          	nop
8000c944:	01c12083          	lw	ra,28(sp)
8000c948:	01812403          	lw	s0,24(sp)
8000c94c:	02010113          	addi	sp,sp,32
8000c950:	00008067          	ret

8000c954 <context_irq_enable>:
8000c954:	fe010113          	addi	sp,sp,-32
8000c958:	00812e23          	sw	s0,28(sp)
8000c95c:	02010413          	addi	s0,sp,32
8000c960:	fea42623          	sw	a0,-20(s0)
8000c964:	feb42423          	sw	a1,-24(s0)
8000c968:	fec42783          	lw	a5,-20(s0)
8000c96c:	0047a783          	lw	a5,4(a5)
8000c970:	f7f7f713          	andi	a4,a5,-129
8000c974:	fec42783          	lw	a5,-20(s0)
8000c978:	00e7a223          	sw	a4,4(a5)
8000c97c:	fec42783          	lw	a5,-20(s0)
8000c980:	0047a703          	lw	a4,4(a5)
8000c984:	fe842783          	lw	a5,-24(s0)
8000c988:	00078663          	beqz	a5,8000c994 <context_irq_enable+0x40>
8000c98c:	08000793          	li	a5,128
8000c990:	0080006f          	j	8000c998 <context_irq_enable+0x44>
8000c994:	00000793          	li	a5,0
8000c998:	00e7e733          	or	a4,a5,a4
8000c99c:	fec42783          	lw	a5,-20(s0)
8000c9a0:	00e7a223          	sw	a4,4(a5)
8000c9a4:	00000013          	nop
8000c9a8:	01c12403          	lw	s0,28(sp)
8000c9ac:	02010113          	addi	sp,sp,32
8000c9b0:	00008067          	ret

8000c9b4 <timer_diff>:
8000c9b4:	fe010113          	addi	sp,sp,-32
8000c9b8:	00812e23          	sw	s0,28(sp)
8000c9bc:	02010413          	addi	s0,sp,32
8000c9c0:	fea42623          	sw	a0,-20(s0)
8000c9c4:	feb42423          	sw	a1,-24(s0)
8000c9c8:	fec42703          	lw	a4,-20(s0)
8000c9cc:	fe842783          	lw	a5,-24(s0)
8000c9d0:	40f707b3          	sub	a5,a4,a5
8000c9d4:	00078513          	mv	a0,a5
8000c9d8:	01c12403          	lw	s0,28(sp)
8000c9dc:	02010113          	addi	sp,sp,32
8000c9e0:	00008067          	ret

8000c9e4 <receive>:
8000c9e4:	fe010113          	addi	sp,sp,-32
8000c9e8:	00112e23          	sw	ra,28(sp)
8000c9ec:	00812c23          	sw	s0,24(sp)
8000c9f0:	02010413          	addi	s0,sp,32
8000c9f4:	899f30ef          	jal	8000028c <disable>
8000c9f8:	fea42623          	sw	a0,-20(s0)
8000c9fc:	8001d7b7          	lui	a5,0x8001d
8000ca00:	4f07a703          	lw	a4,1264(a5) # 8001d4f0 <currpid>
8000ca04:	06400793          	li	a5,100
8000ca08:	02f70733          	mul	a4,a4,a5
8000ca0c:	800177b7          	lui	a5,0x80017
8000ca10:	a3c78793          	addi	a5,a5,-1476 # 80016a3c <proctab>
8000ca14:	00f707b3          	add	a5,a4,a5
8000ca18:	fef42423          	sw	a5,-24(s0)
8000ca1c:	fe842783          	lw	a5,-24(s0)
8000ca20:	0307c783          	lbu	a5,48(a5)
8000ca24:	00079e63          	bnez	a5,8000ca40 <receive+0x5c>
8000ca28:	fe842783          	lw	a5,-24(s0)
8000ca2c:	00300713          	li	a4,3
8000ca30:	00e79023          	sh	a4,0(a5)
8000ca34:	fec42503          	lw	a0,-20(s0)
8000ca38:	85df30ef          	jal	80000294 <restore>
8000ca3c:	85cff0ef          	jal	8000ba98 <resched>
8000ca40:	fe842783          	lw	a5,-24(s0)
8000ca44:	02c7a783          	lw	a5,44(a5)
8000ca48:	fef42223          	sw	a5,-28(s0)
8000ca4c:	fe842783          	lw	a5,-24(s0)
8000ca50:	02078823          	sb	zero,48(a5)
8000ca54:	fec42503          	lw	a0,-20(s0)
8000ca58:	83df30ef          	jal	80000294 <restore>
8000ca5c:	fe442783          	lw	a5,-28(s0)
8000ca60:	00078513          	mv	a0,a5
8000ca64:	01c12083          	lw	ra,28(sp)
8000ca68:	01812403          	lw	s0,24(sp)
8000ca6c:	02010113          	addi	sp,sp,32
8000ca70:	00008067          	ret

8000ca74 <recvclr>:
8000ca74:	fe010113          	addi	sp,sp,-32
8000ca78:	00112e23          	sw	ra,28(sp)
8000ca7c:	00812c23          	sw	s0,24(sp)
8000ca80:	02010413          	addi	s0,sp,32
8000ca84:	809f30ef          	jal	8000028c <disable>
8000ca88:	fea42423          	sw	a0,-24(s0)
8000ca8c:	8001d7b7          	lui	a5,0x8001d
8000ca90:	4f07a703          	lw	a4,1264(a5) # 8001d4f0 <currpid>
8000ca94:	06400793          	li	a5,100
8000ca98:	02f70733          	mul	a4,a4,a5
8000ca9c:	800177b7          	lui	a5,0x80017
8000caa0:	a3c78793          	addi	a5,a5,-1476 # 80016a3c <proctab>
8000caa4:	00f707b3          	add	a5,a4,a5
8000caa8:	fef42223          	sw	a5,-28(s0)
8000caac:	fe442783          	lw	a5,-28(s0)
8000cab0:	0307c703          	lbu	a4,48(a5)
8000cab4:	00100793          	li	a5,1
8000cab8:	00f71e63          	bne	a4,a5,8000cad4 <recvclr+0x60>
8000cabc:	fe442783          	lw	a5,-28(s0)
8000cac0:	02c7a783          	lw	a5,44(a5)
8000cac4:	fef42623          	sw	a5,-20(s0)
8000cac8:	fe442783          	lw	a5,-28(s0)
8000cacc:	02078823          	sb	zero,48(a5)
8000cad0:	00c0006f          	j	8000cadc <recvclr+0x68>
8000cad4:	00100793          	li	a5,1
8000cad8:	fef42623          	sw	a5,-20(s0)
8000cadc:	fe842503          	lw	a0,-24(s0)
8000cae0:	fb4f30ef          	jal	80000294 <restore>
8000cae4:	fec42783          	lw	a5,-20(s0)
8000cae8:	00078513          	mv	a0,a5
8000caec:	01c12083          	lw	ra,28(sp)
8000caf0:	01812403          	lw	s0,24(sp)
8000caf4:	02010113          	addi	sp,sp,32
8000caf8:	00008067          	ret

8000cafc <recvtime>:
8000cafc:	fd010113          	addi	sp,sp,-48
8000cb00:	02112623          	sw	ra,44(sp)
8000cb04:	02812423          	sw	s0,40(sp)
8000cb08:	03010413          	addi	s0,sp,48
8000cb0c:	fca42e23          	sw	a0,-36(s0)
8000cb10:	fdc42783          	lw	a5,-36(s0)
8000cb14:	0007d663          	bgez	a5,8000cb20 <recvtime+0x24>
8000cb18:	fff00793          	li	a5,-1
8000cb1c:	0c40006f          	j	8000cbe0 <recvtime+0xe4>
8000cb20:	f6cf30ef          	jal	8000028c <disable>
8000cb24:	fea42423          	sw	a0,-24(s0)
8000cb28:	8001d7b7          	lui	a5,0x8001d
8000cb2c:	4f07a703          	lw	a4,1264(a5) # 8001d4f0 <currpid>
8000cb30:	06400793          	li	a5,100
8000cb34:	02f70733          	mul	a4,a4,a5
8000cb38:	800177b7          	lui	a5,0x80017
8000cb3c:	a3c78793          	addi	a5,a5,-1476 # 80016a3c <proctab>
8000cb40:	00f707b3          	add	a5,a4,a5
8000cb44:	fef42223          	sw	a5,-28(s0)
8000cb48:	fe442783          	lw	a5,-28(s0)
8000cb4c:	0307c783          	lbu	a5,48(a5)
8000cb50:	04079c63          	bnez	a5,8000cba8 <recvtime+0xac>
8000cb54:	8001d7b7          	lui	a5,0x8001d
8000cb58:	4f07a703          	lw	a4,1264(a5) # 8001d4f0 <currpid>
8000cb5c:	8001d7b7          	lui	a5,0x8001d
8000cb60:	4d079783          	lh	a5,1232(a5) # 8001d4d0 <sleepq>
8000cb64:	fdc42603          	lw	a2,-36(s0)
8000cb68:	00078593          	mv	a1,a5
8000cb6c:	00070513          	mv	a0,a4
8000cb70:	011000ef          	jal	8000d380 <insertd>
8000cb74:	00050713          	mv	a4,a0
8000cb78:	fff00793          	li	a5,-1
8000cb7c:	00f71a63          	bne	a4,a5,8000cb90 <recvtime+0x94>
8000cb80:	fe842503          	lw	a0,-24(s0)
8000cb84:	f10f30ef          	jal	80000294 <restore>
8000cb88:	fff00793          	li	a5,-1
8000cb8c:	0540006f          	j	8000cbe0 <recvtime+0xe4>
8000cb90:	fe442783          	lw	a5,-28(s0)
8000cb94:	00700713          	li	a4,7
8000cb98:	00e79023          	sh	a4,0(a5)
8000cb9c:	fe842503          	lw	a0,-24(s0)
8000cba0:	ef4f30ef          	jal	80000294 <restore>
8000cba4:	ef5fe0ef          	jal	8000ba98 <resched>
8000cba8:	fe442783          	lw	a5,-28(s0)
8000cbac:	0307c783          	lbu	a5,48(a5)
8000cbb0:	00078e63          	beqz	a5,8000cbcc <recvtime+0xd0>
8000cbb4:	fe442783          	lw	a5,-28(s0)
8000cbb8:	02c7a783          	lw	a5,44(a5)
8000cbbc:	fef42623          	sw	a5,-20(s0)
8000cbc0:	fe442783          	lw	a5,-28(s0)
8000cbc4:	02078823          	sb	zero,48(a5)
8000cbc8:	00c0006f          	j	8000cbd4 <recvtime+0xd8>
8000cbcc:	ffd00793          	li	a5,-3
8000cbd0:	fef42623          	sw	a5,-20(s0)
8000cbd4:	fe842503          	lw	a0,-24(s0)
8000cbd8:	ebcf30ef          	jal	80000294 <restore>
8000cbdc:	fec42783          	lw	a5,-20(s0)
8000cbe0:	00078513          	mv	a0,a5
8000cbe4:	02c12083          	lw	ra,44(sp)
8000cbe8:	02812403          	lw	s0,40(sp)
8000cbec:	03010113          	addi	sp,sp,48
8000cbf0:	00008067          	ret

8000cbf4 <send>:
8000cbf4:	fd010113          	addi	sp,sp,-48
8000cbf8:	02112623          	sw	ra,44(sp)
8000cbfc:	02812423          	sw	s0,40(sp)
8000cc00:	03010413          	addi	s0,sp,48
8000cc04:	fca42e23          	sw	a0,-36(s0)
8000cc08:	fcb42c23          	sw	a1,-40(s0)
8000cc0c:	e80f30ef          	jal	8000028c <disable>
8000cc10:	fea42623          	sw	a0,-20(s0)
8000cc14:	fdc42783          	lw	a5,-36(s0)
8000cc18:	0207c863          	bltz	a5,8000cc48 <send+0x54>
8000cc1c:	fdc42703          	lw	a4,-36(s0)
8000cc20:	00900793          	li	a5,9
8000cc24:	02e7c263          	blt	a5,a4,8000cc48 <send+0x54>
8000cc28:	800177b7          	lui	a5,0x80017
8000cc2c:	a3c78713          	addi	a4,a5,-1476 # 80016a3c <proctab>
8000cc30:	fdc42683          	lw	a3,-36(s0)
8000cc34:	06400793          	li	a5,100
8000cc38:	02f687b3          	mul	a5,a3,a5
8000cc3c:	00f707b3          	add	a5,a4,a5
8000cc40:	0007d783          	lhu	a5,0(a5)
8000cc44:	00079a63          	bnez	a5,8000cc58 <send+0x64>
8000cc48:	fec42503          	lw	a0,-20(s0)
8000cc4c:	e48f30ef          	jal	80000294 <restore>
8000cc50:	fff00793          	li	a5,-1
8000cc54:	09c0006f          	j	8000ccf0 <send+0xfc>
8000cc58:	fdc42703          	lw	a4,-36(s0)
8000cc5c:	06400793          	li	a5,100
8000cc60:	02f70733          	mul	a4,a4,a5
8000cc64:	800177b7          	lui	a5,0x80017
8000cc68:	a3c78793          	addi	a5,a5,-1476 # 80016a3c <proctab>
8000cc6c:	00f707b3          	add	a5,a4,a5
8000cc70:	fef42423          	sw	a5,-24(s0)
8000cc74:	fe842783          	lw	a5,-24(s0)
8000cc78:	0307c783          	lbu	a5,48(a5)
8000cc7c:	00078a63          	beqz	a5,8000cc90 <send+0x9c>
8000cc80:	fec42503          	lw	a0,-20(s0)
8000cc84:	e10f30ef          	jal	80000294 <restore>
8000cc88:	fff00793          	li	a5,-1
8000cc8c:	0640006f          	j	8000ccf0 <send+0xfc>
8000cc90:	fe842783          	lw	a5,-24(s0)
8000cc94:	fd842703          	lw	a4,-40(s0)
8000cc98:	02e7a623          	sw	a4,44(a5)
8000cc9c:	fe842783          	lw	a5,-24(s0)
8000cca0:	00100713          	li	a4,1
8000cca4:	02e78823          	sb	a4,48(a5)
8000cca8:	fe842783          	lw	a5,-24(s0)
8000ccac:	0007d703          	lhu	a4,0(a5)
8000ccb0:	00300793          	li	a5,3
8000ccb4:	00f71863          	bne	a4,a5,8000ccc4 <send+0xd0>
8000ccb8:	fdc42503          	lw	a0,-36(s0)
8000ccbc:	85cff0ef          	jal	8000bd18 <ready>
8000ccc0:	0240006f          	j	8000cce4 <send+0xf0>
8000ccc4:	fe842783          	lw	a5,-24(s0)
8000ccc8:	0007d703          	lhu	a4,0(a5)
8000cccc:	00700793          	li	a5,7
8000ccd0:	00f71a63          	bne	a4,a5,8000cce4 <send+0xf0>
8000ccd4:	fdc42503          	lw	a0,-36(s0)
8000ccd8:	96dfe0ef          	jal	8000b644 <unsleep>
8000ccdc:	fdc42503          	lw	a0,-36(s0)
8000cce0:	838ff0ef          	jal	8000bd18 <ready>
8000cce4:	fec42503          	lw	a0,-20(s0)
8000cce8:	dacf30ef          	jal	80000294 <restore>
8000ccec:	00100793          	li	a5,1
8000ccf0:	00078513          	mv	a0,a5
8000ccf4:	02c12083          	lw	ra,44(sp)
8000ccf8:	02812403          	lw	s0,40(sp)
8000ccfc:	03010113          	addi	sp,sp,48
8000cd00:	00008067          	ret

8000cd04 <context_irq_enable>:
8000cd04:	fe010113          	addi	sp,sp,-32
8000cd08:	00812e23          	sw	s0,28(sp)
8000cd0c:	02010413          	addi	s0,sp,32
8000cd10:	fea42623          	sw	a0,-20(s0)
8000cd14:	feb42423          	sw	a1,-24(s0)
8000cd18:	fec42783          	lw	a5,-20(s0)
8000cd1c:	0047a783          	lw	a5,4(a5)
8000cd20:	f7f7f713          	andi	a4,a5,-129
8000cd24:	fec42783          	lw	a5,-20(s0)
8000cd28:	00e7a223          	sw	a4,4(a5)
8000cd2c:	fec42783          	lw	a5,-20(s0)
8000cd30:	0047a703          	lw	a4,4(a5)
8000cd34:	fe842783          	lw	a5,-24(s0)
8000cd38:	00078663          	beqz	a5,8000cd44 <context_irq_enable+0x40>
8000cd3c:	08000793          	li	a5,128
8000cd40:	0080006f          	j	8000cd48 <context_irq_enable+0x44>
8000cd44:	00000793          	li	a5,0
8000cd48:	00e7e733          	or	a4,a5,a4
8000cd4c:	fec42783          	lw	a5,-20(s0)
8000cd50:	00e7a223          	sw	a4,4(a5)
8000cd54:	00000013          	nop
8000cd58:	01c12403          	lw	s0,28(sp)
8000cd5c:	02010113          	addi	sp,sp,32
8000cd60:	00008067          	ret

8000cd64 <timer_diff>:
8000cd64:	fe010113          	addi	sp,sp,-32
8000cd68:	00812e23          	sw	s0,28(sp)
8000cd6c:	02010413          	addi	s0,sp,32
8000cd70:	fea42623          	sw	a0,-20(s0)
8000cd74:	feb42423          	sw	a1,-24(s0)
8000cd78:	fec42703          	lw	a4,-20(s0)
8000cd7c:	fe842783          	lw	a5,-24(s0)
8000cd80:	40f707b3          	sub	a5,a4,a5
8000cd84:	00078513          	mv	a0,a5
8000cd88:	01c12403          	lw	s0,28(sp)
8000cd8c:	02010113          	addi	sp,sp,32
8000cd90:	00008067          	ret

8000cd94 <panic>:
8000cd94:	fe010113          	addi	sp,sp,-32
8000cd98:	00112e23          	sw	ra,28(sp)
8000cd9c:	00812c23          	sw	s0,24(sp)
8000cda0:	02010413          	addi	s0,sp,32
8000cda4:	fea42623          	sw	a0,-20(s0)
8000cda8:	ce4f30ef          	jal	8000028c <disable>
8000cdac:	fec42583          	lw	a1,-20(s0)
8000cdb0:	800147b7          	lui	a5,0x80014
8000cdb4:	0c478513          	addi	a0,a5,196 # 800140c4 <r+0x1a0>
8000cdb8:	18d060ef          	jal	80013744 <kprintf>
8000cdbc:	0000006f          	j	8000cdbc <panic+0x28>

8000cdc0 <context_irq_enable>:
8000cdc0:	fe010113          	addi	sp,sp,-32
8000cdc4:	00812e23          	sw	s0,28(sp)
8000cdc8:	02010413          	addi	s0,sp,32
8000cdcc:	fea42623          	sw	a0,-20(s0)
8000cdd0:	feb42423          	sw	a1,-24(s0)
8000cdd4:	fec42783          	lw	a5,-20(s0)
8000cdd8:	0047a783          	lw	a5,4(a5)
8000cddc:	f7f7f713          	andi	a4,a5,-129
8000cde0:	fec42783          	lw	a5,-20(s0)
8000cde4:	00e7a223          	sw	a4,4(a5)
8000cde8:	fec42783          	lw	a5,-20(s0)
8000cdec:	0047a703          	lw	a4,4(a5)
8000cdf0:	fe842783          	lw	a5,-24(s0)
8000cdf4:	00078663          	beqz	a5,8000ce00 <context_irq_enable+0x40>
8000cdf8:	08000793          	li	a5,128
8000cdfc:	0080006f          	j	8000ce04 <context_irq_enable+0x44>
8000ce00:	00000793          	li	a5,0
8000ce04:	00e7e733          	or	a4,a5,a4
8000ce08:	fec42783          	lw	a5,-20(s0)
8000ce0c:	00e7a223          	sw	a4,4(a5)
8000ce10:	00000013          	nop
8000ce14:	01c12403          	lw	s0,28(sp)
8000ce18:	02010113          	addi	sp,sp,32
8000ce1c:	00008067          	ret

8000ce20 <timer_diff>:
8000ce20:	fe010113          	addi	sp,sp,-32
8000ce24:	00812e23          	sw	s0,28(sp)
8000ce28:	02010413          	addi	s0,sp,32
8000ce2c:	fea42623          	sw	a0,-20(s0)
8000ce30:	feb42423          	sw	a1,-24(s0)
8000ce34:	fec42703          	lw	a4,-20(s0)
8000ce38:	fe842783          	lw	a5,-24(s0)
8000ce3c:	40f707b3          	sub	a5,a4,a5
8000ce40:	00078513          	mv	a0,a5
8000ce44:	01c12403          	lw	s0,28(sp)
8000ce48:	02010113          	addi	sp,sp,32
8000ce4c:	00008067          	ret

8000ce50 <enqueue>:
8000ce50:	fd010113          	addi	sp,sp,-48
8000ce54:	02812623          	sw	s0,44(sp)
8000ce58:	03010413          	addi	s0,sp,48
8000ce5c:	fca42e23          	sw	a0,-36(s0)
8000ce60:	00058793          	mv	a5,a1
8000ce64:	fcf41d23          	sh	a5,-38(s0)
8000ce68:	fda41703          	lh	a4,-38(s0)
8000ce6c:	00900793          	li	a5,9
8000ce70:	04e7d263          	bge	a5,a4,8000ceb4 <enqueue+0x64>
8000ce74:	fda41703          	lh	a4,-38(s0)
8000ce78:	02000793          	li	a5,32
8000ce7c:	02e7cc63          	blt	a5,a4,8000ceb4 <enqueue+0x64>
8000ce80:	fdc42783          	lw	a5,-36(s0)
8000ce84:	0207c863          	bltz	a5,8000ceb4 <enqueue+0x64>
8000ce88:	fdc42703          	lw	a4,-36(s0)
8000ce8c:	00900793          	li	a5,9
8000ce90:	02e7c263          	blt	a5,a4,8000ceb4 <enqueue+0x64>
8000ce94:	800177b7          	lui	a5,0x80017
8000ce98:	a3c78713          	addi	a4,a5,-1476 # 80016a3c <proctab>
8000ce9c:	fdc42683          	lw	a3,-36(s0)
8000cea0:	06400793          	li	a5,100
8000cea4:	02f687b3          	mul	a5,a3,a5
8000cea8:	00f707b3          	add	a5,a4,a5
8000ceac:	0007d783          	lhu	a5,0(a5)
8000ceb0:	00079663          	bnez	a5,8000cebc <enqueue+0x6c>
8000ceb4:	fff00793          	li	a5,-1
8000ceb8:	0b80006f          	j	8000cf70 <enqueue+0x120>
8000cebc:	fda45783          	lhu	a5,-38(s0)
8000cec0:	00178793          	addi	a5,a5,1
8000cec4:	01079793          	slli	a5,a5,0x10
8000cec8:	0107d793          	srli	a5,a5,0x10
8000cecc:	fef41723          	sh	a5,-18(s0)
8000ced0:	fee41783          	lh	a5,-18(s0)
8000ced4:	80017737          	lui	a4,0x80017
8000ced8:	e9c70713          	addi	a4,a4,-356 # 80016e9c <queuetab>
8000cedc:	00379793          	slli	a5,a5,0x3
8000cee0:	00f707b3          	add	a5,a4,a5
8000cee4:	0067d783          	lhu	a5,6(a5)
8000cee8:	fef41623          	sh	a5,-20(s0)
8000ceec:	800177b7          	lui	a5,0x80017
8000cef0:	e9c78713          	addi	a4,a5,-356 # 80016e9c <queuetab>
8000cef4:	fdc42783          	lw	a5,-36(s0)
8000cef8:	00379793          	slli	a5,a5,0x3
8000cefc:	00f707b3          	add	a5,a4,a5
8000cf00:	fee45703          	lhu	a4,-18(s0)
8000cf04:	00e79223          	sh	a4,4(a5)
8000cf08:	800177b7          	lui	a5,0x80017
8000cf0c:	e9c78713          	addi	a4,a5,-356 # 80016e9c <queuetab>
8000cf10:	fdc42783          	lw	a5,-36(s0)
8000cf14:	00379793          	slli	a5,a5,0x3
8000cf18:	00f707b3          	add	a5,a4,a5
8000cf1c:	fec45703          	lhu	a4,-20(s0)
8000cf20:	00e79323          	sh	a4,6(a5)
8000cf24:	fec41783          	lh	a5,-20(s0)
8000cf28:	fdc42703          	lw	a4,-36(s0)
8000cf2c:	01071713          	slli	a4,a4,0x10
8000cf30:	41075713          	srai	a4,a4,0x10
8000cf34:	800176b7          	lui	a3,0x80017
8000cf38:	e9c68693          	addi	a3,a3,-356 # 80016e9c <queuetab>
8000cf3c:	00379793          	slli	a5,a5,0x3
8000cf40:	00f687b3          	add	a5,a3,a5
8000cf44:	00e79223          	sh	a4,4(a5)
8000cf48:	fee41783          	lh	a5,-18(s0)
8000cf4c:	fdc42703          	lw	a4,-36(s0)
8000cf50:	01071713          	slli	a4,a4,0x10
8000cf54:	41075713          	srai	a4,a4,0x10
8000cf58:	800176b7          	lui	a3,0x80017
8000cf5c:	e9c68693          	addi	a3,a3,-356 # 80016e9c <queuetab>
8000cf60:	00379793          	slli	a5,a5,0x3
8000cf64:	00f687b3          	add	a5,a3,a5
8000cf68:	00e79323          	sh	a4,6(a5)
8000cf6c:	fdc42783          	lw	a5,-36(s0)
8000cf70:	00078513          	mv	a0,a5
8000cf74:	02c12403          	lw	s0,44(sp)
8000cf78:	03010113          	addi	sp,sp,48
8000cf7c:	00008067          	ret

8000cf80 <dequeue>:
8000cf80:	fd010113          	addi	sp,sp,-48
8000cf84:	02112623          	sw	ra,44(sp)
8000cf88:	02812423          	sw	s0,40(sp)
8000cf8c:	03010413          	addi	s0,sp,48
8000cf90:	00050793          	mv	a5,a0
8000cf94:	fcf41f23          	sh	a5,-34(s0)
8000cf98:	fde41703          	lh	a4,-34(s0)
8000cf9c:	00900793          	li	a5,9
8000cfa0:	00e7d863          	bge	a5,a4,8000cfb0 <dequeue+0x30>
8000cfa4:	fde41703          	lh	a4,-34(s0)
8000cfa8:	02000793          	li	a5,32
8000cfac:	00e7d663          	bge	a5,a4,8000cfb8 <dequeue+0x38>
8000cfb0:	fff00793          	li	a5,-1
8000cfb4:	0780006f          	j	8000d02c <dequeue+0xac>
8000cfb8:	fde41783          	lh	a5,-34(s0)
8000cfbc:	80017737          	lui	a4,0x80017
8000cfc0:	e9c70713          	addi	a4,a4,-356 # 80016e9c <queuetab>
8000cfc4:	00379793          	slli	a5,a5,0x3
8000cfc8:	00f707b3          	add	a5,a4,a5
8000cfcc:	00479703          	lh	a4,4(a5)
8000cfd0:	00900793          	li	a5,9
8000cfd4:	00e7d663          	bge	a5,a4,8000cfe0 <dequeue+0x60>
8000cfd8:	fff00793          	li	a5,-1
8000cfdc:	0500006f          	j	8000d02c <dequeue+0xac>
8000cfe0:	fde41783          	lh	a5,-34(s0)
8000cfe4:	00078513          	mv	a0,a5
8000cfe8:	058000ef          	jal	8000d040 <getfirst>
8000cfec:	fea42623          	sw	a0,-20(s0)
8000cff0:	800177b7          	lui	a5,0x80017
8000cff4:	e9c78713          	addi	a4,a5,-356 # 80016e9c <queuetab>
8000cff8:	fec42783          	lw	a5,-20(s0)
8000cffc:	00379793          	slli	a5,a5,0x3
8000d000:	00f707b3          	add	a5,a4,a5
8000d004:	fff00713          	li	a4,-1
8000d008:	00e79323          	sh	a4,6(a5)
8000d00c:	800177b7          	lui	a5,0x80017
8000d010:	e9c78713          	addi	a4,a5,-356 # 80016e9c <queuetab>
8000d014:	fec42783          	lw	a5,-20(s0)
8000d018:	00379793          	slli	a5,a5,0x3
8000d01c:	00f707b3          	add	a5,a4,a5
8000d020:	fff00713          	li	a4,-1
8000d024:	00e79223          	sh	a4,4(a5)
8000d028:	fec42783          	lw	a5,-20(s0)
8000d02c:	00078513          	mv	a0,a5
8000d030:	02c12083          	lw	ra,44(sp)
8000d034:	02812403          	lw	s0,40(sp)
8000d038:	03010113          	addi	sp,sp,48
8000d03c:	00008067          	ret

8000d040 <getfirst>:
8000d040:	fd010113          	addi	sp,sp,-48
8000d044:	02112623          	sw	ra,44(sp)
8000d048:	02812423          	sw	s0,40(sp)
8000d04c:	03010413          	addi	s0,sp,48
8000d050:	00050793          	mv	a5,a0
8000d054:	fcf41f23          	sh	a5,-34(s0)
8000d058:	fde41783          	lh	a5,-34(s0)
8000d05c:	80017737          	lui	a4,0x80017
8000d060:	e9c70713          	addi	a4,a4,-356 # 80016e9c <queuetab>
8000d064:	00379793          	slli	a5,a5,0x3
8000d068:	00f707b3          	add	a5,a4,a5
8000d06c:	00479703          	lh	a4,4(a5)
8000d070:	00900793          	li	a5,9
8000d074:	00e7d663          	bge	a5,a4,8000d080 <getfirst+0x40>
8000d078:	fff00793          	li	a5,-1
8000d07c:	0300006f          	j	8000d0ac <getfirst+0x6c>
8000d080:	fde41783          	lh	a5,-34(s0)
8000d084:	fef42623          	sw	a5,-20(s0)
8000d088:	800177b7          	lui	a5,0x80017
8000d08c:	e9c78713          	addi	a4,a5,-356 # 80016e9c <queuetab>
8000d090:	fec42783          	lw	a5,-20(s0)
8000d094:	00379793          	slli	a5,a5,0x3
8000d098:	00f707b3          	add	a5,a4,a5
8000d09c:	00479783          	lh	a5,4(a5)
8000d0a0:	00078513          	mv	a0,a5
8000d0a4:	0a0000ef          	jal	8000d144 <getitem>
8000d0a8:	00050793          	mv	a5,a0
8000d0ac:	00078513          	mv	a0,a5
8000d0b0:	02c12083          	lw	ra,44(sp)
8000d0b4:	02812403          	lw	s0,40(sp)
8000d0b8:	03010113          	addi	sp,sp,48
8000d0bc:	00008067          	ret

8000d0c0 <getlast>:
8000d0c0:	fd010113          	addi	sp,sp,-48
8000d0c4:	02112623          	sw	ra,44(sp)
8000d0c8:	02812423          	sw	s0,40(sp)
8000d0cc:	03010413          	addi	s0,sp,48
8000d0d0:	00050793          	mv	a5,a0
8000d0d4:	fcf41f23          	sh	a5,-34(s0)
8000d0d8:	fde41783          	lh	a5,-34(s0)
8000d0dc:	80017737          	lui	a4,0x80017
8000d0e0:	e9c70713          	addi	a4,a4,-356 # 80016e9c <queuetab>
8000d0e4:	00379793          	slli	a5,a5,0x3
8000d0e8:	00f707b3          	add	a5,a4,a5
8000d0ec:	00479703          	lh	a4,4(a5)
8000d0f0:	00900793          	li	a5,9
8000d0f4:	00e7d663          	bge	a5,a4,8000d100 <getlast+0x40>
8000d0f8:	fff00793          	li	a5,-1
8000d0fc:	0340006f          	j	8000d130 <getlast+0x70>
8000d100:	fde41783          	lh	a5,-34(s0)
8000d104:	00178793          	addi	a5,a5,1
8000d108:	fef42623          	sw	a5,-20(s0)
8000d10c:	800177b7          	lui	a5,0x80017
8000d110:	e9c78713          	addi	a4,a5,-356 # 80016e9c <queuetab>
8000d114:	fec42783          	lw	a5,-20(s0)
8000d118:	00379793          	slli	a5,a5,0x3
8000d11c:	00f707b3          	add	a5,a4,a5
8000d120:	00679783          	lh	a5,6(a5)
8000d124:	00078513          	mv	a0,a5
8000d128:	01c000ef          	jal	8000d144 <getitem>
8000d12c:	00050793          	mv	a5,a0
8000d130:	00078513          	mv	a0,a5
8000d134:	02c12083          	lw	ra,44(sp)
8000d138:	02812403          	lw	s0,40(sp)
8000d13c:	03010113          	addi	sp,sp,48
8000d140:	00008067          	ret

8000d144 <getitem>:
8000d144:	fd010113          	addi	sp,sp,-48
8000d148:	02812623          	sw	s0,44(sp)
8000d14c:	03010413          	addi	s0,sp,48
8000d150:	fca42e23          	sw	a0,-36(s0)
8000d154:	800177b7          	lui	a5,0x80017
8000d158:	e9c78713          	addi	a4,a5,-356 # 80016e9c <queuetab>
8000d15c:	fdc42783          	lw	a5,-36(s0)
8000d160:	00379793          	slli	a5,a5,0x3
8000d164:	00f707b3          	add	a5,a4,a5
8000d168:	00479783          	lh	a5,4(a5)
8000d16c:	fef42623          	sw	a5,-20(s0)
8000d170:	800177b7          	lui	a5,0x80017
8000d174:	e9c78713          	addi	a4,a5,-356 # 80016e9c <queuetab>
8000d178:	fdc42783          	lw	a5,-36(s0)
8000d17c:	00379793          	slli	a5,a5,0x3
8000d180:	00f707b3          	add	a5,a4,a5
8000d184:	00679783          	lh	a5,6(a5)
8000d188:	fef42423          	sw	a5,-24(s0)
8000d18c:	fec42783          	lw	a5,-20(s0)
8000d190:	01079713          	slli	a4,a5,0x10
8000d194:	41075713          	srai	a4,a4,0x10
8000d198:	800177b7          	lui	a5,0x80017
8000d19c:	e9c78693          	addi	a3,a5,-356 # 80016e9c <queuetab>
8000d1a0:	fe842783          	lw	a5,-24(s0)
8000d1a4:	00379793          	slli	a5,a5,0x3
8000d1a8:	00f687b3          	add	a5,a3,a5
8000d1ac:	00e79223          	sh	a4,4(a5)
8000d1b0:	fe842783          	lw	a5,-24(s0)
8000d1b4:	01079713          	slli	a4,a5,0x10
8000d1b8:	41075713          	srai	a4,a4,0x10
8000d1bc:	800177b7          	lui	a5,0x80017
8000d1c0:	e9c78693          	addi	a3,a5,-356 # 80016e9c <queuetab>
8000d1c4:	fec42783          	lw	a5,-20(s0)
8000d1c8:	00379793          	slli	a5,a5,0x3
8000d1cc:	00f687b3          	add	a5,a3,a5
8000d1d0:	00e79323          	sh	a4,6(a5)
8000d1d4:	fdc42783          	lw	a5,-36(s0)
8000d1d8:	00078513          	mv	a0,a5
8000d1dc:	02c12403          	lw	s0,44(sp)
8000d1e0:	03010113          	addi	sp,sp,48
8000d1e4:	00008067          	ret

8000d1e8 <insert>:
8000d1e8:	fd010113          	addi	sp,sp,-48
8000d1ec:	02812623          	sw	s0,44(sp)
8000d1f0:	03010413          	addi	s0,sp,48
8000d1f4:	fca42e23          	sw	a0,-36(s0)
8000d1f8:	00058793          	mv	a5,a1
8000d1fc:	fcc42a23          	sw	a2,-44(s0)
8000d200:	fcf41d23          	sh	a5,-38(s0)
8000d204:	fda41703          	lh	a4,-38(s0)
8000d208:	00900793          	li	a5,9
8000d20c:	04e7d263          	bge	a5,a4,8000d250 <insert+0x68>
8000d210:	fda41703          	lh	a4,-38(s0)
8000d214:	02000793          	li	a5,32
8000d218:	02e7cc63          	blt	a5,a4,8000d250 <insert+0x68>
8000d21c:	fdc42783          	lw	a5,-36(s0)
8000d220:	0207c863          	bltz	a5,8000d250 <insert+0x68>
8000d224:	fdc42703          	lw	a4,-36(s0)
8000d228:	00900793          	li	a5,9
8000d22c:	02e7c263          	blt	a5,a4,8000d250 <insert+0x68>
8000d230:	800177b7          	lui	a5,0x80017
8000d234:	a3c78713          	addi	a4,a5,-1476 # 80016a3c <proctab>
8000d238:	fdc42683          	lw	a3,-36(s0)
8000d23c:	06400793          	li	a5,100
8000d240:	02f687b3          	mul	a5,a3,a5
8000d244:	00f707b3          	add	a5,a4,a5
8000d248:	0007d783          	lhu	a5,0(a5)
8000d24c:	00079663          	bnez	a5,8000d258 <insert+0x70>
8000d250:	fff00793          	li	a5,-1
8000d254:	11c0006f          	j	8000d370 <insert+0x188>
8000d258:	fda41783          	lh	a5,-38(s0)
8000d25c:	80017737          	lui	a4,0x80017
8000d260:	e9c70713          	addi	a4,a4,-356 # 80016e9c <queuetab>
8000d264:	00379793          	slli	a5,a5,0x3
8000d268:	00f707b3          	add	a5,a4,a5
8000d26c:	0047d783          	lhu	a5,4(a5)
8000d270:	fef41723          	sh	a5,-18(s0)
8000d274:	0200006f          	j	8000d294 <insert+0xac>
8000d278:	fee41783          	lh	a5,-18(s0)
8000d27c:	80017737          	lui	a4,0x80017
8000d280:	e9c70713          	addi	a4,a4,-356 # 80016e9c <queuetab>
8000d284:	00379793          	slli	a5,a5,0x3
8000d288:	00f707b3          	add	a5,a4,a5
8000d28c:	0047d783          	lhu	a5,4(a5)
8000d290:	fef41723          	sh	a5,-18(s0)
8000d294:	fee41783          	lh	a5,-18(s0)
8000d298:	80017737          	lui	a4,0x80017
8000d29c:	e9c70713          	addi	a4,a4,-356 # 80016e9c <queuetab>
8000d2a0:	00379793          	slli	a5,a5,0x3
8000d2a4:	00f707b3          	add	a5,a4,a5
8000d2a8:	0007a783          	lw	a5,0(a5)
8000d2ac:	fd442703          	lw	a4,-44(s0)
8000d2b0:	fce7d4e3          	bge	a5,a4,8000d278 <insert+0x90>
8000d2b4:	fee41783          	lh	a5,-18(s0)
8000d2b8:	80017737          	lui	a4,0x80017
8000d2bc:	e9c70713          	addi	a4,a4,-356 # 80016e9c <queuetab>
8000d2c0:	00379793          	slli	a5,a5,0x3
8000d2c4:	00f707b3          	add	a5,a4,a5
8000d2c8:	0067d783          	lhu	a5,6(a5)
8000d2cc:	fef41623          	sh	a5,-20(s0)
8000d2d0:	800177b7          	lui	a5,0x80017
8000d2d4:	e9c78713          	addi	a4,a5,-356 # 80016e9c <queuetab>
8000d2d8:	fdc42783          	lw	a5,-36(s0)
8000d2dc:	00379793          	slli	a5,a5,0x3
8000d2e0:	00f707b3          	add	a5,a4,a5
8000d2e4:	fee45703          	lhu	a4,-18(s0)
8000d2e8:	00e79223          	sh	a4,4(a5)
8000d2ec:	800177b7          	lui	a5,0x80017
8000d2f0:	e9c78713          	addi	a4,a5,-356 # 80016e9c <queuetab>
8000d2f4:	fdc42783          	lw	a5,-36(s0)
8000d2f8:	00379793          	slli	a5,a5,0x3
8000d2fc:	00f707b3          	add	a5,a4,a5
8000d300:	fec45703          	lhu	a4,-20(s0)
8000d304:	00e79323          	sh	a4,6(a5)
8000d308:	800177b7          	lui	a5,0x80017
8000d30c:	e9c78713          	addi	a4,a5,-356 # 80016e9c <queuetab>
8000d310:	fdc42783          	lw	a5,-36(s0)
8000d314:	00379793          	slli	a5,a5,0x3
8000d318:	00f707b3          	add	a5,a4,a5
8000d31c:	fd442703          	lw	a4,-44(s0)
8000d320:	00e7a023          	sw	a4,0(a5)
8000d324:	fec41783          	lh	a5,-20(s0)
8000d328:	fdc42703          	lw	a4,-36(s0)
8000d32c:	01071713          	slli	a4,a4,0x10
8000d330:	41075713          	srai	a4,a4,0x10
8000d334:	800176b7          	lui	a3,0x80017
8000d338:	e9c68693          	addi	a3,a3,-356 # 80016e9c <queuetab>
8000d33c:	00379793          	slli	a5,a5,0x3
8000d340:	00f687b3          	add	a5,a3,a5
8000d344:	00e79223          	sh	a4,4(a5)
8000d348:	fee41783          	lh	a5,-18(s0)
8000d34c:	fdc42703          	lw	a4,-36(s0)
8000d350:	01071713          	slli	a4,a4,0x10
8000d354:	41075713          	srai	a4,a4,0x10
8000d358:	800176b7          	lui	a3,0x80017
8000d35c:	e9c68693          	addi	a3,a3,-356 # 80016e9c <queuetab>
8000d360:	00379793          	slli	a5,a5,0x3
8000d364:	00f687b3          	add	a5,a3,a5
8000d368:	00e79323          	sh	a4,6(a5)
8000d36c:	00100793          	li	a5,1
8000d370:	00078513          	mv	a0,a5
8000d374:	02c12403          	lw	s0,44(sp)
8000d378:	03010113          	addi	sp,sp,48
8000d37c:	00008067          	ret

8000d380 <insertd>:
8000d380:	fd010113          	addi	sp,sp,-48
8000d384:	02812623          	sw	s0,44(sp)
8000d388:	03010413          	addi	s0,sp,48
8000d38c:	fca42e23          	sw	a0,-36(s0)
8000d390:	00058793          	mv	a5,a1
8000d394:	fcc42a23          	sw	a2,-44(s0)
8000d398:	fcf41d23          	sh	a5,-38(s0)
8000d39c:	fda41703          	lh	a4,-38(s0)
8000d3a0:	00900793          	li	a5,9
8000d3a4:	04e7d263          	bge	a5,a4,8000d3e8 <insertd+0x68>
8000d3a8:	fda41703          	lh	a4,-38(s0)
8000d3ac:	02000793          	li	a5,32
8000d3b0:	02e7cc63          	blt	a5,a4,8000d3e8 <insertd+0x68>
8000d3b4:	fdc42783          	lw	a5,-36(s0)
8000d3b8:	0207c863          	bltz	a5,8000d3e8 <insertd+0x68>
8000d3bc:	fdc42703          	lw	a4,-36(s0)
8000d3c0:	00900793          	li	a5,9
8000d3c4:	02e7c263          	blt	a5,a4,8000d3e8 <insertd+0x68>
8000d3c8:	800177b7          	lui	a5,0x80017
8000d3cc:	a3c78713          	addi	a4,a5,-1476 # 80016a3c <proctab>
8000d3d0:	fdc42683          	lw	a3,-36(s0)
8000d3d4:	06400793          	li	a5,100
8000d3d8:	02f687b3          	mul	a5,a3,a5
8000d3dc:	00f707b3          	add	a5,a4,a5
8000d3e0:	0007d783          	lhu	a5,0(a5)
8000d3e4:	00079663          	bnez	a5,8000d3f0 <insertd+0x70>
8000d3e8:	fff00793          	li	a5,-1
8000d3ec:	19c0006f          	j	8000d588 <insertd+0x208>
8000d3f0:	fda41783          	lh	a5,-38(s0)
8000d3f4:	fef42423          	sw	a5,-24(s0)
8000d3f8:	fda41783          	lh	a5,-38(s0)
8000d3fc:	80017737          	lui	a4,0x80017
8000d400:	e9c70713          	addi	a4,a4,-356 # 80016e9c <queuetab>
8000d404:	00379793          	slli	a5,a5,0x3
8000d408:	00f707b3          	add	a5,a4,a5
8000d40c:	00479783          	lh	a5,4(a5)
8000d410:	fef42623          	sw	a5,-20(s0)
8000d414:	04c0006f          	j	8000d460 <insertd+0xe0>
8000d418:	800177b7          	lui	a5,0x80017
8000d41c:	e9c78713          	addi	a4,a5,-356 # 80016e9c <queuetab>
8000d420:	fec42783          	lw	a5,-20(s0)
8000d424:	00379793          	slli	a5,a5,0x3
8000d428:	00f707b3          	add	a5,a4,a5
8000d42c:	0007a783          	lw	a5,0(a5)
8000d430:	fd442703          	lw	a4,-44(s0)
8000d434:	40f707b3          	sub	a5,a4,a5
8000d438:	fcf42a23          	sw	a5,-44(s0)
8000d43c:	fec42783          	lw	a5,-20(s0)
8000d440:	fef42423          	sw	a5,-24(s0)
8000d444:	800177b7          	lui	a5,0x80017
8000d448:	e9c78713          	addi	a4,a5,-356 # 80016e9c <queuetab>
8000d44c:	fec42783          	lw	a5,-20(s0)
8000d450:	00379793          	slli	a5,a5,0x3
8000d454:	00f707b3          	add	a5,a4,a5
8000d458:	00479783          	lh	a5,4(a5)
8000d45c:	fef42623          	sw	a5,-20(s0)
8000d460:	fda41783          	lh	a5,-38(s0)
8000d464:	00178793          	addi	a5,a5,1
8000d468:	fec42703          	lw	a4,-20(s0)
8000d46c:	02f70263          	beq	a4,a5,8000d490 <insertd+0x110>
8000d470:	800177b7          	lui	a5,0x80017
8000d474:	e9c78713          	addi	a4,a5,-356 # 80016e9c <queuetab>
8000d478:	fec42783          	lw	a5,-20(s0)
8000d47c:	00379793          	slli	a5,a5,0x3
8000d480:	00f707b3          	add	a5,a4,a5
8000d484:	0007a783          	lw	a5,0(a5)
8000d488:	fd442703          	lw	a4,-44(s0)
8000d48c:	f8f756e3          	bge	a4,a5,8000d418 <insertd+0x98>
8000d490:	fec42783          	lw	a5,-20(s0)
8000d494:	01079713          	slli	a4,a5,0x10
8000d498:	41075713          	srai	a4,a4,0x10
8000d49c:	800177b7          	lui	a5,0x80017
8000d4a0:	e9c78693          	addi	a3,a5,-356 # 80016e9c <queuetab>
8000d4a4:	fdc42783          	lw	a5,-36(s0)
8000d4a8:	00379793          	slli	a5,a5,0x3
8000d4ac:	00f687b3          	add	a5,a3,a5
8000d4b0:	00e79223          	sh	a4,4(a5)
8000d4b4:	fe842783          	lw	a5,-24(s0)
8000d4b8:	01079713          	slli	a4,a5,0x10
8000d4bc:	41075713          	srai	a4,a4,0x10
8000d4c0:	800177b7          	lui	a5,0x80017
8000d4c4:	e9c78693          	addi	a3,a5,-356 # 80016e9c <queuetab>
8000d4c8:	fdc42783          	lw	a5,-36(s0)
8000d4cc:	00379793          	slli	a5,a5,0x3
8000d4d0:	00f687b3          	add	a5,a3,a5
8000d4d4:	00e79323          	sh	a4,6(a5)
8000d4d8:	800177b7          	lui	a5,0x80017
8000d4dc:	e9c78713          	addi	a4,a5,-356 # 80016e9c <queuetab>
8000d4e0:	fdc42783          	lw	a5,-36(s0)
8000d4e4:	00379793          	slli	a5,a5,0x3
8000d4e8:	00f707b3          	add	a5,a4,a5
8000d4ec:	fd442703          	lw	a4,-44(s0)
8000d4f0:	00e7a023          	sw	a4,0(a5)
8000d4f4:	fdc42783          	lw	a5,-36(s0)
8000d4f8:	01079713          	slli	a4,a5,0x10
8000d4fc:	41075713          	srai	a4,a4,0x10
8000d500:	800177b7          	lui	a5,0x80017
8000d504:	e9c78693          	addi	a3,a5,-356 # 80016e9c <queuetab>
8000d508:	fe842783          	lw	a5,-24(s0)
8000d50c:	00379793          	slli	a5,a5,0x3
8000d510:	00f687b3          	add	a5,a3,a5
8000d514:	00e79223          	sh	a4,4(a5)
8000d518:	fdc42783          	lw	a5,-36(s0)
8000d51c:	01079713          	slli	a4,a5,0x10
8000d520:	41075713          	srai	a4,a4,0x10
8000d524:	800177b7          	lui	a5,0x80017
8000d528:	e9c78693          	addi	a3,a5,-356 # 80016e9c <queuetab>
8000d52c:	fec42783          	lw	a5,-20(s0)
8000d530:	00379793          	slli	a5,a5,0x3
8000d534:	00f687b3          	add	a5,a3,a5
8000d538:	00e79323          	sh	a4,6(a5)
8000d53c:	fda41783          	lh	a5,-38(s0)
8000d540:	00178793          	addi	a5,a5,1
8000d544:	fec42703          	lw	a4,-20(s0)
8000d548:	02f70e63          	beq	a4,a5,8000d584 <insertd+0x204>
8000d54c:	800177b7          	lui	a5,0x80017
8000d550:	e9c78713          	addi	a4,a5,-356 # 80016e9c <queuetab>
8000d554:	fec42783          	lw	a5,-20(s0)
8000d558:	00379793          	slli	a5,a5,0x3
8000d55c:	00f707b3          	add	a5,a4,a5
8000d560:	0007a703          	lw	a4,0(a5)
8000d564:	fd442783          	lw	a5,-44(s0)
8000d568:	40f70733          	sub	a4,a4,a5
8000d56c:	800177b7          	lui	a5,0x80017
8000d570:	e9c78693          	addi	a3,a5,-356 # 80016e9c <queuetab>
8000d574:	fec42783          	lw	a5,-20(s0)
8000d578:	00379793          	slli	a5,a5,0x3
8000d57c:	00f687b3          	add	a5,a3,a5
8000d580:	00e7a023          	sw	a4,0(a5)
8000d584:	00100793          	li	a5,1
8000d588:	00078513          	mv	a0,a5
8000d58c:	02c12403          	lw	s0,44(sp)
8000d590:	03010113          	addi	sp,sp,48
8000d594:	00008067          	ret

8000d598 <newqueue>:
8000d598:	fe010113          	addi	sp,sp,-32
8000d59c:	00812e23          	sw	s0,28(sp)
8000d5a0:	02010413          	addi	s0,sp,32
8000d5a4:	800177b7          	lui	a5,0x80017
8000d5a8:	9b07d783          	lhu	a5,-1616(a5) # 800169b0 <nextqid.0>
8000d5ac:	fef41723          	sh	a5,-18(s0)
8000d5b0:	fee41703          	lh	a4,-18(s0)
8000d5b4:	02100793          	li	a5,33
8000d5b8:	00e7d663          	bge	a5,a4,8000d5c4 <newqueue+0x2c>
8000d5bc:	fff00793          	li	a5,-1
8000d5c0:	1000006f          	j	8000d6c0 <newqueue+0x128>
8000d5c4:	800177b7          	lui	a5,0x80017
8000d5c8:	9b079783          	lh	a5,-1616(a5) # 800169b0 <nextqid.0>
8000d5cc:	01079793          	slli	a5,a5,0x10
8000d5d0:	0107d793          	srli	a5,a5,0x10
8000d5d4:	00278793          	addi	a5,a5,2
8000d5d8:	01079793          	slli	a5,a5,0x10
8000d5dc:	0107d793          	srli	a5,a5,0x10
8000d5e0:	01079713          	slli	a4,a5,0x10
8000d5e4:	41075713          	srai	a4,a4,0x10
8000d5e8:	800177b7          	lui	a5,0x80017
8000d5ec:	9ae79823          	sh	a4,-1616(a5) # 800169b0 <nextqid.0>
8000d5f0:	fee45783          	lhu	a5,-18(s0)
8000d5f4:	00178793          	addi	a5,a5,1
8000d5f8:	01079713          	slli	a4,a5,0x10
8000d5fc:	01075713          	srli	a4,a4,0x10
8000d600:	fee41783          	lh	a5,-18(s0)
8000d604:	01071713          	slli	a4,a4,0x10
8000d608:	41075713          	srai	a4,a4,0x10
8000d60c:	800176b7          	lui	a3,0x80017
8000d610:	e9c68693          	addi	a3,a3,-356 # 80016e9c <queuetab>
8000d614:	00379793          	slli	a5,a5,0x3
8000d618:	00f687b3          	add	a5,a3,a5
8000d61c:	00e79223          	sh	a4,4(a5)
8000d620:	fee41783          	lh	a5,-18(s0)
8000d624:	80017737          	lui	a4,0x80017
8000d628:	e9c70713          	addi	a4,a4,-356 # 80016e9c <queuetab>
8000d62c:	00379793          	slli	a5,a5,0x3
8000d630:	00f707b3          	add	a5,a4,a5
8000d634:	fff00713          	li	a4,-1
8000d638:	00e79323          	sh	a4,6(a5)
8000d63c:	fee41783          	lh	a5,-18(s0)
8000d640:	80017737          	lui	a4,0x80017
8000d644:	e9c70713          	addi	a4,a4,-356 # 80016e9c <queuetab>
8000d648:	00379793          	slli	a5,a5,0x3
8000d64c:	00f707b3          	add	a5,a4,a5
8000d650:	80000737          	lui	a4,0x80000
8000d654:	fff70713          	addi	a4,a4,-1 # 7fffffff <_start-0x1>
8000d658:	00e7a023          	sw	a4,0(a5)
8000d65c:	fee41783          	lh	a5,-18(s0)
8000d660:	00178793          	addi	a5,a5,1
8000d664:	80017737          	lui	a4,0x80017
8000d668:	e9c70713          	addi	a4,a4,-356 # 80016e9c <queuetab>
8000d66c:	00379793          	slli	a5,a5,0x3
8000d670:	00f707b3          	add	a5,a4,a5
8000d674:	fff00713          	li	a4,-1
8000d678:	00e79223          	sh	a4,4(a5)
8000d67c:	fee41783          	lh	a5,-18(s0)
8000d680:	00178793          	addi	a5,a5,1
8000d684:	80017737          	lui	a4,0x80017
8000d688:	e9c70713          	addi	a4,a4,-356 # 80016e9c <queuetab>
8000d68c:	00379793          	slli	a5,a5,0x3
8000d690:	00f707b3          	add	a5,a4,a5
8000d694:	fee45703          	lhu	a4,-18(s0)
8000d698:	00e79323          	sh	a4,6(a5)
8000d69c:	fee41783          	lh	a5,-18(s0)
8000d6a0:	00178793          	addi	a5,a5,1
8000d6a4:	80017737          	lui	a4,0x80017
8000d6a8:	e9c70713          	addi	a4,a4,-356 # 80016e9c <queuetab>
8000d6ac:	00379793          	slli	a5,a5,0x3
8000d6b0:	00f707b3          	add	a5,a4,a5
8000d6b4:	80000737          	lui	a4,0x80000
8000d6b8:	00e7a023          	sw	a4,0(a5)
8000d6bc:	fee41783          	lh	a5,-18(s0)
8000d6c0:	00078513          	mv	a0,a5
8000d6c4:	01c12403          	lw	s0,28(sp)
8000d6c8:	02010113          	addi	sp,sp,32
8000d6cc:	00008067          	ret

8000d6d0 <context_irq_enable>:
8000d6d0:	fe010113          	addi	sp,sp,-32
8000d6d4:	00812e23          	sw	s0,28(sp)
8000d6d8:	02010413          	addi	s0,sp,32
8000d6dc:	fea42623          	sw	a0,-20(s0)
8000d6e0:	feb42423          	sw	a1,-24(s0)
8000d6e4:	fec42783          	lw	a5,-20(s0)
8000d6e8:	0047a783          	lw	a5,4(a5)
8000d6ec:	f7f7f713          	andi	a4,a5,-129
8000d6f0:	fec42783          	lw	a5,-20(s0)
8000d6f4:	00e7a223          	sw	a4,4(a5)
8000d6f8:	fec42783          	lw	a5,-20(s0)
8000d6fc:	0047a703          	lw	a4,4(a5)
8000d700:	fe842783          	lw	a5,-24(s0)
8000d704:	00078663          	beqz	a5,8000d710 <context_irq_enable+0x40>
8000d708:	08000793          	li	a5,128
8000d70c:	0080006f          	j	8000d714 <context_irq_enable+0x44>
8000d710:	00000793          	li	a5,0
8000d714:	00e7e733          	or	a4,a5,a4
8000d718:	fec42783          	lw	a5,-20(s0)
8000d71c:	00e7a223          	sw	a4,4(a5)
8000d720:	00000013          	nop
8000d724:	01c12403          	lw	s0,28(sp)
8000d728:	02010113          	addi	sp,sp,32
8000d72c:	00008067          	ret

8000d730 <timer_diff>:
8000d730:	fe010113          	addi	sp,sp,-32
8000d734:	00812e23          	sw	s0,28(sp)
8000d738:	02010413          	addi	s0,sp,32
8000d73c:	fea42623          	sw	a0,-20(s0)
8000d740:	feb42423          	sw	a1,-24(s0)
8000d744:	fec42703          	lw	a4,-20(s0)
8000d748:	fe842783          	lw	a5,-24(s0)
8000d74c:	40f707b3          	sub	a5,a4,a5
8000d750:	00078513          	mv	a0,a5
8000d754:	01c12403          	lw	s0,28(sp)
8000d758:	02010113          	addi	sp,sp,32
8000d75c:	00008067          	ret

8000d760 <semcreate>:
8000d760:	fd010113          	addi	sp,sp,-48
8000d764:	02112623          	sw	ra,44(sp)
8000d768:	02812423          	sw	s0,40(sp)
8000d76c:	03010413          	addi	s0,sp,48
8000d770:	fca42e23          	sw	a0,-36(s0)
8000d774:	b19f20ef          	jal	8000028c <disable>
8000d778:	fea42623          	sw	a0,-20(s0)
8000d77c:	fdc42783          	lw	a5,-36(s0)
8000d780:	0007cc63          	bltz	a5,8000d798 <semcreate+0x38>
8000d784:	06c000ef          	jal	8000d7f0 <newsem>
8000d788:	fea42423          	sw	a0,-24(s0)
8000d78c:	fe842703          	lw	a4,-24(s0)
8000d790:	fff00793          	li	a5,-1
8000d794:	00f71a63          	bne	a4,a5,8000d7a8 <semcreate+0x48>
8000d798:	fec42503          	lw	a0,-20(s0)
8000d79c:	af9f20ef          	jal	80000294 <restore>
8000d7a0:	fff00793          	li	a5,-1
8000d7a4:	0380006f          	j	8000d7dc <semcreate+0x7c>
8000d7a8:	800177b7          	lui	a5,0x80017
8000d7ac:	e2478693          	addi	a3,a5,-476 # 80016e24 <semtab>
8000d7b0:	fe842703          	lw	a4,-24(s0)
8000d7b4:	00070793          	mv	a5,a4
8000d7b8:	00179793          	slli	a5,a5,0x1
8000d7bc:	00e787b3          	add	a5,a5,a4
8000d7c0:	00279793          	slli	a5,a5,0x2
8000d7c4:	00f687b3          	add	a5,a3,a5
8000d7c8:	fdc42703          	lw	a4,-36(s0)
8000d7cc:	00e7a223          	sw	a4,4(a5)
8000d7d0:	fec42503          	lw	a0,-20(s0)
8000d7d4:	ac1f20ef          	jal	80000294 <restore>
8000d7d8:	fe842783          	lw	a5,-24(s0)
8000d7dc:	00078513          	mv	a0,a5
8000d7e0:	02c12083          	lw	ra,44(sp)
8000d7e4:	02812403          	lw	s0,40(sp)
8000d7e8:	03010113          	addi	sp,sp,48
8000d7ec:	00008067          	ret

8000d7f0 <newsem>:
8000d7f0:	fe010113          	addi	sp,sp,-32
8000d7f4:	00812e23          	sw	s0,28(sp)
8000d7f8:	02010413          	addi	s0,sp,32
8000d7fc:	fe042623          	sw	zero,-20(s0)
8000d800:	0980006f          	j	8000d898 <newsem+0xa8>
8000d804:	800177b7          	lui	a5,0x80017
8000d808:	fac7a783          	lw	a5,-84(a5) # 80016fac <nextsem.0>
8000d80c:	00178693          	addi	a3,a5,1
8000d810:	80017737          	lui	a4,0x80017
8000d814:	fad72623          	sw	a3,-84(a4) # 80016fac <nextsem.0>
8000d818:	fef42423          	sw	a5,-24(s0)
8000d81c:	800177b7          	lui	a5,0x80017
8000d820:	fac7a703          	lw	a4,-84(a5) # 80016fac <nextsem.0>
8000d824:	00900793          	li	a5,9
8000d828:	00e7d663          	bge	a5,a4,8000d834 <newsem+0x44>
8000d82c:	800177b7          	lui	a5,0x80017
8000d830:	fa07a623          	sw	zero,-84(a5) # 80016fac <nextsem.0>
8000d834:	800177b7          	lui	a5,0x80017
8000d838:	e2478693          	addi	a3,a5,-476 # 80016e24 <semtab>
8000d83c:	fe842703          	lw	a4,-24(s0)
8000d840:	00070793          	mv	a5,a4
8000d844:	00179793          	slli	a5,a5,0x1
8000d848:	00e787b3          	add	a5,a5,a4
8000d84c:	00279793          	slli	a5,a5,0x2
8000d850:	00f687b3          	add	a5,a3,a5
8000d854:	0007c783          	lbu	a5,0(a5)
8000d858:	02079a63          	bnez	a5,8000d88c <newsem+0x9c>
8000d85c:	800177b7          	lui	a5,0x80017
8000d860:	e2478693          	addi	a3,a5,-476 # 80016e24 <semtab>
8000d864:	fe842703          	lw	a4,-24(s0)
8000d868:	00070793          	mv	a5,a4
8000d86c:	00179793          	slli	a5,a5,0x1
8000d870:	00e787b3          	add	a5,a5,a4
8000d874:	00279793          	slli	a5,a5,0x2
8000d878:	00f687b3          	add	a5,a3,a5
8000d87c:	00100713          	li	a4,1
8000d880:	00e78023          	sb	a4,0(a5)
8000d884:	fe842783          	lw	a5,-24(s0)
8000d888:	0200006f          	j	8000d8a8 <newsem+0xb8>
8000d88c:	fec42783          	lw	a5,-20(s0)
8000d890:	00178793          	addi	a5,a5,1
8000d894:	fef42623          	sw	a5,-20(s0)
8000d898:	fec42703          	lw	a4,-20(s0)
8000d89c:	00900793          	li	a5,9
8000d8a0:	f6e7d2e3          	bge	a5,a4,8000d804 <newsem+0x14>
8000d8a4:	fff00793          	li	a5,-1
8000d8a8:	00078513          	mv	a0,a5
8000d8ac:	01c12403          	lw	s0,28(sp)
8000d8b0:	02010113          	addi	sp,sp,32
8000d8b4:	00008067          	ret

8000d8b8 <semcount>:
8000d8b8:	fd010113          	addi	sp,sp,-48
8000d8bc:	02112623          	sw	ra,44(sp)
8000d8c0:	02812423          	sw	s0,40(sp)
8000d8c4:	03010413          	addi	s0,sp,48
8000d8c8:	fca42e23          	sw	a0,-36(s0)
8000d8cc:	9c1f20ef          	jal	8000028c <disable>
8000d8d0:	fea42623          	sw	a0,-20(s0)
8000d8d4:	fdc42783          	lw	a5,-36(s0)
8000d8d8:	0207cc63          	bltz	a5,8000d910 <semcount+0x58>
8000d8dc:	fdc42703          	lw	a4,-36(s0)
8000d8e0:	00900793          	li	a5,9
8000d8e4:	02e7c663          	blt	a5,a4,8000d910 <semcount+0x58>
8000d8e8:	800177b7          	lui	a5,0x80017
8000d8ec:	e2478693          	addi	a3,a5,-476 # 80016e24 <semtab>
8000d8f0:	fdc42703          	lw	a4,-36(s0)
8000d8f4:	00070793          	mv	a5,a4
8000d8f8:	00179793          	slli	a5,a5,0x1
8000d8fc:	00e787b3          	add	a5,a5,a4
8000d900:	00279793          	slli	a5,a5,0x2
8000d904:	00f687b3          	add	a5,a3,a5
8000d908:	0007c783          	lbu	a5,0(a5)
8000d90c:	00079a63          	bnez	a5,8000d920 <semcount+0x68>
8000d910:	fec42503          	lw	a0,-20(s0)
8000d914:	981f20ef          	jal	80000294 <restore>
8000d918:	fff00793          	li	a5,-1
8000d91c:	0380006f          	j	8000d954 <semcount+0x9c>
8000d920:	800177b7          	lui	a5,0x80017
8000d924:	e2478693          	addi	a3,a5,-476 # 80016e24 <semtab>
8000d928:	fdc42703          	lw	a4,-36(s0)
8000d92c:	00070793          	mv	a5,a4
8000d930:	00179793          	slli	a5,a5,0x1
8000d934:	00e787b3          	add	a5,a5,a4
8000d938:	00279793          	slli	a5,a5,0x2
8000d93c:	00f687b3          	add	a5,a3,a5
8000d940:	0047a783          	lw	a5,4(a5)
8000d944:	fef42423          	sw	a5,-24(s0)
8000d948:	fec42503          	lw	a0,-20(s0)
8000d94c:	949f20ef          	jal	80000294 <restore>
8000d950:	fe842783          	lw	a5,-24(s0)
8000d954:	00078513          	mv	a0,a5
8000d958:	02c12083          	lw	ra,44(sp)
8000d95c:	02812403          	lw	s0,40(sp)
8000d960:	03010113          	addi	sp,sp,48
8000d964:	00008067          	ret

8000d968 <semdelete>:
8000d968:	fd010113          	addi	sp,sp,-48
8000d96c:	02112623          	sw	ra,44(sp)
8000d970:	02812423          	sw	s0,40(sp)
8000d974:	03010413          	addi	s0,sp,48
8000d978:	fca42e23          	sw	a0,-36(s0)
8000d97c:	911f20ef          	jal	8000028c <disable>
8000d980:	fea42623          	sw	a0,-20(s0)
8000d984:	fdc42783          	lw	a5,-36(s0)
8000d988:	0007c863          	bltz	a5,8000d998 <semdelete+0x30>
8000d98c:	fdc42703          	lw	a4,-36(s0)
8000d990:	00900793          	li	a5,9
8000d994:	00e7da63          	bge	a5,a4,8000d9a8 <semdelete+0x40>
8000d998:	fec42503          	lw	a0,-20(s0)
8000d99c:	8f9f20ef          	jal	80000294 <restore>
8000d9a0:	fff00793          	li	a5,-1
8000d9a4:	0a00006f          	j	8000da44 <semdelete+0xdc>
8000d9a8:	fdc42703          	lw	a4,-36(s0)
8000d9ac:	00070793          	mv	a5,a4
8000d9b0:	00179793          	slli	a5,a5,0x1
8000d9b4:	00e787b3          	add	a5,a5,a4
8000d9b8:	00279793          	slli	a5,a5,0x2
8000d9bc:	80017737          	lui	a4,0x80017
8000d9c0:	e2470713          	addi	a4,a4,-476 # 80016e24 <semtab>
8000d9c4:	00e787b3          	add	a5,a5,a4
8000d9c8:	fef42423          	sw	a5,-24(s0)
8000d9cc:	fe842783          	lw	a5,-24(s0)
8000d9d0:	0007c783          	lbu	a5,0(a5)
8000d9d4:	00079a63          	bnez	a5,8000d9e8 <semdelete+0x80>
8000d9d8:	fec42503          	lw	a0,-20(s0)
8000d9dc:	8b9f20ef          	jal	80000294 <restore>
8000d9e0:	fff00793          	li	a5,-1
8000d9e4:	0600006f          	j	8000da44 <semdelete+0xdc>
8000d9e8:	fe842783          	lw	a5,-24(s0)
8000d9ec:	00078023          	sb	zero,0(a5)
8000d9f0:	00100513          	li	a0,1
8000d9f4:	a48fe0ef          	jal	8000bc3c <resched_cntl>
8000d9f8:	0200006f          	j	8000da18 <semdelete+0xb0>
8000d9fc:	fe842783          	lw	a5,-24(s0)
8000da00:	00879783          	lh	a5,8(a5)
8000da04:	00078513          	mv	a0,a5
8000da08:	e38ff0ef          	jal	8000d040 <getfirst>
8000da0c:	00050793          	mv	a5,a0
8000da10:	00078513          	mv	a0,a5
8000da14:	b04fe0ef          	jal	8000bd18 <ready>
8000da18:	fe842783          	lw	a5,-24(s0)
8000da1c:	0047a783          	lw	a5,4(a5)
8000da20:	00178693          	addi	a3,a5,1
8000da24:	fe842703          	lw	a4,-24(s0)
8000da28:	00d72223          	sw	a3,4(a4)
8000da2c:	fc07c8e3          	bltz	a5,8000d9fc <semdelete+0x94>
8000da30:	00200513          	li	a0,2
8000da34:	a08fe0ef          	jal	8000bc3c <resched_cntl>
8000da38:	fec42503          	lw	a0,-20(s0)
8000da3c:	859f20ef          	jal	80000294 <restore>
8000da40:	00100793          	li	a5,1
8000da44:	00078513          	mv	a0,a5
8000da48:	02c12083          	lw	ra,44(sp)
8000da4c:	02812403          	lw	s0,40(sp)
8000da50:	03010113          	addi	sp,sp,48
8000da54:	00008067          	ret

8000da58 <semreset>:
8000da58:	fd010113          	addi	sp,sp,-48
8000da5c:	02112623          	sw	ra,44(sp)
8000da60:	02812423          	sw	s0,40(sp)
8000da64:	03010413          	addi	s0,sp,48
8000da68:	fca42e23          	sw	a0,-36(s0)
8000da6c:	fcb42c23          	sw	a1,-40(s0)
8000da70:	81df20ef          	jal	8000028c <disable>
8000da74:	fea42623          	sw	a0,-20(s0)
8000da78:	fd842783          	lw	a5,-40(s0)
8000da7c:	0407c063          	bltz	a5,8000dabc <semreset+0x64>
8000da80:	fdc42783          	lw	a5,-36(s0)
8000da84:	0207cc63          	bltz	a5,8000dabc <semreset+0x64>
8000da88:	fdc42703          	lw	a4,-36(s0)
8000da8c:	00900793          	li	a5,9
8000da90:	02e7c663          	blt	a5,a4,8000dabc <semreset+0x64>
8000da94:	800177b7          	lui	a5,0x80017
8000da98:	e2478693          	addi	a3,a5,-476 # 80016e24 <semtab>
8000da9c:	fdc42703          	lw	a4,-36(s0)
8000daa0:	00070793          	mv	a5,a4
8000daa4:	00179793          	slli	a5,a5,0x1
8000daa8:	00e787b3          	add	a5,a5,a4
8000daac:	00279793          	slli	a5,a5,0x2
8000dab0:	00f687b3          	add	a5,a3,a5
8000dab4:	0007c783          	lbu	a5,0(a5)
8000dab8:	00079a63          	bnez	a5,8000dacc <semreset+0x74>
8000dabc:	fec42503          	lw	a0,-20(s0)
8000dac0:	fd4f20ef          	jal	80000294 <restore>
8000dac4:	fff00793          	li	a5,-1
8000dac8:	0840006f          	j	8000db4c <semreset+0xf4>
8000dacc:	fdc42703          	lw	a4,-36(s0)
8000dad0:	00070793          	mv	a5,a4
8000dad4:	00179793          	slli	a5,a5,0x1
8000dad8:	00e787b3          	add	a5,a5,a4
8000dadc:	00279793          	slli	a5,a5,0x2
8000dae0:	80017737          	lui	a4,0x80017
8000dae4:	e2470713          	addi	a4,a4,-476 # 80016e24 <semtab>
8000dae8:	00e787b3          	add	a5,a5,a4
8000daec:	fef42423          	sw	a5,-24(s0)
8000daf0:	fe842783          	lw	a5,-24(s0)
8000daf4:	0087d783          	lhu	a5,8(a5)
8000daf8:	fef41323          	sh	a5,-26(s0)
8000dafc:	00100513          	li	a0,1
8000db00:	93cfe0ef          	jal	8000bc3c <resched_cntl>
8000db04:	00c0006f          	j	8000db10 <semreset+0xb8>
8000db08:	fe042503          	lw	a0,-32(s0)
8000db0c:	a0cfe0ef          	jal	8000bd18 <ready>
8000db10:	fe641783          	lh	a5,-26(s0)
8000db14:	00078513          	mv	a0,a5
8000db18:	d28ff0ef          	jal	8000d040 <getfirst>
8000db1c:	fea42023          	sw	a0,-32(s0)
8000db20:	fe042703          	lw	a4,-32(s0)
8000db24:	fff00793          	li	a5,-1
8000db28:	fef710e3          	bne	a4,a5,8000db08 <semreset+0xb0>
8000db2c:	fe842783          	lw	a5,-24(s0)
8000db30:	fd842703          	lw	a4,-40(s0)
8000db34:	00e7a223          	sw	a4,4(a5)
8000db38:	00200513          	li	a0,2
8000db3c:	900fe0ef          	jal	8000bc3c <resched_cntl>
8000db40:	fec42503          	lw	a0,-20(s0)
8000db44:	f50f20ef          	jal	80000294 <restore>
8000db48:	00100793          	li	a5,1
8000db4c:	00078513          	mv	a0,a5
8000db50:	02c12083          	lw	ra,44(sp)
8000db54:	02812403          	lw	s0,40(sp)
8000db58:	03010113          	addi	sp,sp,48
8000db5c:	00008067          	ret

8000db60 <context_irq_enable>:
8000db60:	fe010113          	addi	sp,sp,-32
8000db64:	00812e23          	sw	s0,28(sp)
8000db68:	02010413          	addi	s0,sp,32
8000db6c:	fea42623          	sw	a0,-20(s0)
8000db70:	feb42423          	sw	a1,-24(s0)
8000db74:	fec42783          	lw	a5,-20(s0)
8000db78:	0047a783          	lw	a5,4(a5)
8000db7c:	f7f7f713          	andi	a4,a5,-129
8000db80:	fec42783          	lw	a5,-20(s0)
8000db84:	00e7a223          	sw	a4,4(a5)
8000db88:	fec42783          	lw	a5,-20(s0)
8000db8c:	0047a703          	lw	a4,4(a5)
8000db90:	fe842783          	lw	a5,-24(s0)
8000db94:	00078663          	beqz	a5,8000dba0 <context_irq_enable+0x40>
8000db98:	08000793          	li	a5,128
8000db9c:	0080006f          	j	8000dba4 <context_irq_enable+0x44>
8000dba0:	00000793          	li	a5,0
8000dba4:	00e7e733          	or	a4,a5,a4
8000dba8:	fec42783          	lw	a5,-20(s0)
8000dbac:	00e7a223          	sw	a4,4(a5)
8000dbb0:	00000013          	nop
8000dbb4:	01c12403          	lw	s0,28(sp)
8000dbb8:	02010113          	addi	sp,sp,32
8000dbbc:	00008067          	ret

8000dbc0 <timer_diff>:
8000dbc0:	fe010113          	addi	sp,sp,-32
8000dbc4:	00812e23          	sw	s0,28(sp)
8000dbc8:	02010413          	addi	s0,sp,32
8000dbcc:	fea42623          	sw	a0,-20(s0)
8000dbd0:	feb42423          	sw	a1,-24(s0)
8000dbd4:	fec42703          	lw	a4,-20(s0)
8000dbd8:	fe842783          	lw	a5,-24(s0)
8000dbdc:	40f707b3          	sub	a5,a4,a5
8000dbe0:	00078513          	mv	a0,a5
8000dbe4:	01c12403          	lw	s0,28(sp)
8000dbe8:	02010113          	addi	sp,sp,32
8000dbec:	00008067          	ret

8000dbf0 <setupStack>:
8000dbf0:	fc010113          	addi	sp,sp,-64
8000dbf4:	02812e23          	sw	s0,60(sp)
8000dbf8:	04010413          	addi	s0,sp,64
8000dbfc:	fca42e23          	sw	a0,-36(s0)
8000dc00:	fcb42c23          	sw	a1,-40(s0)
8000dc04:	fcc42a23          	sw	a2,-44(s0)
8000dc08:	fcd42823          	sw	a3,-48(s0)
8000dc0c:	fce42623          	sw	a4,-52(s0)
8000dc10:	fdc42783          	lw	a5,-36(s0)
8000dc14:	fef42623          	sw	a5,-20(s0)
8000dc18:	fec42783          	lw	a5,-20(s0)
8000dc1c:	fa478793          	addi	a5,a5,-92
8000dc20:	fef42623          	sw	a5,-20(s0)
8000dc24:	0100006f          	j	8000dc34 <setupStack+0x44>
8000dc28:	fec42783          	lw	a5,-20(s0)
8000dc2c:	fff78793          	addi	a5,a5,-1
8000dc30:	fef42623          	sw	a5,-20(s0)
8000dc34:	fec42783          	lw	a5,-20(s0)
8000dc38:	00f7f793          	andi	a5,a5,15
8000dc3c:	fe0796e3          	bnez	a5,8000dc28 <setupStack+0x38>
8000dc40:	fe042423          	sw	zero,-24(s0)
8000dc44:	fd842703          	lw	a4,-40(s0)
8000dc48:	fec42783          	lw	a5,-20(s0)
8000dc4c:	00e7a023          	sw	a4,0(a5)
8000dc50:	fec42783          	lw	a5,-20(s0)
8000dc54:	00478793          	addi	a5,a5,4
8000dc58:	fd442703          	lw	a4,-44(s0)
8000dc5c:	00e7a023          	sw	a4,0(a5)
8000dc60:	fec42783          	lw	a5,-20(s0)
8000dc64:	00878793          	addi	a5,a5,8
8000dc68:	00002737          	lui	a4,0x2
8000dc6c:	88870713          	addi	a4,a4,-1912 # 1888 <_start-0x7fffe778>
8000dc70:	00e7a023          	sw	a4,0(a5)
8000dc74:	fec42783          	lw	a5,-20(s0)
8000dc78:	00c78793          	addi	a5,a5,12
8000dc7c:	0007a023          	sw	zero,0(a5)
8000dc80:	fec42783          	lw	a5,-20(s0)
8000dc84:	01078793          	addi	a5,a5,16
8000dc88:	0007a023          	sw	zero,0(a5)
8000dc8c:	fec42783          	lw	a5,-20(s0)
8000dc90:	01478793          	addi	a5,a5,20
8000dc94:	0007a023          	sw	zero,0(a5)
8000dc98:	fec42783          	lw	a5,-20(s0)
8000dc9c:	01878793          	addi	a5,a5,24
8000dca0:	0007a023          	sw	zero,0(a5)
8000dca4:	fec42783          	lw	a5,-20(s0)
8000dca8:	01c78793          	addi	a5,a5,28
8000dcac:	0007a023          	sw	zero,0(a5)
8000dcb0:	fec42783          	lw	a5,-20(s0)
8000dcb4:	02078793          	addi	a5,a5,32
8000dcb8:	0007a023          	sw	zero,0(a5)
8000dcbc:	fec42783          	lw	a5,-20(s0)
8000dcc0:	02478793          	addi	a5,a5,36
8000dcc4:	0007a023          	sw	zero,0(a5)
8000dcc8:	fec42783          	lw	a5,-20(s0)
8000dccc:	02878793          	addi	a5,a5,40
8000dcd0:	0007a023          	sw	zero,0(a5)
8000dcd4:	fec42783          	lw	a5,-20(s0)
8000dcd8:	02c78793          	addi	a5,a5,44
8000dcdc:	0007a023          	sw	zero,0(a5)
8000dce0:	fec42783          	lw	a5,-20(s0)
8000dce4:	03078793          	addi	a5,a5,48
8000dce8:	0007a023          	sw	zero,0(a5)
8000dcec:	fec42783          	lw	a5,-20(s0)
8000dcf0:	03478793          	addi	a5,a5,52
8000dcf4:	0007a023          	sw	zero,0(a5)
8000dcf8:	fec42783          	lw	a5,-20(s0)
8000dcfc:	03878793          	addi	a5,a5,56
8000dd00:	0007a023          	sw	zero,0(a5)
8000dd04:	fec42783          	lw	a5,-20(s0)
8000dd08:	03c78793          	addi	a5,a5,60
8000dd0c:	fd042703          	lw	a4,-48(s0)
8000dd10:	00e7a023          	sw	a4,0(a5)
8000dd14:	01000793          	li	a5,16
8000dd18:	fef42423          	sw	a5,-24(s0)
8000dd1c:	fe042223          	sw	zero,-28(s0)
8000dd20:	0400006f          	j	8000dd60 <setupStack+0x170>
8000dd24:	fe842783          	lw	a5,-24(s0)
8000dd28:	00279793          	slli	a5,a5,0x2
8000dd2c:	fec42703          	lw	a4,-20(s0)
8000dd30:	00f70733          	add	a4,a4,a5
8000dd34:	fcc42783          	lw	a5,-52(s0)
8000dd38:	00478693          	addi	a3,a5,4
8000dd3c:	fcd42623          	sw	a3,-52(s0)
8000dd40:	0007a783          	lw	a5,0(a5)
8000dd44:	00f72023          	sw	a5,0(a4)
8000dd48:	fe842783          	lw	a5,-24(s0)
8000dd4c:	00178793          	addi	a5,a5,1
8000dd50:	fef42423          	sw	a5,-24(s0)
8000dd54:	fe442783          	lw	a5,-28(s0)
8000dd58:	00178793          	addi	a5,a5,1
8000dd5c:	fef42223          	sw	a5,-28(s0)
8000dd60:	fe442783          	lw	a5,-28(s0)
8000dd64:	fd042703          	lw	a4,-48(s0)
8000dd68:	fae7eee3          	bltu	a5,a4,8000dd24 <setupStack+0x134>
8000dd6c:	fec42783          	lw	a5,-20(s0)
8000dd70:	00078513          	mv	a0,a5
8000dd74:	03c12403          	lw	s0,60(sp)
8000dd78:	04010113          	addi	sp,sp,64
8000dd7c:	00008067          	ret

8000dd80 <setupStackFromShell>:
8000dd80:	fc010113          	addi	sp,sp,-64
8000dd84:	02812e23          	sw	s0,60(sp)
8000dd88:	04010413          	addi	s0,sp,64
8000dd8c:	fca42e23          	sw	a0,-36(s0)
8000dd90:	fcb42c23          	sw	a1,-40(s0)
8000dd94:	fcc42a23          	sw	a2,-44(s0)
8000dd98:	fcd42823          	sw	a3,-48(s0)
8000dd9c:	fce42623          	sw	a4,-52(s0)
8000dda0:	fdc42783          	lw	a5,-36(s0)
8000dda4:	fef42623          	sw	a5,-20(s0)
8000dda8:	fd042703          	lw	a4,-48(s0)
8000ddac:	00800793          	li	a5,8
8000ddb0:	02e7f663          	bgeu	a5,a4,8000dddc <setupStackFromShell+0x5c>
8000ddb4:	fd042783          	lw	a5,-48(s0)
8000ddb8:	ff878793          	addi	a5,a5,-8
8000ddbc:	fef42023          	sw	a5,-32(s0)
8000ddc0:	fe042783          	lw	a5,-32(s0)
8000ddc4:	00279793          	slli	a5,a5,0x2
8000ddc8:	40f007b3          	neg	a5,a5
8000ddcc:	fec42703          	lw	a4,-20(s0)
8000ddd0:	00f707b3          	add	a5,a4,a5
8000ddd4:	fef42623          	sw	a5,-20(s0)
8000ddd8:	0080006f          	j	8000dde0 <setupStackFromShell+0x60>
8000dddc:	fe042023          	sw	zero,-32(s0)
8000dde0:	fec42783          	lw	a5,-20(s0)
8000dde4:	fa478793          	addi	a5,a5,-92
8000dde8:	fef42623          	sw	a5,-20(s0)
8000ddec:	0100006f          	j	8000ddfc <setupStackFromShell+0x7c>
8000ddf0:	fec42783          	lw	a5,-20(s0)
8000ddf4:	fff78793          	addi	a5,a5,-1
8000ddf8:	fef42623          	sw	a5,-20(s0)
8000ddfc:	fec42783          	lw	a5,-20(s0)
8000de00:	00f7f793          	andi	a5,a5,15
8000de04:	fe0796e3          	bnez	a5,8000ddf0 <setupStackFromShell+0x70>
8000de08:	fe042423          	sw	zero,-24(s0)
8000de0c:	fe842783          	lw	a5,-24(s0)
8000de10:	00178713          	addi	a4,a5,1
8000de14:	fee42423          	sw	a4,-24(s0)
8000de18:	00279793          	slli	a5,a5,0x2
8000de1c:	fec42703          	lw	a4,-20(s0)
8000de20:	00f707b3          	add	a5,a4,a5
8000de24:	fd842703          	lw	a4,-40(s0)
8000de28:	00e7a023          	sw	a4,0(a5)
8000de2c:	fe842783          	lw	a5,-24(s0)
8000de30:	00178713          	addi	a4,a5,1
8000de34:	fee42423          	sw	a4,-24(s0)
8000de38:	00279793          	slli	a5,a5,0x2
8000de3c:	fec42703          	lw	a4,-20(s0)
8000de40:	00f707b3          	add	a5,a4,a5
8000de44:	fd442703          	lw	a4,-44(s0)
8000de48:	00e7a023          	sw	a4,0(a5)
8000de4c:	fe842783          	lw	a5,-24(s0)
8000de50:	00178713          	addi	a4,a5,1
8000de54:	fee42423          	sw	a4,-24(s0)
8000de58:	00279793          	slli	a5,a5,0x2
8000de5c:	fec42703          	lw	a4,-20(s0)
8000de60:	00f707b3          	add	a5,a4,a5
8000de64:	00002737          	lui	a4,0x2
8000de68:	88870713          	addi	a4,a4,-1912 # 1888 <_start-0x7fffe778>
8000de6c:	00e7a023          	sw	a4,0(a5)
8000de70:	0240006f          	j	8000de94 <setupStackFromShell+0x114>
8000de74:	fe842783          	lw	a5,-24(s0)
8000de78:	00279793          	slli	a5,a5,0x2
8000de7c:	fec42703          	lw	a4,-20(s0)
8000de80:	00f707b3          	add	a5,a4,a5
8000de84:	0007a023          	sw	zero,0(a5)
8000de88:	fe842783          	lw	a5,-24(s0)
8000de8c:	00178793          	addi	a5,a5,1
8000de90:	fef42423          	sw	a5,-24(s0)
8000de94:	fe842703          	lw	a4,-24(s0)
8000de98:	00e00793          	li	a5,14
8000de9c:	fce7fce3          	bgeu	a5,a4,8000de74 <setupStackFromShell+0xf4>
8000dea0:	fe842783          	lw	a5,-24(s0)
8000dea4:	00178713          	addi	a4,a5,1
8000dea8:	fee42423          	sw	a4,-24(s0)
8000deac:	00279793          	slli	a5,a5,0x2
8000deb0:	fec42703          	lw	a4,-20(s0)
8000deb4:	00f707b3          	add	a5,a4,a5
8000deb8:	fd042703          	lw	a4,-48(s0)
8000debc:	00e7a023          	sw	a4,0(a5)
8000dec0:	fe042223          	sw	zero,-28(s0)
8000dec4:	0400006f          	j	8000df04 <setupStackFromShell+0x184>
8000dec8:	fe442783          	lw	a5,-28(s0)
8000decc:	00279793          	slli	a5,a5,0x2
8000ded0:	fcc42703          	lw	a4,-52(s0)
8000ded4:	00f706b3          	add	a3,a4,a5
8000ded8:	fe842783          	lw	a5,-24(s0)
8000dedc:	00178713          	addi	a4,a5,1
8000dee0:	fee42423          	sw	a4,-24(s0)
8000dee4:	00279793          	slli	a5,a5,0x2
8000dee8:	fec42703          	lw	a4,-20(s0)
8000deec:	00f707b3          	add	a5,a4,a5
8000def0:	00068713          	mv	a4,a3
8000def4:	00e7a023          	sw	a4,0(a5)
8000def8:	fe442783          	lw	a5,-28(s0)
8000defc:	00178793          	addi	a5,a5,1
8000df00:	fef42223          	sw	a5,-28(s0)
8000df04:	fe442703          	lw	a4,-28(s0)
8000df08:	00700793          	li	a5,7
8000df0c:	02e7ea63          	bltu	a5,a4,8000df40 <setupStackFromShell+0x1c0>
8000df10:	fe442703          	lw	a4,-28(s0)
8000df14:	fd042783          	lw	a5,-48(s0)
8000df18:	faf768e3          	bltu	a4,a5,8000dec8 <setupStackFromShell+0x148>
8000df1c:	0240006f          	j	8000df40 <setupStackFromShell+0x1c0>
8000df20:	fe842783          	lw	a5,-24(s0)
8000df24:	00279793          	slli	a5,a5,0x2
8000df28:	fec42703          	lw	a4,-20(s0)
8000df2c:	00f707b3          	add	a5,a4,a5
8000df30:	0007a023          	sw	zero,0(a5)
8000df34:	fe842783          	lw	a5,-24(s0)
8000df38:	00178793          	addi	a5,a5,1
8000df3c:	fef42423          	sw	a5,-24(s0)
8000df40:	fe842703          	lw	a4,-24(s0)
8000df44:	01600793          	li	a5,22
8000df48:	fce7fce3          	bgeu	a5,a4,8000df20 <setupStackFromShell+0x1a0>
8000df4c:	fec42783          	lw	a5,-20(s0)
8000df50:	00078513          	mv	a0,a5
8000df54:	03c12403          	lw	s0,60(sp)
8000df58:	04010113          	addi	sp,sp,64
8000df5c:	00008067          	ret

8000df60 <context_irq_enable>:
8000df60:	fe010113          	addi	sp,sp,-32
8000df64:	00812e23          	sw	s0,28(sp)
8000df68:	02010413          	addi	s0,sp,32
8000df6c:	fea42623          	sw	a0,-20(s0)
8000df70:	feb42423          	sw	a1,-24(s0)
8000df74:	fec42783          	lw	a5,-20(s0)
8000df78:	0047a783          	lw	a5,4(a5)
8000df7c:	f7f7f713          	andi	a4,a5,-129
8000df80:	fec42783          	lw	a5,-20(s0)
8000df84:	00e7a223          	sw	a4,4(a5)
8000df88:	fec42783          	lw	a5,-20(s0)
8000df8c:	0047a703          	lw	a4,4(a5)
8000df90:	fe842783          	lw	a5,-24(s0)
8000df94:	00078663          	beqz	a5,8000dfa0 <context_irq_enable+0x40>
8000df98:	08000793          	li	a5,128
8000df9c:	0080006f          	j	8000dfa4 <context_irq_enable+0x44>
8000dfa0:	00000793          	li	a5,0
8000dfa4:	00e7e733          	or	a4,a5,a4
8000dfa8:	fec42783          	lw	a5,-20(s0)
8000dfac:	00e7a223          	sw	a4,4(a5)
8000dfb0:	00000013          	nop
8000dfb4:	01c12403          	lw	s0,28(sp)
8000dfb8:	02010113          	addi	sp,sp,32
8000dfbc:	00008067          	ret

8000dfc0 <timer_diff>:
8000dfc0:	fe010113          	addi	sp,sp,-32
8000dfc4:	00812e23          	sw	s0,28(sp)
8000dfc8:	02010413          	addi	s0,sp,32
8000dfcc:	fea42623          	sw	a0,-20(s0)
8000dfd0:	feb42423          	sw	a1,-24(s0)
8000dfd4:	fec42703          	lw	a4,-20(s0)
8000dfd8:	fe842783          	lw	a5,-24(s0)
8000dfdc:	40f707b3          	sub	a5,a4,a5
8000dfe0:	00078513          	mv	a0,a5
8000dfe4:	01c12403          	lw	s0,28(sp)
8000dfe8:	02010113          	addi	sp,sp,32
8000dfec:	00008067          	ret

8000dff0 <signal>:
8000dff0:	fd010113          	addi	sp,sp,-48
8000dff4:	02112623          	sw	ra,44(sp)
8000dff8:	02812423          	sw	s0,40(sp)
8000dffc:	03010413          	addi	s0,sp,48
8000e000:	fca42e23          	sw	a0,-36(s0)
8000e004:	a88f20ef          	jal	8000028c <disable>
8000e008:	fea42623          	sw	a0,-20(s0)
8000e00c:	fdc42783          	lw	a5,-36(s0)
8000e010:	0007c863          	bltz	a5,8000e020 <signal+0x30>
8000e014:	fdc42703          	lw	a4,-36(s0)
8000e018:	00900793          	li	a5,9
8000e01c:	00e7da63          	bge	a5,a4,8000e030 <signal+0x40>
8000e020:	fec42503          	lw	a0,-20(s0)
8000e024:	a70f20ef          	jal	80000294 <restore>
8000e028:	fff00793          	li	a5,-1
8000e02c:	0840006f          	j	8000e0b0 <signal+0xc0>
8000e030:	fdc42703          	lw	a4,-36(s0)
8000e034:	00070793          	mv	a5,a4
8000e038:	00179793          	slli	a5,a5,0x1
8000e03c:	00e787b3          	add	a5,a5,a4
8000e040:	00279793          	slli	a5,a5,0x2
8000e044:	80017737          	lui	a4,0x80017
8000e048:	e2470713          	addi	a4,a4,-476 # 80016e24 <semtab>
8000e04c:	00e787b3          	add	a5,a5,a4
8000e050:	fef42423          	sw	a5,-24(s0)
8000e054:	fe842783          	lw	a5,-24(s0)
8000e058:	0007c783          	lbu	a5,0(a5)
8000e05c:	00079a63          	bnez	a5,8000e070 <signal+0x80>
8000e060:	fec42503          	lw	a0,-20(s0)
8000e064:	a30f20ef          	jal	80000294 <restore>
8000e068:	fff00793          	li	a5,-1
8000e06c:	0440006f          	j	8000e0b0 <signal+0xc0>
8000e070:	fe842783          	lw	a5,-24(s0)
8000e074:	0047a783          	lw	a5,4(a5)
8000e078:	00178693          	addi	a3,a5,1
8000e07c:	fe842703          	lw	a4,-24(s0)
8000e080:	00d72223          	sw	a3,4(a4)
8000e084:	0207d063          	bgez	a5,8000e0a4 <signal+0xb4>
8000e088:	fe842783          	lw	a5,-24(s0)
8000e08c:	00879783          	lh	a5,8(a5)
8000e090:	00078513          	mv	a0,a5
8000e094:	eedfe0ef          	jal	8000cf80 <dequeue>
8000e098:	00050793          	mv	a5,a0
8000e09c:	00078513          	mv	a0,a5
8000e0a0:	c79fd0ef          	jal	8000bd18 <ready>
8000e0a4:	fec42503          	lw	a0,-20(s0)
8000e0a8:	9ecf20ef          	jal	80000294 <restore>
8000e0ac:	00100793          	li	a5,1
8000e0b0:	00078513          	mv	a0,a5
8000e0b4:	02c12083          	lw	ra,44(sp)
8000e0b8:	02812403          	lw	s0,40(sp)
8000e0bc:	03010113          	addi	sp,sp,48
8000e0c0:	00008067          	ret

8000e0c4 <signaln>:
8000e0c4:	fd010113          	addi	sp,sp,-48
8000e0c8:	02112623          	sw	ra,44(sp)
8000e0cc:	02812423          	sw	s0,40(sp)
8000e0d0:	03010413          	addi	s0,sp,48
8000e0d4:	fca42e23          	sw	a0,-36(s0)
8000e0d8:	fcb42c23          	sw	a1,-40(s0)
8000e0dc:	9b0f20ef          	jal	8000028c <disable>
8000e0e0:	fea42623          	sw	a0,-20(s0)
8000e0e4:	fdc42783          	lw	a5,-36(s0)
8000e0e8:	0007cc63          	bltz	a5,8000e100 <signaln+0x3c>
8000e0ec:	fdc42703          	lw	a4,-36(s0)
8000e0f0:	00900793          	li	a5,9
8000e0f4:	00e7c663          	blt	a5,a4,8000e100 <signaln+0x3c>
8000e0f8:	fd842783          	lw	a5,-40(s0)
8000e0fc:	0007da63          	bgez	a5,8000e110 <signaln+0x4c>
8000e100:	fec42503          	lw	a0,-20(s0)
8000e104:	990f20ef          	jal	80000294 <restore>
8000e108:	fff00793          	li	a5,-1
8000e10c:	0ac0006f          	j	8000e1b8 <signaln+0xf4>
8000e110:	fdc42703          	lw	a4,-36(s0)
8000e114:	00070793          	mv	a5,a4
8000e118:	00179793          	slli	a5,a5,0x1
8000e11c:	00e787b3          	add	a5,a5,a4
8000e120:	00279793          	slli	a5,a5,0x2
8000e124:	80017737          	lui	a4,0x80017
8000e128:	e2470713          	addi	a4,a4,-476 # 80016e24 <semtab>
8000e12c:	00e787b3          	add	a5,a5,a4
8000e130:	fef42423          	sw	a5,-24(s0)
8000e134:	fe842783          	lw	a5,-24(s0)
8000e138:	0007c783          	lbu	a5,0(a5)
8000e13c:	00079a63          	bnez	a5,8000e150 <signaln+0x8c>
8000e140:	fec42503          	lw	a0,-20(s0)
8000e144:	950f20ef          	jal	80000294 <restore>
8000e148:	fff00793          	li	a5,-1
8000e14c:	06c0006f          	j	8000e1b8 <signaln+0xf4>
8000e150:	00100513          	li	a0,1
8000e154:	ae9fd0ef          	jal	8000bc3c <resched_cntl>
8000e158:	0440006f          	j	8000e19c <signaln+0xd8>
8000e15c:	fe842783          	lw	a5,-24(s0)
8000e160:	0047a783          	lw	a5,4(a5)
8000e164:	00178693          	addi	a3,a5,1
8000e168:	fe842703          	lw	a4,-24(s0)
8000e16c:	00d72223          	sw	a3,4(a4)
8000e170:	0207d063          	bgez	a5,8000e190 <signaln+0xcc>
8000e174:	fe842783          	lw	a5,-24(s0)
8000e178:	00879783          	lh	a5,8(a5)
8000e17c:	00078513          	mv	a0,a5
8000e180:	e01fe0ef          	jal	8000cf80 <dequeue>
8000e184:	00050793          	mv	a5,a0
8000e188:	00078513          	mv	a0,a5
8000e18c:	b8dfd0ef          	jal	8000bd18 <ready>
8000e190:	fd842783          	lw	a5,-40(s0)
8000e194:	fff78793          	addi	a5,a5,-1
8000e198:	fcf42c23          	sw	a5,-40(s0)
8000e19c:	fd842783          	lw	a5,-40(s0)
8000e1a0:	faf04ee3          	bgtz	a5,8000e15c <signaln+0x98>
8000e1a4:	00200513          	li	a0,2
8000e1a8:	a95fd0ef          	jal	8000bc3c <resched_cntl>
8000e1ac:	fec42503          	lw	a0,-20(s0)
8000e1b0:	8e4f20ef          	jal	80000294 <restore>
8000e1b4:	00100793          	li	a5,1
8000e1b8:	00078513          	mv	a0,a5
8000e1bc:	02c12083          	lw	ra,44(sp)
8000e1c0:	02812403          	lw	s0,40(sp)
8000e1c4:	03010113          	addi	sp,sp,48
8000e1c8:	00008067          	ret

8000e1cc <context_irq_enable>:
8000e1cc:	fe010113          	addi	sp,sp,-32
8000e1d0:	00812e23          	sw	s0,28(sp)
8000e1d4:	02010413          	addi	s0,sp,32
8000e1d8:	fea42623          	sw	a0,-20(s0)
8000e1dc:	feb42423          	sw	a1,-24(s0)
8000e1e0:	fec42783          	lw	a5,-20(s0)
8000e1e4:	0047a783          	lw	a5,4(a5)
8000e1e8:	f7f7f713          	andi	a4,a5,-129
8000e1ec:	fec42783          	lw	a5,-20(s0)
8000e1f0:	00e7a223          	sw	a4,4(a5)
8000e1f4:	fec42783          	lw	a5,-20(s0)
8000e1f8:	0047a703          	lw	a4,4(a5)
8000e1fc:	fe842783          	lw	a5,-24(s0)
8000e200:	00078663          	beqz	a5,8000e20c <context_irq_enable+0x40>
8000e204:	08000793          	li	a5,128
8000e208:	0080006f          	j	8000e210 <context_irq_enable+0x44>
8000e20c:	00000793          	li	a5,0
8000e210:	00e7e733          	or	a4,a5,a4
8000e214:	fec42783          	lw	a5,-20(s0)
8000e218:	00e7a223          	sw	a4,4(a5)
8000e21c:	00000013          	nop
8000e220:	01c12403          	lw	s0,28(sp)
8000e224:	02010113          	addi	sp,sp,32
8000e228:	00008067          	ret

8000e22c <timer_diff>:
8000e22c:	fe010113          	addi	sp,sp,-32
8000e230:	00812e23          	sw	s0,28(sp)
8000e234:	02010413          	addi	s0,sp,32
8000e238:	fea42623          	sw	a0,-20(s0)
8000e23c:	feb42423          	sw	a1,-24(s0)
8000e240:	fec42703          	lw	a4,-20(s0)
8000e244:	fe842783          	lw	a5,-24(s0)
8000e248:	40f707b3          	sub	a5,a4,a5
8000e24c:	00078513          	mv	a0,a5
8000e250:	01c12403          	lw	s0,28(sp)
8000e254:	02010113          	addi	sp,sp,32
8000e258:	00008067          	ret

8000e25c <syscall_os_init>:
8000e25c:	ff010113          	addi	sp,sp,-16
8000e260:	00112623          	sw	ra,12(sp)
8000e264:	00812423          	sw	s0,8(sp)
8000e268:	01010413          	addi	s0,sp,16
8000e26c:	8000e7b7          	lui	a5,0x8000e
8000e270:	29078513          	addi	a0,a5,656 # 8000e290 <do_syscall>
8000e274:	904f20ef          	jal	80000378 <exception_set_syscall_handler>
8000e278:	00000793          	li	a5,0
8000e27c:	00078513          	mv	a0,a5
8000e280:	00c12083          	lw	ra,12(sp)
8000e284:	00812403          	lw	s0,8(sp)
8000e288:	01010113          	addi	sp,sp,16
8000e28c:	00008067          	ret

8000e290 <do_syscall>:
8000e290:	fc010113          	addi	sp,sp,-64
8000e294:	02112e23          	sw	ra,60(sp)
8000e298:	02812c23          	sw	s0,56(sp)
8000e29c:	04010413          	addi	s0,sp,64
8000e2a0:	fca42623          	sw	a0,-52(s0)
8000e2a4:	fcc42783          	lw	a5,-52(s0)
8000e2a8:	0347a783          	lw	a5,52(a5)
8000e2ac:	fef42623          	sw	a5,-20(s0)
8000e2b0:	fcc42783          	lw	a5,-52(s0)
8000e2b4:	0387a783          	lw	a5,56(a5)
8000e2b8:	fef42423          	sw	a5,-24(s0)
8000e2bc:	fcc42783          	lw	a5,-52(s0)
8000e2c0:	03c7a783          	lw	a5,60(a5)
8000e2c4:	fef42223          	sw	a5,-28(s0)
8000e2c8:	fcc42783          	lw	a5,-52(s0)
8000e2cc:	0407a783          	lw	a5,64(a5)
8000e2d0:	fef42023          	sw	a5,-32(s0)
8000e2d4:	fcc42783          	lw	a5,-52(s0)
8000e2d8:	0447a783          	lw	a5,68(a5)
8000e2dc:	fcf42e23          	sw	a5,-36(s0)
8000e2e0:	fcc42783          	lw	a5,-52(s0)
8000e2e4:	0487a783          	lw	a5,72(a5)
8000e2e8:	fcf42c23          	sw	a5,-40(s0)
8000e2ec:	fcc42783          	lw	a5,-52(s0)
8000e2f0:	0507a783          	lw	a5,80(a5)
8000e2f4:	fcf42a23          	sw	a5,-44(s0)
8000e2f8:	fd442703          	lw	a4,-44(s0)
8000e2fc:	04200793          	li	a5,66
8000e300:	34e7ec63          	bltu	a5,a4,8000e658 <do_syscall+0x3c8>
8000e304:	fd442783          	lw	a5,-44(s0)
8000e308:	00279713          	slli	a4,a5,0x2
8000e30c:	800147b7          	lui	a5,0x80014
8000e310:	10478793          	addi	a5,a5,260 # 80014104 <r+0x1e0>
8000e314:	00f707b3          	add	a5,a4,a5
8000e318:	0007a783          	lw	a5,0(a5)
8000e31c:	00078067          	jr	a5
8000e320:	fcc42783          	lw	a5,-52(s0)
8000e324:	0007a783          	lw	a5,0(a5)
8000e328:	00478713          	addi	a4,a5,4
8000e32c:	fcc42783          	lw	a5,-52(s0)
8000e330:	00e7a023          	sw	a4,0(a5)
8000e334:	3540006f          	j	8000e688 <do_syscall+0x3f8>
8000e338:	fcc42783          	lw	a5,-52(s0)
8000e33c:	0007a783          	lw	a5,0(a5)
8000e340:	00478713          	addi	a4,a5,4
8000e344:	fcc42783          	lw	a5,-52(s0)
8000e348:	00e7a023          	sw	a4,0(a5)
8000e34c:	33c0006f          	j	8000e688 <do_syscall+0x3f8>
8000e350:	fcc42783          	lw	a5,-52(s0)
8000e354:	0007a783          	lw	a5,0(a5)
8000e358:	00478713          	addi	a4,a5,4
8000e35c:	fcc42783          	lw	a5,-52(s0)
8000e360:	00e7a023          	sw	a4,0(a5)
8000e364:	3240006f          	j	8000e688 <do_syscall+0x3f8>
8000e368:	fcc42783          	lw	a5,-52(s0)
8000e36c:	0007a783          	lw	a5,0(a5)
8000e370:	00478713          	addi	a4,a5,4
8000e374:	fcc42783          	lw	a5,-52(s0)
8000e378:	00e7a023          	sw	a4,0(a5)
8000e37c:	30c0006f          	j	8000e688 <do_syscall+0x3f8>
8000e380:	fcc42783          	lw	a5,-52(s0)
8000e384:	0007a783          	lw	a5,0(a5)
8000e388:	00478713          	addi	a4,a5,4
8000e38c:	fcc42783          	lw	a5,-52(s0)
8000e390:	00e7a023          	sw	a4,0(a5)
8000e394:	2f40006f          	j	8000e688 <do_syscall+0x3f8>
8000e398:	fec42703          	lw	a4,-20(s0)
8000e39c:	06400793          	li	a5,100
8000e3a0:	02f70733          	mul	a4,a4,a5
8000e3a4:	800177b7          	lui	a5,0x80017
8000e3a8:	a3c78793          	addi	a5,a5,-1476 # 80016a3c <proctab>
8000e3ac:	00f707b3          	add	a5,a4,a5
8000e3b0:	00078713          	mv	a4,a5
8000e3b4:	fcc42783          	lw	a5,-52(s0)
8000e3b8:	02e7aa23          	sw	a4,52(a5)
8000e3bc:	fcc42783          	lw	a5,-52(s0)
8000e3c0:	0007a783          	lw	a5,0(a5)
8000e3c4:	00478713          	addi	a4,a5,4
8000e3c8:	fcc42783          	lw	a5,-52(s0)
8000e3cc:	00e7a023          	sw	a4,0(a5)
8000e3d0:	2b80006f          	j	8000e688 <do_syscall+0x3f8>
8000e3d4:	fcc42783          	lw	a5,-52(s0)
8000e3d8:	0007a783          	lw	a5,0(a5)
8000e3dc:	00478713          	addi	a4,a5,4
8000e3e0:	fcc42783          	lw	a5,-52(s0)
8000e3e4:	00e7a023          	sw	a4,0(a5)
8000e3e8:	2a00006f          	j	8000e688 <do_syscall+0x3f8>
8000e3ec:	fcc42783          	lw	a5,-52(s0)
8000e3f0:	0007a783          	lw	a5,0(a5)
8000e3f4:	00478713          	addi	a4,a5,4
8000e3f8:	fcc42783          	lw	a5,-52(s0)
8000e3fc:	00e7a023          	sw	a4,0(a5)
8000e400:	2880006f          	j	8000e688 <do_syscall+0x3f8>
8000e404:	fcc42783          	lw	a5,-52(s0)
8000e408:	0007a783          	lw	a5,0(a5)
8000e40c:	00478713          	addi	a4,a5,4
8000e410:	fcc42783          	lw	a5,-52(s0)
8000e414:	00e7a023          	sw	a4,0(a5)
8000e418:	2700006f          	j	8000e688 <do_syscall+0x3f8>
8000e41c:	8000c7b7          	lui	a5,0x8000c
8000e420:	a9878713          	addi	a4,a5,-1384 # 8000ba98 <resched>
8000e424:	fcc42783          	lw	a5,-52(s0)
8000e428:	00e7a023          	sw	a4,0(a5)
8000e42c:	25c0006f          	j	8000e688 <do_syscall+0x3f8>
8000e430:	fcc42783          	lw	a5,-52(s0)
8000e434:	0007a783          	lw	a5,0(a5)
8000e438:	00478713          	addi	a4,a5,4
8000e43c:	fcc42783          	lw	a5,-52(s0)
8000e440:	00e7a023          	sw	a4,0(a5)
8000e444:	2440006f          	j	8000e688 <do_syscall+0x3f8>
8000e448:	fcc42783          	lw	a5,-52(s0)
8000e44c:	0007a783          	lw	a5,0(a5)
8000e450:	00478713          	addi	a4,a5,4
8000e454:	fcc42783          	lw	a5,-52(s0)
8000e458:	00e7a023          	sw	a4,0(a5)
8000e45c:	22c0006f          	j	8000e688 <do_syscall+0x3f8>
8000e460:	fcc42783          	lw	a5,-52(s0)
8000e464:	0007a783          	lw	a5,0(a5)
8000e468:	00478713          	addi	a4,a5,4
8000e46c:	fcc42783          	lw	a5,-52(s0)
8000e470:	00e7a023          	sw	a4,0(a5)
8000e474:	2140006f          	j	8000e688 <do_syscall+0x3f8>
8000e478:	fcc42783          	lw	a5,-52(s0)
8000e47c:	0007a783          	lw	a5,0(a5)
8000e480:	00478713          	addi	a4,a5,4
8000e484:	fcc42783          	lw	a5,-52(s0)
8000e488:	00e7a023          	sw	a4,0(a5)
8000e48c:	1fc0006f          	j	8000e688 <do_syscall+0x3f8>
8000e490:	fcc42783          	lw	a5,-52(s0)
8000e494:	0007a783          	lw	a5,0(a5)
8000e498:	00478713          	addi	a4,a5,4
8000e49c:	fcc42783          	lw	a5,-52(s0)
8000e4a0:	00e7a023          	sw	a4,0(a5)
8000e4a4:	1e40006f          	j	8000e688 <do_syscall+0x3f8>
8000e4a8:	fcc42783          	lw	a5,-52(s0)
8000e4ac:	0007a783          	lw	a5,0(a5)
8000e4b0:	00478713          	addi	a4,a5,4
8000e4b4:	fcc42783          	lw	a5,-52(s0)
8000e4b8:	00e7a023          	sw	a4,0(a5)
8000e4bc:	1cc0006f          	j	8000e688 <do_syscall+0x3f8>
8000e4c0:	fcc42783          	lw	a5,-52(s0)
8000e4c4:	0007a783          	lw	a5,0(a5)
8000e4c8:	00478713          	addi	a4,a5,4
8000e4cc:	fcc42783          	lw	a5,-52(s0)
8000e4d0:	00e7a023          	sw	a4,0(a5)
8000e4d4:	1b40006f          	j	8000e688 <do_syscall+0x3f8>
8000e4d8:	fcc42783          	lw	a5,-52(s0)
8000e4dc:	0007a783          	lw	a5,0(a5)
8000e4e0:	00478713          	addi	a4,a5,4
8000e4e4:	fcc42783          	lw	a5,-52(s0)
8000e4e8:	00e7a023          	sw	a4,0(a5)
8000e4ec:	19c0006f          	j	8000e688 <do_syscall+0x3f8>
8000e4f0:	fcc42783          	lw	a5,-52(s0)
8000e4f4:	0007a783          	lw	a5,0(a5)
8000e4f8:	00478713          	addi	a4,a5,4
8000e4fc:	fcc42783          	lw	a5,-52(s0)
8000e500:	00e7a023          	sw	a4,0(a5)
8000e504:	1840006f          	j	8000e688 <do_syscall+0x3f8>
8000e508:	fcc42783          	lw	a5,-52(s0)
8000e50c:	0007a783          	lw	a5,0(a5)
8000e510:	00478713          	addi	a4,a5,4
8000e514:	fcc42783          	lw	a5,-52(s0)
8000e518:	00e7a023          	sw	a4,0(a5)
8000e51c:	16c0006f          	j	8000e688 <do_syscall+0x3f8>
8000e520:	fcc42783          	lw	a5,-52(s0)
8000e524:	0007a783          	lw	a5,0(a5)
8000e528:	00478713          	addi	a4,a5,4
8000e52c:	fcc42783          	lw	a5,-52(s0)
8000e530:	00e7a023          	sw	a4,0(a5)
8000e534:	1540006f          	j	8000e688 <do_syscall+0x3f8>
8000e538:	fcc42783          	lw	a5,-52(s0)
8000e53c:	0007a783          	lw	a5,0(a5)
8000e540:	00478713          	addi	a4,a5,4
8000e544:	fcc42783          	lw	a5,-52(s0)
8000e548:	00e7a023          	sw	a4,0(a5)
8000e54c:	13c0006f          	j	8000e688 <do_syscall+0x3f8>
8000e550:	fcc42783          	lw	a5,-52(s0)
8000e554:	0007a783          	lw	a5,0(a5)
8000e558:	00478713          	addi	a4,a5,4
8000e55c:	fcc42783          	lw	a5,-52(s0)
8000e560:	00e7a023          	sw	a4,0(a5)
8000e564:	1240006f          	j	8000e688 <do_syscall+0x3f8>
8000e568:	fcc42783          	lw	a5,-52(s0)
8000e56c:	0007a783          	lw	a5,0(a5)
8000e570:	00478713          	addi	a4,a5,4
8000e574:	fcc42783          	lw	a5,-52(s0)
8000e578:	00e7a023          	sw	a4,0(a5)
8000e57c:	10c0006f          	j	8000e688 <do_syscall+0x3f8>
8000e580:	fcc42783          	lw	a5,-52(s0)
8000e584:	0007a783          	lw	a5,0(a5)
8000e588:	00478713          	addi	a4,a5,4
8000e58c:	fcc42783          	lw	a5,-52(s0)
8000e590:	00e7a023          	sw	a4,0(a5)
8000e594:	0f40006f          	j	8000e688 <do_syscall+0x3f8>
8000e598:	fcc42783          	lw	a5,-52(s0)
8000e59c:	0007a783          	lw	a5,0(a5)
8000e5a0:	00478713          	addi	a4,a5,4
8000e5a4:	fcc42783          	lw	a5,-52(s0)
8000e5a8:	00e7a023          	sw	a4,0(a5)
8000e5ac:	0dc0006f          	j	8000e688 <do_syscall+0x3f8>
8000e5b0:	fcc42783          	lw	a5,-52(s0)
8000e5b4:	0007a783          	lw	a5,0(a5)
8000e5b8:	00478713          	addi	a4,a5,4
8000e5bc:	fcc42783          	lw	a5,-52(s0)
8000e5c0:	00e7a023          	sw	a4,0(a5)
8000e5c4:	0c40006f          	j	8000e688 <do_syscall+0x3f8>
8000e5c8:	fcc42783          	lw	a5,-52(s0)
8000e5cc:	0007a783          	lw	a5,0(a5)
8000e5d0:	00478713          	addi	a4,a5,4
8000e5d4:	fcc42783          	lw	a5,-52(s0)
8000e5d8:	00e7a023          	sw	a4,0(a5)
8000e5dc:	0ac0006f          	j	8000e688 <do_syscall+0x3f8>
8000e5e0:	fcc42783          	lw	a5,-52(s0)
8000e5e4:	0007a783          	lw	a5,0(a5)
8000e5e8:	00478713          	addi	a4,a5,4
8000e5ec:	fcc42783          	lw	a5,-52(s0)
8000e5f0:	00e7a023          	sw	a4,0(a5)
8000e5f4:	0940006f          	j	8000e688 <do_syscall+0x3f8>
8000e5f8:	fcc42783          	lw	a5,-52(s0)
8000e5fc:	0007a783          	lw	a5,0(a5)
8000e600:	00478713          	addi	a4,a5,4
8000e604:	fcc42783          	lw	a5,-52(s0)
8000e608:	00e7a023          	sw	a4,0(a5)
8000e60c:	07c0006f          	j	8000e688 <do_syscall+0x3f8>
8000e610:	fcc42783          	lw	a5,-52(s0)
8000e614:	0007a783          	lw	a5,0(a5)
8000e618:	00478713          	addi	a4,a5,4
8000e61c:	fcc42783          	lw	a5,-52(s0)
8000e620:	00e7a023          	sw	a4,0(a5)
8000e624:	0640006f          	j	8000e688 <do_syscall+0x3f8>
8000e628:	fcc42783          	lw	a5,-52(s0)
8000e62c:	0007a783          	lw	a5,0(a5)
8000e630:	00478713          	addi	a4,a5,4
8000e634:	fcc42783          	lw	a5,-52(s0)
8000e638:	00e7a023          	sw	a4,0(a5)
8000e63c:	04c0006f          	j	8000e688 <do_syscall+0x3f8>
8000e640:	fcc42783          	lw	a5,-52(s0)
8000e644:	0007a783          	lw	a5,0(a5)
8000e648:	00478713          	addi	a4,a5,4
8000e64c:	fcc42783          	lw	a5,-52(s0)
8000e650:	00e7a023          	sw	a4,0(a5)
8000e654:	0340006f          	j	8000e688 <do_syscall+0x3f8>
8000e658:	fd442603          	lw	a2,-44(s0)
8000e65c:	fd442583          	lw	a1,-44(s0)
8000e660:	800147b7          	lui	a5,0x80014
8000e664:	0e478513          	addi	a0,a5,228 # 800140e4 <r+0x1c0>
8000e668:	0dc050ef          	jal	80013744 <kprintf>
8000e66c:	fcc42783          	lw	a5,-52(s0)
8000e670:	0007a783          	lw	a5,0(a5)
8000e674:	00478713          	addi	a4,a5,4
8000e678:	fcc42783          	lw	a5,-52(s0)
8000e67c:	00e7a023          	sw	a4,0(a5)
8000e680:	0080006f          	j	8000e688 <do_syscall+0x3f8>
8000e684:	00000013          	nop
8000e688:	fcc42783          	lw	a5,-52(s0)
8000e68c:	00078513          	mv	a0,a5
8000e690:	03c12083          	lw	ra,60(sp)
8000e694:	03812403          	lw	s0,56(sp)
8000e698:	04010113          	addi	sp,sp,64
8000e69c:	00008067          	ret

8000e6a0 <context_irq_enable>:
8000e6a0:	fe010113          	addi	sp,sp,-32
8000e6a4:	00812e23          	sw	s0,28(sp)
8000e6a8:	02010413          	addi	s0,sp,32
8000e6ac:	fea42623          	sw	a0,-20(s0)
8000e6b0:	feb42423          	sw	a1,-24(s0)
8000e6b4:	fec42783          	lw	a5,-20(s0)
8000e6b8:	0047a783          	lw	a5,4(a5)
8000e6bc:	f7f7f713          	andi	a4,a5,-129
8000e6c0:	fec42783          	lw	a5,-20(s0)
8000e6c4:	00e7a223          	sw	a4,4(a5)
8000e6c8:	fec42783          	lw	a5,-20(s0)
8000e6cc:	0047a703          	lw	a4,4(a5)
8000e6d0:	fe842783          	lw	a5,-24(s0)
8000e6d4:	00078663          	beqz	a5,8000e6e0 <context_irq_enable+0x40>
8000e6d8:	08000793          	li	a5,128
8000e6dc:	0080006f          	j	8000e6e4 <context_irq_enable+0x44>
8000e6e0:	00000793          	li	a5,0
8000e6e4:	00e7e733          	or	a4,a5,a4
8000e6e8:	fec42783          	lw	a5,-20(s0)
8000e6ec:	00e7a223          	sw	a4,4(a5)
8000e6f0:	00000013          	nop
8000e6f4:	01c12403          	lw	s0,28(sp)
8000e6f8:	02010113          	addi	sp,sp,32
8000e6fc:	00008067          	ret

8000e700 <timer_diff>:
8000e700:	fe010113          	addi	sp,sp,-32
8000e704:	00812e23          	sw	s0,28(sp)
8000e708:	02010413          	addi	s0,sp,32
8000e70c:	fea42623          	sw	a0,-20(s0)
8000e710:	feb42423          	sw	a1,-24(s0)
8000e714:	fec42703          	lw	a4,-20(s0)
8000e718:	fe842783          	lw	a5,-24(s0)
8000e71c:	40f707b3          	sub	a5,a4,a5
8000e720:	00078513          	mv	a0,a5
8000e724:	01c12403          	lw	s0,28(sp)
8000e728:	02010113          	addi	sp,sp,32
8000e72c:	00008067          	ret

8000e730 <xdone>:
8000e730:	ff010113          	addi	sp,sp,-16
8000e734:	00112623          	sw	ra,12(sp)
8000e738:	00812423          	sw	s0,8(sp)
8000e73c:	01010413          	addi	s0,sp,16
8000e740:	800147b7          	lui	a5,0x80014
8000e744:	21078513          	addi	a0,a5,528 # 80014210 <r+0x2ec>
8000e748:	7fd040ef          	jal	80013744 <kprintf>
8000e74c:	0000006f          	j	8000e74c <xdone+0x1c>

8000e750 <context_irq_enable>:
8000e750:	fe010113          	addi	sp,sp,-32
8000e754:	00812e23          	sw	s0,28(sp)
8000e758:	02010413          	addi	s0,sp,32
8000e75c:	fea42623          	sw	a0,-20(s0)
8000e760:	feb42423          	sw	a1,-24(s0)
8000e764:	fec42783          	lw	a5,-20(s0)
8000e768:	0047a783          	lw	a5,4(a5)
8000e76c:	f7f7f713          	andi	a4,a5,-129
8000e770:	fec42783          	lw	a5,-20(s0)
8000e774:	00e7a223          	sw	a4,4(a5)
8000e778:	fec42783          	lw	a5,-20(s0)
8000e77c:	0047a703          	lw	a4,4(a5)
8000e780:	fe842783          	lw	a5,-24(s0)
8000e784:	00078663          	beqz	a5,8000e790 <context_irq_enable+0x40>
8000e788:	08000793          	li	a5,128
8000e78c:	0080006f          	j	8000e794 <context_irq_enable+0x44>
8000e790:	00000793          	li	a5,0
8000e794:	00e7e733          	or	a4,a5,a4
8000e798:	fec42783          	lw	a5,-20(s0)
8000e79c:	00e7a223          	sw	a4,4(a5)
8000e7a0:	00000013          	nop
8000e7a4:	01c12403          	lw	s0,28(sp)
8000e7a8:	02010113          	addi	sp,sp,32
8000e7ac:	00008067          	ret

8000e7b0 <timer_diff>:
8000e7b0:	fe010113          	addi	sp,sp,-32
8000e7b4:	00812e23          	sw	s0,28(sp)
8000e7b8:	02010413          	addi	s0,sp,32
8000e7bc:	fea42623          	sw	a0,-20(s0)
8000e7c0:	feb42423          	sw	a1,-24(s0)
8000e7c4:	fec42703          	lw	a4,-20(s0)
8000e7c8:	fe842783          	lw	a5,-24(s0)
8000e7cc:	40f707b3          	sub	a5,a4,a5
8000e7d0:	00078513          	mv	a0,a5
8000e7d4:	01c12403          	lw	s0,28(sp)
8000e7d8:	02010113          	addi	sp,sp,32
8000e7dc:	00008067          	ret

8000e7e0 <lexan>:
8000e7e0:	fc010113          	addi	sp,sp,-64
8000e7e4:	02812e23          	sw	s0,60(sp)
8000e7e8:	04010413          	addi	s0,sp,64
8000e7ec:	fca42e23          	sw	a0,-36(s0)
8000e7f0:	fcb42c23          	sw	a1,-40(s0)
8000e7f4:	fcc42a23          	sw	a2,-44(s0)
8000e7f8:	fcd42823          	sw	a3,-48(s0)
8000e7fc:	fce42623          	sw	a4,-52(s0)
8000e800:	fcf42423          	sw	a5,-56(s0)
8000e804:	fe042623          	sw	zero,-20(s0)
8000e808:	fdc42783          	lw	a5,-36(s0)
8000e80c:	fef42423          	sw	a5,-24(s0)
8000e810:	fe042223          	sw	zero,-28(s0)
8000e814:	2e40006f          	j	8000eaf8 <lexan+0x318>
8000e818:	fec42703          	lw	a4,-20(s0)
8000e81c:	01f00793          	li	a5,31
8000e820:	00e7fc63          	bgeu	a5,a4,8000e838 <lexan+0x58>
8000e824:	fff00793          	li	a5,-1
8000e828:	2fc0006f          	j	8000eb24 <lexan+0x344>
8000e82c:	fe842783          	lw	a5,-24(s0)
8000e830:	00178793          	addi	a5,a5,1
8000e834:	fef42423          	sw	a5,-24(s0)
8000e838:	fe842783          	lw	a5,-24(s0)
8000e83c:	0007c703          	lbu	a4,0(a5)
8000e840:	02000793          	li	a5,32
8000e844:	fef704e3          	beq	a4,a5,8000e82c <lexan+0x4c>
8000e848:	fe842783          	lw	a5,-24(s0)
8000e84c:	0007c703          	lbu	a4,0(a5)
8000e850:	00900793          	li	a5,9
8000e854:	fcf70ce3          	beq	a4,a5,8000e82c <lexan+0x4c>
8000e858:	fe842783          	lw	a5,-24(s0)
8000e85c:	0007c783          	lbu	a5,0(a5)
8000e860:	fef401a3          	sb	a5,-29(s0)
8000e864:	fe344703          	lbu	a4,-29(s0)
8000e868:	00a00793          	li	a5,10
8000e86c:	00f70663          	beq	a4,a5,8000e878 <lexan+0x98>
8000e870:	fe344783          	lbu	a5,-29(s0)
8000e874:	00079c63          	bnez	a5,8000e88c <lexan+0xac>
8000e878:	fd042783          	lw	a5,-48(s0)
8000e87c:	fe442703          	lw	a4,-28(s0)
8000e880:	00e7a023          	sw	a4,0(a5)
8000e884:	fec42783          	lw	a5,-20(s0)
8000e888:	29c0006f          	j	8000eb24 <lexan+0x344>
8000e88c:	fec42783          	lw	a5,-20(s0)
8000e890:	00279793          	slli	a5,a5,0x2
8000e894:	fcc42703          	lw	a4,-52(s0)
8000e898:	00f707b3          	add	a5,a4,a5
8000e89c:	fe442703          	lw	a4,-28(s0)
8000e8a0:	00e7a023          	sw	a4,0(a5)
8000e8a4:	fe344703          	lbu	a4,-29(s0)
8000e8a8:	02600793          	li	a5,38
8000e8ac:	06f71863          	bne	a4,a5,8000e91c <lexan+0x13c>
8000e8b0:	fec42783          	lw	a5,-20(s0)
8000e8b4:	00279793          	slli	a5,a5,0x2
8000e8b8:	fc842703          	lw	a4,-56(s0)
8000e8bc:	00f707b3          	add	a5,a4,a5
8000e8c0:	0007a023          	sw	zero,0(a5)
8000e8c4:	fe442783          	lw	a5,-28(s0)
8000e8c8:	00178713          	addi	a4,a5,1
8000e8cc:	fee42223          	sw	a4,-28(s0)
8000e8d0:	00078713          	mv	a4,a5
8000e8d4:	fd442783          	lw	a5,-44(s0)
8000e8d8:	00e787b3          	add	a5,a5,a4
8000e8dc:	fe344703          	lbu	a4,-29(s0)
8000e8e0:	00e78023          	sb	a4,0(a5)
8000e8e4:	fe442783          	lw	a5,-28(s0)
8000e8e8:	00178713          	addi	a4,a5,1
8000e8ec:	fee42223          	sw	a4,-28(s0)
8000e8f0:	00078713          	mv	a4,a5
8000e8f4:	fd442783          	lw	a5,-44(s0)
8000e8f8:	00e787b3          	add	a5,a5,a4
8000e8fc:	00078023          	sb	zero,0(a5)
8000e900:	fec42783          	lw	a5,-20(s0)
8000e904:	00178793          	addi	a5,a5,1
8000e908:	fef42623          	sw	a5,-20(s0)
8000e90c:	fe842783          	lw	a5,-24(s0)
8000e910:	00178793          	addi	a5,a5,1
8000e914:	fef42423          	sw	a5,-24(s0)
8000e918:	1e00006f          	j	8000eaf8 <lexan+0x318>
8000e91c:	fec42783          	lw	a5,-20(s0)
8000e920:	00279793          	slli	a5,a5,0x2
8000e924:	fc842703          	lw	a4,-56(s0)
8000e928:	00f707b3          	add	a5,a4,a5
8000e92c:	00300713          	li	a4,3
8000e930:	00e7a023          	sw	a4,0(a5)
8000e934:	fe344703          	lbu	a4,-29(s0)
8000e938:	02700793          	li	a5,39
8000e93c:	00f70863          	beq	a4,a5,8000e94c <lexan+0x16c>
8000e940:	fe344703          	lbu	a4,-29(s0)
8000e944:	02200793          	li	a5,34
8000e948:	0af71863          	bne	a4,a5,8000e9f8 <lexan+0x218>
8000e94c:	fe344783          	lbu	a5,-29(s0)
8000e950:	fef40123          	sb	a5,-30(s0)
8000e954:	fe842783          	lw	a5,-24(s0)
8000e958:	00178793          	addi	a5,a5,1
8000e95c:	fef42423          	sw	a5,-24(s0)
8000e960:	0240006f          	j	8000e984 <lexan+0x1a4>
8000e964:	fe442783          	lw	a5,-28(s0)
8000e968:	00178713          	addi	a4,a5,1
8000e96c:	fee42223          	sw	a4,-28(s0)
8000e970:	00078713          	mv	a4,a5
8000e974:	fd442783          	lw	a5,-44(s0)
8000e978:	00e787b3          	add	a5,a5,a4
8000e97c:	fe344703          	lbu	a4,-29(s0)
8000e980:	00e78023          	sb	a4,0(a5)
8000e984:	fe842783          	lw	a5,-24(s0)
8000e988:	00178713          	addi	a4,a5,1
8000e98c:	fee42423          	sw	a4,-24(s0)
8000e990:	0007c783          	lbu	a5,0(a5)
8000e994:	fef401a3          	sb	a5,-29(s0)
8000e998:	fe344703          	lbu	a4,-29(s0)
8000e99c:	fe244783          	lbu	a5,-30(s0)
8000e9a0:	00f70c63          	beq	a4,a5,8000e9b8 <lexan+0x1d8>
8000e9a4:	fe344703          	lbu	a4,-29(s0)
8000e9a8:	00a00793          	li	a5,10
8000e9ac:	00f70663          	beq	a4,a5,8000e9b8 <lexan+0x1d8>
8000e9b0:	fe344783          	lbu	a5,-29(s0)
8000e9b4:	fa0798e3          	bnez	a5,8000e964 <lexan+0x184>
8000e9b8:	fe344703          	lbu	a4,-29(s0)
8000e9bc:	fe244783          	lbu	a5,-30(s0)
8000e9c0:	00f70663          	beq	a4,a5,8000e9cc <lexan+0x1ec>
8000e9c4:	fff00793          	li	a5,-1
8000e9c8:	15c0006f          	j	8000eb24 <lexan+0x344>
8000e9cc:	fe442783          	lw	a5,-28(s0)
8000e9d0:	00178713          	addi	a4,a5,1
8000e9d4:	fee42223          	sw	a4,-28(s0)
8000e9d8:	00078713          	mv	a4,a5
8000e9dc:	fd442783          	lw	a5,-44(s0)
8000e9e0:	00e787b3          	add	a5,a5,a4
8000e9e4:	00078023          	sb	zero,0(a5)
8000e9e8:	fec42783          	lw	a5,-20(s0)
8000e9ec:	00178793          	addi	a5,a5,1
8000e9f0:	fef42623          	sw	a5,-20(s0)
8000e9f4:	1040006f          	j	8000eaf8 <lexan+0x318>
8000e9f8:	fe442783          	lw	a5,-28(s0)
8000e9fc:	00178713          	addi	a4,a5,1
8000ea00:	fee42223          	sw	a4,-28(s0)
8000ea04:	00078713          	mv	a4,a5
8000ea08:	fd442783          	lw	a5,-44(s0)
8000ea0c:	00e787b3          	add	a5,a5,a4
8000ea10:	fe344703          	lbu	a4,-29(s0)
8000ea14:	00e78023          	sb	a4,0(a5)
8000ea18:	fe842783          	lw	a5,-24(s0)
8000ea1c:	00178793          	addi	a5,a5,1
8000ea20:	fef42423          	sw	a5,-24(s0)
8000ea24:	0300006f          	j	8000ea54 <lexan+0x274>
8000ea28:	fe442783          	lw	a5,-28(s0)
8000ea2c:	00178713          	addi	a4,a5,1
8000ea30:	fee42223          	sw	a4,-28(s0)
8000ea34:	00078713          	mv	a4,a5
8000ea38:	fd442783          	lw	a5,-44(s0)
8000ea3c:	00e787b3          	add	a5,a5,a4
8000ea40:	fe344703          	lbu	a4,-29(s0)
8000ea44:	00e78023          	sb	a4,0(a5)
8000ea48:	fe842783          	lw	a5,-24(s0)
8000ea4c:	00178793          	addi	a5,a5,1
8000ea50:	fef42423          	sw	a5,-24(s0)
8000ea54:	fe842783          	lw	a5,-24(s0)
8000ea58:	0007c783          	lbu	a5,0(a5)
8000ea5c:	fef401a3          	sb	a5,-29(s0)
8000ea60:	fe344703          	lbu	a4,-29(s0)
8000ea64:	00a00793          	li	a5,10
8000ea68:	04f70463          	beq	a4,a5,8000eab0 <lexan+0x2d0>
8000ea6c:	fe344783          	lbu	a5,-29(s0)
8000ea70:	04078063          	beqz	a5,8000eab0 <lexan+0x2d0>
8000ea74:	fe344703          	lbu	a4,-29(s0)
8000ea78:	02000793          	li	a5,32
8000ea7c:	02f70a63          	beq	a4,a5,8000eab0 <lexan+0x2d0>
8000ea80:	fe344703          	lbu	a4,-29(s0)
8000ea84:	00900793          	li	a5,9
8000ea88:	02f70463          	beq	a4,a5,8000eab0 <lexan+0x2d0>
8000ea8c:	fe344703          	lbu	a4,-29(s0)
8000ea90:	02600793          	li	a5,38
8000ea94:	00f70e63          	beq	a4,a5,8000eab0 <lexan+0x2d0>
8000ea98:	fe344703          	lbu	a4,-29(s0)
8000ea9c:	02700793          	li	a5,39
8000eaa0:	00f70863          	beq	a4,a5,8000eab0 <lexan+0x2d0>
8000eaa4:	fe344703          	lbu	a4,-29(s0)
8000eaa8:	02200793          	li	a5,34
8000eaac:	f6f71ee3          	bne	a4,a5,8000ea28 <lexan+0x248>
8000eab0:	fe344703          	lbu	a4,-29(s0)
8000eab4:	02700793          	li	a5,39
8000eab8:	00f70863          	beq	a4,a5,8000eac8 <lexan+0x2e8>
8000eabc:	fe344703          	lbu	a4,-29(s0)
8000eac0:	02200793          	li	a5,34
8000eac4:	00f71663          	bne	a4,a5,8000ead0 <lexan+0x2f0>
8000eac8:	fff00793          	li	a5,-1
8000eacc:	0580006f          	j	8000eb24 <lexan+0x344>
8000ead0:	fe442783          	lw	a5,-28(s0)
8000ead4:	00178713          	addi	a4,a5,1
8000ead8:	fee42223          	sw	a4,-28(s0)
8000eadc:	00078713          	mv	a4,a5
8000eae0:	fd442783          	lw	a5,-44(s0)
8000eae4:	00e787b3          	add	a5,a5,a4
8000eae8:	00078023          	sb	zero,0(a5)
8000eaec:	fec42783          	lw	a5,-20(s0)
8000eaf0:	00178793          	addi	a5,a5,1
8000eaf4:	fef42623          	sw	a5,-20(s0)
8000eaf8:	fe842783          	lw	a5,-24(s0)
8000eafc:	0007c783          	lbu	a5,0(a5)
8000eb00:	00078a63          	beqz	a5,8000eb14 <lexan+0x334>
8000eb04:	fe842783          	lw	a5,-24(s0)
8000eb08:	0007c703          	lbu	a4,0(a5)
8000eb0c:	00a00793          	li	a5,10
8000eb10:	d0f714e3          	bne	a4,a5,8000e818 <lexan+0x38>
8000eb14:	fd042783          	lw	a5,-48(s0)
8000eb18:	fe442703          	lw	a4,-28(s0)
8000eb1c:	00e7a023          	sw	a4,0(a5)
8000eb20:	fec42783          	lw	a5,-20(s0)
8000eb24:	00078513          	mv	a0,a5
8000eb28:	03c12403          	lw	s0,60(sp)
8000eb2c:	04010113          	addi	sp,sp,64
8000eb30:	00008067          	ret

8000eb34 <context_irq_enable>:
8000eb34:	fe010113          	addi	sp,sp,-32
8000eb38:	00812e23          	sw	s0,28(sp)
8000eb3c:	02010413          	addi	s0,sp,32
8000eb40:	fea42623          	sw	a0,-20(s0)
8000eb44:	feb42423          	sw	a1,-24(s0)
8000eb48:	fec42783          	lw	a5,-20(s0)
8000eb4c:	0047a783          	lw	a5,4(a5)
8000eb50:	f7f7f713          	andi	a4,a5,-129
8000eb54:	fec42783          	lw	a5,-20(s0)
8000eb58:	00e7a223          	sw	a4,4(a5)
8000eb5c:	fec42783          	lw	a5,-20(s0)
8000eb60:	0047a703          	lw	a4,4(a5)
8000eb64:	fe842783          	lw	a5,-24(s0)
8000eb68:	00078663          	beqz	a5,8000eb74 <context_irq_enable+0x40>
8000eb6c:	08000793          	li	a5,128
8000eb70:	0080006f          	j	8000eb78 <context_irq_enable+0x44>
8000eb74:	00000793          	li	a5,0
8000eb78:	00e7e733          	or	a4,a5,a4
8000eb7c:	fec42783          	lw	a5,-20(s0)
8000eb80:	00e7a223          	sw	a4,4(a5)
8000eb84:	00000013          	nop
8000eb88:	01c12403          	lw	s0,28(sp)
8000eb8c:	02010113          	addi	sp,sp,32
8000eb90:	00008067          	ret

8000eb94 <timer_diff>:
8000eb94:	fe010113          	addi	sp,sp,-32
8000eb98:	00812e23          	sw	s0,28(sp)
8000eb9c:	02010413          	addi	s0,sp,32
8000eba0:	fea42623          	sw	a0,-20(s0)
8000eba4:	feb42423          	sw	a1,-24(s0)
8000eba8:	fec42703          	lw	a4,-20(s0)
8000ebac:	fe842783          	lw	a5,-24(s0)
8000ebb0:	40f707b3          	sub	a5,a4,a5
8000ebb4:	00078513          	mv	a0,a5
8000ebb8:	01c12403          	lw	s0,28(sp)
8000ebbc:	02010113          	addi	sp,sp,32
8000ebc0:	00008067          	ret

8000ebc4 <update_path>:
8000ebc4:	ff010113          	addi	sp,sp,-16
8000ebc8:	00112623          	sw	ra,12(sp)
8000ebcc:	00812423          	sw	s0,8(sp)
8000ebd0:	01010413          	addi	s0,sp,16
8000ebd4:	800177b7          	lui	a5,0x80017
8000ebd8:	03078593          	addi	a1,a5,48 # 80017030 <curdir>
8000ebdc:	800177b7          	lui	a5,0x80017
8000ebe0:	fb078513          	addi	a0,a5,-80 # 80016fb0 <path>
8000ebe4:	d85f90ef          	jal	80008968 <strcpy>
8000ebe8:	00000013          	nop
8000ebec:	00c12083          	lw	ra,12(sp)
8000ebf0:	00812403          	lw	s0,8(sp)
8000ebf4:	01010113          	addi	sp,sp,16
8000ebf8:	00008067          	ret

8000ebfc <full_path>:
8000ebfc:	fd010113          	addi	sp,sp,-48
8000ec00:	02112623          	sw	ra,44(sp)
8000ec04:	02812423          	sw	s0,40(sp)
8000ec08:	03010413          	addi	s0,sp,48
8000ec0c:	fca42e23          	sw	a0,-36(s0)
8000ec10:	fdc42783          	lw	a5,-36(s0)
8000ec14:	00079663          	bnez	a5,8000ec20 <full_path+0x24>
8000ec18:	00000793          	li	a5,0
8000ec1c:	1180006f          	j	8000ed34 <full_path+0x138>
8000ec20:	fdc42783          	lw	a5,-36(s0)
8000ec24:	0007c703          	lbu	a4,0(a5)
8000ec28:	02f00793          	li	a5,47
8000ec2c:	02f71063          	bne	a4,a5,8000ec4c <full_path+0x50>
8000ec30:	fdc42583          	lw	a1,-36(s0)
8000ec34:	800177b7          	lui	a5,0x80017
8000ec38:	fb078513          	addi	a0,a5,-80 # 80016fb0 <path>
8000ec3c:	d2df90ef          	jal	80008968 <strcpy>
8000ec40:	800177b7          	lui	a5,0x80017
8000ec44:	fb078793          	addi	a5,a5,-80 # 80016fb0 <path>
8000ec48:	0ec0006f          	j	8000ed34 <full_path+0x138>
8000ec4c:	00200613          	li	a2,2
8000ec50:	800147b7          	lui	a5,0x80014
8000ec54:	23878593          	addi	a1,a5,568 # 80014238 <r+0x314>
8000ec58:	fdc42503          	lw	a0,-36(s0)
8000ec5c:	9bdf90ef          	jal	80008618 <strncmp>
8000ec60:	00050793          	mv	a5,a0
8000ec64:	00079863          	bnez	a5,8000ec74 <full_path+0x78>
8000ec68:	fdc42783          	lw	a5,-36(s0)
8000ec6c:	00278793          	addi	a5,a5,2
8000ec70:	fcf42e23          	sw	a5,-36(s0)
8000ec74:	800177b7          	lui	a5,0x80017
8000ec78:	03078593          	addi	a1,a5,48 # 80017030 <curdir>
8000ec7c:	800177b7          	lui	a5,0x80017
8000ec80:	fb078513          	addi	a0,a5,-80 # 80016fb0 <path>
8000ec84:	ce5f90ef          	jal	80008968 <strcpy>
8000ec88:	00300613          	li	a2,3
8000ec8c:	800147b7          	lui	a5,0x80014
8000ec90:	23c78593          	addi	a1,a5,572 # 8001423c <r+0x318>
8000ec94:	fdc42503          	lw	a0,-36(s0)
8000ec98:	981f90ef          	jal	80008618 <strncmp>
8000ec9c:	00050793          	mv	a5,a0
8000eca0:	02078263          	beqz	a5,8000ecc4 <full_path+0xc8>
8000eca4:	fdc42783          	lw	a5,-36(s0)
8000eca8:	0007c783          	lbu	a5,0(a5)
8000ecac:	08078063          	beqz	a5,8000ed2c <full_path+0x130>
8000ecb0:	fdc42583          	lw	a1,-36(s0)
8000ecb4:	800177b7          	lui	a5,0x80017
8000ecb8:	fb078513          	addi	a0,a5,-80 # 80016fb0 <path>
8000ecbc:	da9f90ef          	jal	80008a64 <strcat>
8000ecc0:	06c0006f          	j	8000ed2c <full_path+0x130>
8000ecc4:	fdc42783          	lw	a5,-36(s0)
8000ecc8:	00378793          	addi	a5,a5,3
8000eccc:	fcf42e23          	sw	a5,-36(s0)
8000ecd0:	02f00593          	li	a1,47
8000ecd4:	800177b7          	lui	a5,0x80017
8000ecd8:	fb078513          	addi	a0,a5,-80 # 80016fb0 <path>
8000ecdc:	fedf90ef          	jal	80008cc8 <strrchr>
8000ece0:	fea42623          	sw	a0,-20(s0)
8000ece4:	fec42783          	lw	a5,-20(s0)
8000ece8:	00078663          	beqz	a5,8000ecf4 <full_path+0xf8>
8000ecec:	fec42783          	lw	a5,-20(s0)
8000ecf0:	00078023          	sb	zero,0(a5)
8000ecf4:	02f00593          	li	a1,47
8000ecf8:	800177b7          	lui	a5,0x80017
8000ecfc:	fb078513          	addi	a0,a5,-80 # 80016fb0 <path>
8000ed00:	fc9f90ef          	jal	80008cc8 <strrchr>
8000ed04:	fea42623          	sw	a0,-20(s0)
8000ed08:	fec42783          	lw	a5,-20(s0)
8000ed0c:	00078863          	beqz	a5,8000ed1c <full_path+0x120>
8000ed10:	fec42783          	lw	a5,-20(s0)
8000ed14:	00178793          	addi	a5,a5,1
8000ed18:	00078023          	sb	zero,0(a5)
8000ed1c:	fdc42583          	lw	a1,-36(s0)
8000ed20:	800177b7          	lui	a5,0x80017
8000ed24:	fb078513          	addi	a0,a5,-80 # 80016fb0 <path>
8000ed28:	d3df90ef          	jal	80008a64 <strcat>
8000ed2c:	800177b7          	lui	a5,0x80017
8000ed30:	fb078793          	addi	a5,a5,-80 # 80016fb0 <path>
8000ed34:	00078513          	mv	a0,a5
8000ed38:	02c12083          	lw	ra,44(sp)
8000ed3c:	02812403          	lw	s0,40(sp)
8000ed40:	03010113          	addi	sp,sp,48
8000ed44:	00008067          	ret

8000ed48 <readBytes>:
8000ed48:	fd010113          	addi	sp,sp,-48
8000ed4c:	02812623          	sw	s0,44(sp)
8000ed50:	03010413          	addi	s0,sp,48
8000ed54:	fca42e23          	sw	a0,-36(s0)
8000ed58:	fcb42c23          	sw	a1,-40(s0)
8000ed5c:	fe042623          	sw	zero,-20(s0)
8000ed60:	03c0006f          	j	8000ed9c <readBytes+0x54>
8000ed64:	100007b7          	lui	a5,0x10000
8000ed68:	0007c783          	lbu	a5,0(a5) # 10000000 <_start-0x70000000>
8000ed6c:	fef42423          	sw	a5,-24(s0)
8000ed70:	fe842783          	lw	a5,-24(s0)
8000ed74:	0207cc63          	bltz	a5,8000edac <readBytes+0x64>
8000ed78:	fdc42783          	lw	a5,-36(s0)
8000ed7c:	00178713          	addi	a4,a5,1
8000ed80:	fce42e23          	sw	a4,-36(s0)
8000ed84:	fe842703          	lw	a4,-24(s0)
8000ed88:	0ff77713          	zext.b	a4,a4
8000ed8c:	00e78023          	sb	a4,0(a5)
8000ed90:	fec42783          	lw	a5,-20(s0)
8000ed94:	00178793          	addi	a5,a5,1
8000ed98:	fef42623          	sw	a5,-20(s0)
8000ed9c:	fec42703          	lw	a4,-20(s0)
8000eda0:	fd842783          	lw	a5,-40(s0)
8000eda4:	fcf740e3          	blt	a4,a5,8000ed64 <readBytes+0x1c>
8000eda8:	0080006f          	j	8000edb0 <readBytes+0x68>
8000edac:	00000013          	nop
8000edb0:	fec42783          	lw	a5,-20(s0)
8000edb4:	00078513          	mv	a0,a5
8000edb8:	02c12403          	lw	s0,44(sp)
8000edbc:	03010113          	addi	sp,sp,48
8000edc0:	00008067          	ret

8000edc4 <shell>:
8000edc4:	da010113          	addi	sp,sp,-608
8000edc8:	24112e23          	sw	ra,604(sp)
8000edcc:	24812c23          	sw	s0,600(sp)
8000edd0:	26010413          	addi	s0,sp,608
8000edd4:	dca42623          	sw	a0,-564(s0)
8000edd8:	dcb42423          	sw	a1,-568(s0)
8000eddc:	800147b7          	lui	a5,0x80014
8000ede0:	42078593          	addi	a1,a5,1056 # 80014420 <cmdtab+0x138>
8000ede4:	800177b7          	lui	a5,0x80017
8000ede8:	fb078513          	addi	a0,a5,-80 # 80016fb0 <path>
8000edec:	b7df90ef          	jal	80008968 <strcpy>
8000edf0:	800177b7          	lui	a5,0x80017
8000edf4:	fb078593          	addi	a1,a5,-80 # 80016fb0 <path>
8000edf8:	800177b7          	lui	a5,0x80017
8000edfc:	03078513          	addi	a0,a5,48 # 80017030 <curdir>
8000ee00:	b69f90ef          	jal	80008968 <strcpy>
8000ee04:	fc042423          	sw	zero,-56(s0)
8000ee08:	800147b7          	lui	a5,0x80014
8000ee0c:	52c78793          	addi	a5,a5,1324 # 8001452c <cmdtab+0x244>
8000ee10:	00f12823          	sw	a5,16(sp)
8000ee14:	800147b7          	lui	a5,0x80014
8000ee18:	4d478793          	addi	a5,a5,1236 # 800144d4 <cmdtab+0x1ec>
8000ee1c:	00f12623          	sw	a5,12(sp)
8000ee20:	800147b7          	lui	a5,0x80014
8000ee24:	53478793          	addi	a5,a5,1332 # 80014534 <cmdtab+0x24c>
8000ee28:	00f12423          	sw	a5,8(sp)
8000ee2c:	800147b7          	lui	a5,0x80014
8000ee30:	56878793          	addi	a5,a5,1384 # 80014568 <cmdtab+0x280>
8000ee34:	00f12223          	sw	a5,4(sp)
8000ee38:	800147b7          	lui	a5,0x80014
8000ee3c:	59478793          	addi	a5,a5,1428 # 80014594 <cmdtab+0x2ac>
8000ee40:	00f12023          	sw	a5,0(sp)
8000ee44:	800147b7          	lui	a5,0x80014
8000ee48:	42478893          	addi	a7,a5,1060 # 80014424 <cmdtab+0x13c>
8000ee4c:	800147b7          	lui	a5,0x80014
8000ee50:	45078813          	addi	a6,a5,1104 # 80014450 <cmdtab+0x168>
8000ee54:	800147b7          	lui	a5,0x80014
8000ee58:	47c78793          	addi	a5,a5,1148 # 8001447c <cmdtab+0x194>
8000ee5c:	80014737          	lui	a4,0x80014
8000ee60:	4a870713          	addi	a4,a4,1192 # 800144a8 <cmdtab+0x1c0>
8000ee64:	800146b7          	lui	a3,0x80014
8000ee68:	4d468693          	addi	a3,a3,1236 # 800144d4 <cmdtab+0x1ec>
8000ee6c:	80014637          	lui	a2,0x80014
8000ee70:	50060613          	addi	a2,a2,1280 # 80014500 <cmdtab+0x218>
8000ee74:	800145b7          	lui	a1,0x80014
8000ee78:	50858593          	addi	a1,a1,1288 # 80014508 <cmdtab+0x220>
8000ee7c:	fc842503          	lw	a0,-56(s0)
8000ee80:	c41f50ef          	jal	80004ac0 <fprintf>
8000ee84:	800147b7          	lui	a5,0x80014
8000ee88:	5c078613          	addi	a2,a5,1472 # 800145c0 <cmdtab+0x2d8>
8000ee8c:	800147b7          	lui	a5,0x80014
8000ee90:	5d478593          	addi	a1,a5,1492 # 800145d4 <cmdtab+0x2ec>
8000ee94:	fc842503          	lw	a0,-56(s0)
8000ee98:	c29f50ef          	jal	80004ac0 <fprintf>
8000ee9c:	800147b7          	lui	a5,0x80014
8000eea0:	5dc78593          	addi	a1,a5,1500 # 800145dc <cmdtab+0x2f4>
8000eea4:	fc842503          	lw	a0,-56(s0)
8000eea8:	c19f50ef          	jal	80004ac0 <fprintf>
8000eeac:	0080006f          	j	8000eeb4 <shell+0xf0>
8000eeb0:	d60fc0ef          	jal	8000b410 <yield>
8000eeb4:	100007b7          	lui	a5,0x10000
8000eeb8:	00578793          	addi	a5,a5,5 # 10000005 <_start-0x6ffffffb>
8000eebc:	0007c783          	lbu	a5,0(a5)
8000eec0:	fe0788e3          	beqz	a5,8000eeb0 <shell+0xec>
8000eec4:	0180006f          	j	8000eedc <shell+0x118>
8000eec8:	f9840793          	addi	a5,s0,-104
8000eecc:	02100593          	li	a1,33
8000eed0:	00078513          	mv	a0,a5
8000eed4:	e75ff0ef          	jal	8000ed48 <readBytes>
8000eed8:	fea42623          	sw	a0,-20(s0)
8000eedc:	100007b7          	lui	a5,0x10000
8000eee0:	00578793          	addi	a5,a5,5 # 10000005 <_start-0x6ffffffb>
8000eee4:	0007c783          	lbu	a5,0(a5)
8000eee8:	fe0790e3          	bnez	a5,8000eec8 <shell+0x104>
8000eeec:	fec42703          	lw	a4,-20(s0)
8000eef0:	ffe00793          	li	a5,-2
8000eef4:	42f70663          	beq	a4,a5,8000f320 <shell+0x55c>
8000eef8:	fec42703          	lw	a4,-20(s0)
8000eefc:	00100793          	li	a5,1
8000ef00:	40e7d863          	bge	a5,a4,8000f310 <shell+0x54c>
8000ef04:	fec42783          	lw	a5,-20(s0)
8000ef08:	ff078793          	addi	a5,a5,-16
8000ef0c:	008787b3          	add	a5,a5,s0
8000ef10:	00a00713          	li	a4,10
8000ef14:	fae78423          	sb	a4,-88(a5)
8000ef18:	e5040793          	addi	a5,s0,-432
8000ef1c:	ed040713          	addi	a4,s0,-304
8000ef20:	f5040693          	addi	a3,s0,-176
8000ef24:	f5440613          	addi	a2,s0,-172
8000ef28:	f9840513          	addi	a0,s0,-104
8000ef2c:	fec42583          	lw	a1,-20(s0)
8000ef30:	8b1ff0ef          	jal	8000e7e0 <lexan>
8000ef34:	fea42423          	sw	a0,-24(s0)
8000ef38:	fe842703          	lw	a4,-24(s0)
8000ef3c:	fff00793          	li	a5,-1
8000ef40:	02f71063          	bne	a4,a5,8000ef60 <shell+0x19c>
8000ef44:	800147b7          	lui	a5,0x80014
8000ef48:	5e478613          	addi	a2,a5,1508 # 800145e4 <cmdtab+0x2fc>
8000ef4c:	800147b7          	lui	a5,0x80014
8000ef50:	5f478593          	addi	a1,a5,1524 # 800145f4 <cmdtab+0x30c>
8000ef54:	fc842503          	lw	a0,-56(s0)
8000ef58:	b69f50ef          	jal	80004ac0 <fprintf>
8000ef5c:	3c00006f          	j	8000f31c <shell+0x558>
8000ef60:	fe842783          	lw	a5,-24(s0)
8000ef64:	00079c63          	bnez	a5,8000ef7c <shell+0x1b8>
8000ef68:	800147b7          	lui	a5,0x80014
8000ef6c:	5f878593          	addi	a1,a5,1528 # 800145f8 <cmdtab+0x310>
8000ef70:	fc842503          	lw	a0,-56(s0)
8000ef74:	b4df50ef          	jal	80004ac0 <fprintf>
8000ef78:	3a40006f          	j	8000f31c <shell+0x558>
8000ef7c:	fe842783          	lw	a5,-24(s0)
8000ef80:	fff78793          	addi	a5,a5,-1
8000ef84:	00279793          	slli	a5,a5,0x2
8000ef88:	ff078793          	addi	a5,a5,-16
8000ef8c:	008787b3          	add	a5,a5,s0
8000ef90:	e607a783          	lw	a5,-416(a5)
8000ef94:	02079463          	bnez	a5,8000efbc <shell+0x1f8>
8000ef98:	fe842783          	lw	a5,-24(s0)
8000ef9c:	fff78793          	addi	a5,a5,-1
8000efa0:	fef42423          	sw	a5,-24(s0)
8000efa4:	f5042783          	lw	a5,-176(s0)
8000efa8:	ffe78793          	addi	a5,a5,-2
8000efac:	f4f42823          	sw	a5,-176(s0)
8000efb0:	00100793          	li	a5,1
8000efb4:	fef403a3          	sb	a5,-25(s0)
8000efb8:	0080006f          	j	8000efc0 <shell+0x1fc>
8000efbc:	fe0403a3          	sb	zero,-25(s0)
8000efc0:	fe042023          	sw	zero,-32(s0)
8000efc4:	02c0006f          	j	8000eff0 <shell+0x22c>
8000efc8:	fe042783          	lw	a5,-32(s0)
8000efcc:	00279793          	slli	a5,a5,0x2
8000efd0:	ff078793          	addi	a5,a5,-16
8000efd4:	008787b3          	add	a5,a5,s0
8000efd8:	e607a703          	lw	a4,-416(a5)
8000efdc:	00300793          	li	a5,3
8000efe0:	02f71063          	bne	a4,a5,8000f000 <shell+0x23c>
8000efe4:	fe042783          	lw	a5,-32(s0)
8000efe8:	00178793          	addi	a5,a5,1
8000efec:	fef42023          	sw	a5,-32(s0)
8000eff0:	fe042703          	lw	a4,-32(s0)
8000eff4:	fe842783          	lw	a5,-24(s0)
8000eff8:	fcf748e3          	blt	a4,a5,8000efc8 <shell+0x204>
8000effc:	0080006f          	j	8000f004 <shell+0x240>
8000f000:	00000013          	nop
8000f004:	fe842783          	lw	a5,-24(s0)
8000f008:	00078863          	beqz	a5,8000f018 <shell+0x254>
8000f00c:	fe042703          	lw	a4,-32(s0)
8000f010:	fe842783          	lw	a5,-24(s0)
8000f014:	00f75c63          	bge	a4,a5,8000f02c <shell+0x268>
8000f018:	800147b7          	lui	a5,0x80014
8000f01c:	5e478593          	addi	a1,a5,1508 # 800145e4 <cmdtab+0x2fc>
8000f020:	fc842503          	lw	a0,-56(s0)
8000f024:	a9df50ef          	jal	80004ac0 <fprintf>
8000f028:	2f40006f          	j	8000f31c <shell+0x558>
8000f02c:	fc842783          	lw	a5,-56(s0)
8000f030:	fcf42223          	sw	a5,-60(s0)
8000f034:	fc442783          	lw	a5,-60(s0)
8000f038:	fcf42023          	sw	a5,-64(s0)
8000f03c:	fc042e23          	sw	zero,-36(s0)
8000f040:	0a40006f          	j	8000f0e4 <shell+0x320>
8000f044:	800147b7          	lui	a5,0x80014
8000f048:	2e878693          	addi	a3,a5,744 # 800142e8 <cmdtab>
8000f04c:	fdc42703          	lw	a4,-36(s0)
8000f050:	00070793          	mv	a5,a4
8000f054:	00179793          	slli	a5,a5,0x1
8000f058:	00e787b3          	add	a5,a5,a4
8000f05c:	00279793          	slli	a5,a5,0x2
8000f060:	00f687b3          	add	a5,a3,a5
8000f064:	0007a783          	lw	a5,0(a5)
8000f068:	fcf42a23          	sw	a5,-44(s0)
8000f06c:	f5440793          	addi	a5,s0,-172
8000f070:	fcf42823          	sw	a5,-48(s0)
8000f074:	fc0407a3          	sb	zero,-49(s0)
8000f078:	03c0006f          	j	8000f0b4 <shell+0x2f0>
8000f07c:	fd042783          	lw	a5,-48(s0)
8000f080:	0007c703          	lbu	a4,0(a5)
8000f084:	fd442783          	lw	a5,-44(s0)
8000f088:	0007c783          	lbu	a5,0(a5)
8000f08c:	00f70863          	beq	a4,a5,8000f09c <shell+0x2d8>
8000f090:	00100793          	li	a5,1
8000f094:	fcf407a3          	sb	a5,-49(s0)
8000f098:	0280006f          	j	8000f0c0 <shell+0x2fc>
8000f09c:	fd442783          	lw	a5,-44(s0)
8000f0a0:	00178793          	addi	a5,a5,1
8000f0a4:	fcf42a23          	sw	a5,-44(s0)
8000f0a8:	fd042783          	lw	a5,-48(s0)
8000f0ac:	00178793          	addi	a5,a5,1
8000f0b0:	fcf42823          	sw	a5,-48(s0)
8000f0b4:	fd442783          	lw	a5,-44(s0)
8000f0b8:	0007c783          	lbu	a5,0(a5)
8000f0bc:	fc0790e3          	bnez	a5,8000f07c <shell+0x2b8>
8000f0c0:	fcf44783          	lbu	a5,-49(s0)
8000f0c4:	00079863          	bnez	a5,8000f0d4 <shell+0x310>
8000f0c8:	fd042783          	lw	a5,-48(s0)
8000f0cc:	0007c783          	lbu	a5,0(a5)
8000f0d0:	02078263          	beqz	a5,8000f0f4 <shell+0x330>
8000f0d4:	00000013          	nop
8000f0d8:	fdc42783          	lw	a5,-36(s0)
8000f0dc:	00178793          	addi	a5,a5,1
8000f0e0:	fcf42e23          	sw	a5,-36(s0)
8000f0e4:	fdc42703          	lw	a4,-36(s0)
8000f0e8:	800177b7          	lui	a5,0x80017
8000f0ec:	9bc7a783          	lw	a5,-1604(a5) # 800169bc <ncmd>
8000f0f0:	f4f76ae3          	bltu	a4,a5,8000f044 <shell+0x280>
8000f0f4:	fdc42703          	lw	a4,-36(s0)
8000f0f8:	800177b7          	lui	a5,0x80017
8000f0fc:	9bc7a783          	lw	a5,-1604(a5) # 800169bc <ncmd>
8000f100:	02f76063          	bltu	a4,a5,8000f120 <shell+0x35c>
8000f104:	f5440793          	addi	a5,s0,-172
8000f108:	00078613          	mv	a2,a5
8000f10c:	800147b7          	lui	a5,0x80014
8000f110:	5fc78593          	addi	a1,a5,1532 # 800145fc <cmdtab+0x314>
8000f114:	fc842503          	lw	a0,-56(s0)
8000f118:	9a9f50ef          	jal	80004ac0 <fprintf>
8000f11c:	2000006f          	j	8000f31c <shell+0x558>
8000f120:	fe042023          	sw	zero,-32(s0)
8000f124:	0400006f          	j	8000f164 <shell+0x3a0>
8000f128:	fe042783          	lw	a5,-32(s0)
8000f12c:	00279793          	slli	a5,a5,0x2
8000f130:	ff078793          	addi	a5,a5,-16
8000f134:	008787b3          	add	a5,a5,s0
8000f138:	ee07a783          	lw	a5,-288(a5)
8000f13c:	f5440713          	addi	a4,s0,-172
8000f140:	00f70733          	add	a4,a4,a5
8000f144:	fe042783          	lw	a5,-32(s0)
8000f148:	00279793          	slli	a5,a5,0x2
8000f14c:	ff078793          	addi	a5,a5,-16
8000f150:	008787b3          	add	a5,a5,s0
8000f154:	dee7a023          	sw	a4,-544(a5)
8000f158:	fe042783          	lw	a5,-32(s0)
8000f15c:	00178793          	addi	a5,a5,1
8000f160:	fef42023          	sw	a5,-32(s0)
8000f164:	fe042703          	lw	a4,-32(s0)
8000f168:	fe842783          	lw	a5,-24(s0)
8000f16c:	faf74ee3          	blt	a4,a5,8000f128 <shell+0x364>
8000f170:	800147b7          	lui	a5,0x80014
8000f174:	2e878693          	addi	a3,a5,744 # 800142e8 <cmdtab>
8000f178:	fdc42703          	lw	a4,-36(s0)
8000f17c:	00070793          	mv	a5,a4
8000f180:	00179793          	slli	a5,a5,0x1
8000f184:	00e787b3          	add	a5,a5,a4
8000f188:	00279793          	slli	a5,a5,0x2
8000f18c:	00f687b3          	add	a5,a3,a5
8000f190:	0047c783          	lbu	a5,4(a5)
8000f194:	06078263          	beqz	a5,8000f1f8 <shell+0x434>
8000f198:	fe744783          	lbu	a5,-25(s0)
8000f19c:	00078c63          	beqz	a5,8000f1b4 <shell+0x3f0>
8000f1a0:	800147b7          	lui	a5,0x80014
8000f1a4:	61478593          	addi	a1,a5,1556 # 80014614 <cmdtab+0x32c>
8000f1a8:	fc842503          	lw	a0,-56(s0)
8000f1ac:	915f50ef          	jal	80004ac0 <fprintf>
8000f1b0:	16c0006f          	j	8000f31c <shell+0x558>
8000f1b4:	800147b7          	lui	a5,0x80014
8000f1b8:	2e878693          	addi	a3,a5,744 # 800142e8 <cmdtab>
8000f1bc:	fdc42703          	lw	a4,-36(s0)
8000f1c0:	00070793          	mv	a5,a4
8000f1c4:	00179793          	slli	a5,a5,0x1
8000f1c8:	00e787b3          	add	a5,a5,a4
8000f1cc:	00279793          	slli	a5,a5,0x2
8000f1d0:	00f687b3          	add	a5,a3,a5
8000f1d4:	0087a783          	lw	a5,8(a5)
8000f1d8:	dd040713          	addi	a4,s0,-560
8000f1dc:	00070593          	mv	a1,a4
8000f1e0:	fe842503          	lw	a0,-24(s0)
8000f1e4:	000780e7          	jalr	a5
8000f1e8:	00050713          	mv	a4,a0
8000f1ec:	ffd00793          	li	a5,-3
8000f1f0:	12f71463          	bne	a4,a5,8000f318 <shell+0x554>
8000f1f4:	1300006f          	j	8000f324 <shell+0x560>
8000f1f8:	800147b7          	lui	a5,0x80014
8000f1fc:	2e878693          	addi	a3,a5,744 # 800142e8 <cmdtab>
8000f200:	fdc42703          	lw	a4,-36(s0)
8000f204:	00070793          	mv	a5,a4
8000f208:	00179793          	slli	a5,a5,0x1
8000f20c:	00e787b3          	add	a5,a5,a4
8000f210:	00279793          	slli	a5,a5,0x2
8000f214:	00f687b3          	add	a5,a3,a5
8000f218:	0087a503          	lw	a0,8(a5)
8000f21c:	800147b7          	lui	a5,0x80014
8000f220:	2e878693          	addi	a3,a5,744 # 800142e8 <cmdtab>
8000f224:	fdc42703          	lw	a4,-36(s0)
8000f228:	00070793          	mv	a5,a4
8000f22c:	00179793          	slli	a5,a5,0x1
8000f230:	00e787b3          	add	a5,a5,a4
8000f234:	00279793          	slli	a5,a5,0x2
8000f238:	00f687b3          	add	a5,a3,a5
8000f23c:	0007a683          	lw	a3,0(a5)
8000f240:	fe842703          	lw	a4,-24(s0)
8000f244:	dd040793          	addi	a5,s0,-560
8000f248:	01400613          	li	a2,20
8000f24c:	000025b7          	lui	a1,0x2
8000f250:	909fb0ef          	jal	8000ab58 <createFromShell>
8000f254:	faa42e23          	sw	a0,-68(s0)
8000f258:	fbc42703          	lw	a4,-68(s0)
8000f25c:	fff00793          	li	a5,-1
8000f260:	00f71c63          	bne	a4,a5,8000f278 <shell+0x4b4>
8000f264:	800147b7          	lui	a5,0x80014
8000f268:	64478593          	addi	a1,a5,1604 # 80014644 <cmdtab+0x35c>
8000f26c:	fc842503          	lw	a0,-56(s0)
8000f270:	851f50ef          	jal	80004ac0 <fprintf>
8000f274:	0a80006f          	j	8000f31c <shell+0x558>
8000f278:	fc042783          	lw	a5,-64(s0)
8000f27c:	01079713          	slli	a4,a5,0x10
8000f280:	41075713          	srai	a4,a4,0x10
8000f284:	800177b7          	lui	a5,0x80017
8000f288:	a3c78693          	addi	a3,a5,-1476 # 80016a3c <proctab>
8000f28c:	fbc42603          	lw	a2,-68(s0)
8000f290:	06400793          	li	a5,100
8000f294:	02f607b3          	mul	a5,a2,a5
8000f298:	00f687b3          	add	a5,a3,a5
8000f29c:	02e79923          	sh	a4,50(a5)
8000f2a0:	fc442783          	lw	a5,-60(s0)
8000f2a4:	01079713          	slli	a4,a5,0x10
8000f2a8:	41075713          	srai	a4,a4,0x10
8000f2ac:	800177b7          	lui	a5,0x80017
8000f2b0:	a3c78693          	addi	a3,a5,-1476 # 80016a3c <proctab>
8000f2b4:	fbc42603          	lw	a2,-68(s0)
8000f2b8:	06400793          	li	a5,100
8000f2bc:	02f607b3          	mul	a5,a2,a5
8000f2c0:	00f687b3          	add	a5,a3,a5
8000f2c4:	02e79a23          	sh	a4,52(a5)
8000f2c8:	facfd0ef          	jal	8000ca74 <recvclr>
8000f2cc:	00050793          	mv	a5,a0
8000f2d0:	fcf42c23          	sw	a5,-40(s0)
8000f2d4:	fbc42503          	lw	a0,-68(s0)
8000f2d8:	ef0fc0ef          	jal	8000b9c8 <resume>
8000f2dc:	fe744783          	lbu	a5,-25(s0)
8000f2e0:	ba079ee3          	bnez	a5,8000ee9c <shell+0xd8>
8000f2e4:	f00fd0ef          	jal	8000c9e4 <receive>
8000f2e8:	00050793          	mv	a5,a0
8000f2ec:	fcf42c23          	sw	a5,-40(s0)
8000f2f0:	0100006f          	j	8000f300 <shell+0x53c>
8000f2f4:	ef0fd0ef          	jal	8000c9e4 <receive>
8000f2f8:	00050793          	mv	a5,a0
8000f2fc:	fcf42c23          	sw	a5,-40(s0)
8000f300:	fd842703          	lw	a4,-40(s0)
8000f304:	fbc42783          	lw	a5,-68(s0)
8000f308:	fef716e3          	bne	a4,a5,8000f2f4 <shell+0x530>
8000f30c:	b91ff06f          	j	8000ee9c <shell+0xd8>
8000f310:	00000013          	nop
8000f314:	b89ff06f          	j	8000ee9c <shell+0xd8>
8000f318:	00000013          	nop
8000f31c:	b81ff06f          	j	8000ee9c <shell+0xd8>
8000f320:	00000013          	nop
8000f324:	800147b7          	lui	a5,0x80014
8000f328:	65c78593          	addi	a1,a5,1628 # 8001465c <cmdtab+0x374>
8000f32c:	fc842503          	lw	a0,-56(s0)
8000f330:	f90f50ef          	jal	80004ac0 <fprintf>
8000f334:	00100793          	li	a5,1
8000f338:	00078513          	mv	a0,a5
8000f33c:	25c12083          	lw	ra,604(sp)
8000f340:	25812403          	lw	s0,600(sp)
8000f344:	26010113          	addi	sp,sp,608
8000f348:	00008067          	ret

8000f34c <context_irq_enable>:
8000f34c:	fe010113          	addi	sp,sp,-32
8000f350:	00812e23          	sw	s0,28(sp)
8000f354:	02010413          	addi	s0,sp,32
8000f358:	fea42623          	sw	a0,-20(s0)
8000f35c:	feb42423          	sw	a1,-24(s0)
8000f360:	fec42783          	lw	a5,-20(s0)
8000f364:	0047a783          	lw	a5,4(a5)
8000f368:	f7f7f713          	andi	a4,a5,-129
8000f36c:	fec42783          	lw	a5,-20(s0)
8000f370:	00e7a223          	sw	a4,4(a5)
8000f374:	fec42783          	lw	a5,-20(s0)
8000f378:	0047a703          	lw	a4,4(a5)
8000f37c:	fe842783          	lw	a5,-24(s0)
8000f380:	00078663          	beqz	a5,8000f38c <context_irq_enable+0x40>
8000f384:	08000793          	li	a5,128
8000f388:	0080006f          	j	8000f390 <context_irq_enable+0x44>
8000f38c:	00000793          	li	a5,0
8000f390:	00e7e733          	or	a4,a5,a4
8000f394:	fec42783          	lw	a5,-20(s0)
8000f398:	00e7a223          	sw	a4,4(a5)
8000f39c:	00000013          	nop
8000f3a0:	01c12403          	lw	s0,28(sp)
8000f3a4:	02010113          	addi	sp,sp,32
8000f3a8:	00008067          	ret

8000f3ac <timer_diff>:
8000f3ac:	fe010113          	addi	sp,sp,-32
8000f3b0:	00812e23          	sw	s0,28(sp)
8000f3b4:	02010413          	addi	s0,sp,32
8000f3b8:	fea42623          	sw	a0,-20(s0)
8000f3bc:	feb42423          	sw	a1,-24(s0)
8000f3c0:	fec42703          	lw	a4,-20(s0)
8000f3c4:	fe842783          	lw	a5,-24(s0)
8000f3c8:	40f707b3          	sub	a5,a4,a5
8000f3cc:	00078513          	mv	a0,a5
8000f3d0:	01c12403          	lw	s0,28(sp)
8000f3d4:	02010113          	addi	sp,sp,32
8000f3d8:	00008067          	ret

8000f3dc <xsh_aes>:
8000f3dc:	fe010113          	addi	sp,sp,-32
8000f3e0:	00812e23          	sw	s0,28(sp)
8000f3e4:	02010413          	addi	s0,sp,32
8000f3e8:	fea42623          	sw	a0,-20(s0)
8000f3ec:	feb42423          	sw	a1,-24(s0)
8000f3f0:	00000793          	li	a5,0
8000f3f4:	00078513          	mv	a0,a5
8000f3f8:	01c12403          	lw	s0,28(sp)
8000f3fc:	02010113          	addi	sp,sp,32
8000f400:	00008067          	ret

8000f404 <context_irq_enable>:
8000f404:	fe010113          	addi	sp,sp,-32
8000f408:	00812e23          	sw	s0,28(sp)
8000f40c:	02010413          	addi	s0,sp,32
8000f410:	fea42623          	sw	a0,-20(s0)
8000f414:	feb42423          	sw	a1,-24(s0)
8000f418:	fec42783          	lw	a5,-20(s0)
8000f41c:	0047a783          	lw	a5,4(a5)
8000f420:	f7f7f713          	andi	a4,a5,-129
8000f424:	fec42783          	lw	a5,-20(s0)
8000f428:	00e7a223          	sw	a4,4(a5)
8000f42c:	fec42783          	lw	a5,-20(s0)
8000f430:	0047a703          	lw	a4,4(a5)
8000f434:	fe842783          	lw	a5,-24(s0)
8000f438:	00078663          	beqz	a5,8000f444 <context_irq_enable+0x40>
8000f43c:	08000793          	li	a5,128
8000f440:	0080006f          	j	8000f448 <context_irq_enable+0x44>
8000f444:	00000793          	li	a5,0
8000f448:	00e7e733          	or	a4,a5,a4
8000f44c:	fec42783          	lw	a5,-20(s0)
8000f450:	00e7a223          	sw	a4,4(a5)
8000f454:	00000013          	nop
8000f458:	01c12403          	lw	s0,28(sp)
8000f45c:	02010113          	addi	sp,sp,32
8000f460:	00008067          	ret

8000f464 <timer_diff>:
8000f464:	fe010113          	addi	sp,sp,-32
8000f468:	00812e23          	sw	s0,28(sp)
8000f46c:	02010413          	addi	s0,sp,32
8000f470:	fea42623          	sw	a0,-20(s0)
8000f474:	feb42423          	sw	a1,-24(s0)
8000f478:	fec42703          	lw	a4,-20(s0)
8000f47c:	fe842783          	lw	a5,-24(s0)
8000f480:	40f707b3          	sub	a5,a4,a5
8000f484:	00078513          	mv	a0,a5
8000f488:	01c12403          	lw	s0,28(sp)
8000f48c:	02010113          	addi	sp,sp,32
8000f490:	00008067          	ret

8000f494 <xsh_blink>:
8000f494:	fe010113          	addi	sp,sp,-32
8000f498:	00812e23          	sw	s0,28(sp)
8000f49c:	02010413          	addi	s0,sp,32
8000f4a0:	fea42623          	sw	a0,-20(s0)
8000f4a4:	feb42423          	sw	a1,-24(s0)
8000f4a8:	00000793          	li	a5,0
8000f4ac:	00078513          	mv	a0,a5
8000f4b0:	01c12403          	lw	s0,28(sp)
8000f4b4:	02010113          	addi	sp,sp,32
8000f4b8:	00008067          	ret

8000f4bc <context_irq_enable>:
8000f4bc:	fe010113          	addi	sp,sp,-32
8000f4c0:	00812e23          	sw	s0,28(sp)
8000f4c4:	02010413          	addi	s0,sp,32
8000f4c8:	fea42623          	sw	a0,-20(s0)
8000f4cc:	feb42423          	sw	a1,-24(s0)
8000f4d0:	fec42783          	lw	a5,-20(s0)
8000f4d4:	0047a783          	lw	a5,4(a5)
8000f4d8:	f7f7f713          	andi	a4,a5,-129
8000f4dc:	fec42783          	lw	a5,-20(s0)
8000f4e0:	00e7a223          	sw	a4,4(a5)
8000f4e4:	fec42783          	lw	a5,-20(s0)
8000f4e8:	0047a703          	lw	a4,4(a5)
8000f4ec:	fe842783          	lw	a5,-24(s0)
8000f4f0:	00078663          	beqz	a5,8000f4fc <context_irq_enable+0x40>
8000f4f4:	08000793          	li	a5,128
8000f4f8:	0080006f          	j	8000f500 <context_irq_enable+0x44>
8000f4fc:	00000793          	li	a5,0
8000f500:	00e7e733          	or	a4,a5,a4
8000f504:	fec42783          	lw	a5,-20(s0)
8000f508:	00e7a223          	sw	a4,4(a5)
8000f50c:	00000013          	nop
8000f510:	01c12403          	lw	s0,28(sp)
8000f514:	02010113          	addi	sp,sp,32
8000f518:	00008067          	ret

8000f51c <timer_diff>:
8000f51c:	fe010113          	addi	sp,sp,-32
8000f520:	00812e23          	sw	s0,28(sp)
8000f524:	02010413          	addi	s0,sp,32
8000f528:	fea42623          	sw	a0,-20(s0)
8000f52c:	feb42423          	sw	a1,-24(s0)
8000f530:	fec42703          	lw	a4,-20(s0)
8000f534:	fe842783          	lw	a5,-24(s0)
8000f538:	40f707b3          	sub	a5,a4,a5
8000f53c:	00078513          	mv	a0,a5
8000f540:	01c12403          	lw	s0,28(sp)
8000f544:	02010113          	addi	sp,sp,32
8000f548:	00008067          	ret

8000f54c <xsh_cat>:
8000f54c:	fe010113          	addi	sp,sp,-32
8000f550:	00812e23          	sw	s0,28(sp)
8000f554:	02010413          	addi	s0,sp,32
8000f558:	fea42623          	sw	a0,-20(s0)
8000f55c:	feb42423          	sw	a1,-24(s0)
8000f560:	00000793          	li	a5,0
8000f564:	00078513          	mv	a0,a5
8000f568:	01c12403          	lw	s0,28(sp)
8000f56c:	02010113          	addi	sp,sp,32
8000f570:	00008067          	ret

8000f574 <context_irq_enable>:
8000f574:	fe010113          	addi	sp,sp,-32
8000f578:	00812e23          	sw	s0,28(sp)
8000f57c:	02010413          	addi	s0,sp,32
8000f580:	fea42623          	sw	a0,-20(s0)
8000f584:	feb42423          	sw	a1,-24(s0)
8000f588:	fec42783          	lw	a5,-20(s0)
8000f58c:	0047a783          	lw	a5,4(a5)
8000f590:	f7f7f713          	andi	a4,a5,-129
8000f594:	fec42783          	lw	a5,-20(s0)
8000f598:	00e7a223          	sw	a4,4(a5)
8000f59c:	fec42783          	lw	a5,-20(s0)
8000f5a0:	0047a703          	lw	a4,4(a5)
8000f5a4:	fe842783          	lw	a5,-24(s0)
8000f5a8:	00078663          	beqz	a5,8000f5b4 <context_irq_enable+0x40>
8000f5ac:	08000793          	li	a5,128
8000f5b0:	0080006f          	j	8000f5b8 <context_irq_enable+0x44>
8000f5b4:	00000793          	li	a5,0
8000f5b8:	00e7e733          	or	a4,a5,a4
8000f5bc:	fec42783          	lw	a5,-20(s0)
8000f5c0:	00e7a223          	sw	a4,4(a5)
8000f5c4:	00000013          	nop
8000f5c8:	01c12403          	lw	s0,28(sp)
8000f5cc:	02010113          	addi	sp,sp,32
8000f5d0:	00008067          	ret

8000f5d4 <timer_diff>:
8000f5d4:	fe010113          	addi	sp,sp,-32
8000f5d8:	00812e23          	sw	s0,28(sp)
8000f5dc:	02010413          	addi	s0,sp,32
8000f5e0:	fea42623          	sw	a0,-20(s0)
8000f5e4:	feb42423          	sw	a1,-24(s0)
8000f5e8:	fec42703          	lw	a4,-20(s0)
8000f5ec:	fe842783          	lw	a5,-24(s0)
8000f5f0:	40f707b3          	sub	a5,a4,a5
8000f5f4:	00078513          	mv	a0,a5
8000f5f8:	01c12403          	lw	s0,28(sp)
8000f5fc:	02010113          	addi	sp,sp,32
8000f600:	00008067          	ret

8000f604 <xsh_cd>:
8000f604:	fe010113          	addi	sp,sp,-32
8000f608:	00812e23          	sw	s0,28(sp)
8000f60c:	02010413          	addi	s0,sp,32
8000f610:	fea42623          	sw	a0,-20(s0)
8000f614:	feb42423          	sw	a1,-24(s0)
8000f618:	00000793          	li	a5,0
8000f61c:	00078513          	mv	a0,a5
8000f620:	01c12403          	lw	s0,28(sp)
8000f624:	02010113          	addi	sp,sp,32
8000f628:	00008067          	ret

8000f62c <context_irq_enable>:
8000f62c:	fe010113          	addi	sp,sp,-32
8000f630:	00812e23          	sw	s0,28(sp)
8000f634:	02010413          	addi	s0,sp,32
8000f638:	fea42623          	sw	a0,-20(s0)
8000f63c:	feb42423          	sw	a1,-24(s0)
8000f640:	fec42783          	lw	a5,-20(s0)
8000f644:	0047a783          	lw	a5,4(a5)
8000f648:	f7f7f713          	andi	a4,a5,-129
8000f64c:	fec42783          	lw	a5,-20(s0)
8000f650:	00e7a223          	sw	a4,4(a5)
8000f654:	fec42783          	lw	a5,-20(s0)
8000f658:	0047a703          	lw	a4,4(a5)
8000f65c:	fe842783          	lw	a5,-24(s0)
8000f660:	00078663          	beqz	a5,8000f66c <context_irq_enable+0x40>
8000f664:	08000793          	li	a5,128
8000f668:	0080006f          	j	8000f670 <context_irq_enable+0x44>
8000f66c:	00000793          	li	a5,0
8000f670:	00e7e733          	or	a4,a5,a4
8000f674:	fec42783          	lw	a5,-20(s0)
8000f678:	00e7a223          	sw	a4,4(a5)
8000f67c:	00000013          	nop
8000f680:	01c12403          	lw	s0,28(sp)
8000f684:	02010113          	addi	sp,sp,32
8000f688:	00008067          	ret

8000f68c <timer_diff>:
8000f68c:	fe010113          	addi	sp,sp,-32
8000f690:	00812e23          	sw	s0,28(sp)
8000f694:	02010413          	addi	s0,sp,32
8000f698:	fea42623          	sw	a0,-20(s0)
8000f69c:	feb42423          	sw	a1,-24(s0)
8000f6a0:	fec42703          	lw	a4,-20(s0)
8000f6a4:	fe842783          	lw	a5,-24(s0)
8000f6a8:	40f707b3          	sub	a5,a4,a5
8000f6ac:	00078513          	mv	a0,a5
8000f6b0:	01c12403          	lw	s0,28(sp)
8000f6b4:	02010113          	addi	sp,sp,32
8000f6b8:	00008067          	ret

8000f6bc <xsh_devdump>:
8000f6bc:	fd010113          	addi	sp,sp,-48
8000f6c0:	02112623          	sw	ra,44(sp)
8000f6c4:	02812423          	sw	s0,40(sp)
8000f6c8:	03010413          	addi	s0,sp,48
8000f6cc:	fca42e23          	sw	a0,-36(s0)
8000f6d0:	fcb42c23          	sw	a1,-40(s0)
8000f6d4:	fdc42703          	lw	a4,-36(s0)
8000f6d8:	00100793          	li	a5,1
8000f6dc:	00e7d663          	bge	a5,a4,8000f6e8 <xsh_devdump+0x2c>
8000f6e0:	00100793          	li	a5,1
8000f6e4:	08c0006f          	j	8000f770 <xsh_devdump+0xb4>
8000f6e8:	800147b7          	lui	a5,0x80014
8000f6ec:	66c78513          	addi	a0,a5,1644 # 8001466c <cmdtab+0x384>
8000f6f0:	c55f70ef          	jal	80007344 <printf>
8000f6f4:	800147b7          	lui	a5,0x80014
8000f6f8:	68878513          	addi	a0,a5,1672 # 80014688 <cmdtab+0x3a0>
8000f6fc:	c49f70ef          	jal	80007344 <printf>
8000f700:	fe042623          	sw	zero,-20(s0)
8000f704:	05c0006f          	j	8000f760 <xsh_devdump+0xa4>
8000f708:	fec42703          	lw	a4,-20(s0)
8000f70c:	00070793          	mv	a5,a4
8000f710:	00479793          	slli	a5,a5,0x4
8000f714:	40e787b3          	sub	a5,a5,a4
8000f718:	00279793          	slli	a5,a5,0x2
8000f71c:	80017737          	lui	a4,0x80017
8000f720:	8f070713          	addi	a4,a4,-1808 # 800168f0 <devtab>
8000f724:	00e787b3          	add	a5,a5,a4
8000f728:	fef42423          	sw	a5,-24(s0)
8000f72c:	fe842783          	lw	a5,-24(s0)
8000f730:	0087a703          	lw	a4,8(a5)
8000f734:	fe842783          	lw	a5,-24(s0)
8000f738:	0047a783          	lw	a5,4(a5)
8000f73c:	00078693          	mv	a3,a5
8000f740:	00070613          	mv	a2,a4
8000f744:	fec42583          	lw	a1,-20(s0)
8000f748:	800147b7          	lui	a5,0x80014
8000f74c:	6a478513          	addi	a0,a5,1700 # 800146a4 <cmdtab+0x3bc>
8000f750:	bf5f70ef          	jal	80007344 <printf>
8000f754:	fec42783          	lw	a5,-20(s0)
8000f758:	00178793          	addi	a5,a5,1
8000f75c:	fef42623          	sw	a5,-20(s0)
8000f760:	fec42703          	lw	a4,-20(s0)
8000f764:	00200793          	li	a5,2
8000f768:	fae7d0e3          	bge	a5,a4,8000f708 <xsh_devdump+0x4c>
8000f76c:	00000793          	li	a5,0
8000f770:	00078513          	mv	a0,a5
8000f774:	02c12083          	lw	ra,44(sp)
8000f778:	02812403          	lw	s0,40(sp)
8000f77c:	03010113          	addi	sp,sp,48
8000f780:	00008067          	ret

8000f784 <context_irq_enable>:
8000f784:	fe010113          	addi	sp,sp,-32
8000f788:	00812e23          	sw	s0,28(sp)
8000f78c:	02010413          	addi	s0,sp,32
8000f790:	fea42623          	sw	a0,-20(s0)
8000f794:	feb42423          	sw	a1,-24(s0)
8000f798:	fec42783          	lw	a5,-20(s0)
8000f79c:	0047a783          	lw	a5,4(a5)
8000f7a0:	f7f7f713          	andi	a4,a5,-129
8000f7a4:	fec42783          	lw	a5,-20(s0)
8000f7a8:	00e7a223          	sw	a4,4(a5)
8000f7ac:	fec42783          	lw	a5,-20(s0)
8000f7b0:	0047a703          	lw	a4,4(a5)
8000f7b4:	fe842783          	lw	a5,-24(s0)
8000f7b8:	00078663          	beqz	a5,8000f7c4 <context_irq_enable+0x40>
8000f7bc:	08000793          	li	a5,128
8000f7c0:	0080006f          	j	8000f7c8 <context_irq_enable+0x44>
8000f7c4:	00000793          	li	a5,0
8000f7c8:	00e7e733          	or	a4,a5,a4
8000f7cc:	fec42783          	lw	a5,-20(s0)
8000f7d0:	00e7a223          	sw	a4,4(a5)
8000f7d4:	00000013          	nop
8000f7d8:	01c12403          	lw	s0,28(sp)
8000f7dc:	02010113          	addi	sp,sp,32
8000f7e0:	00008067          	ret

8000f7e4 <timer_diff>:
8000f7e4:	fe010113          	addi	sp,sp,-32
8000f7e8:	00812e23          	sw	s0,28(sp)
8000f7ec:	02010413          	addi	s0,sp,32
8000f7f0:	fea42623          	sw	a0,-20(s0)
8000f7f4:	feb42423          	sw	a1,-24(s0)
8000f7f8:	fec42703          	lw	a4,-20(s0)
8000f7fc:	fe842783          	lw	a5,-24(s0)
8000f800:	40f707b3          	sub	a5,a4,a5
8000f804:	00078513          	mv	a0,a5
8000f808:	01c12403          	lw	s0,28(sp)
8000f80c:	02010113          	addi	sp,sp,32
8000f810:	00008067          	ret

8000f814 <xsh_dump>:
8000f814:	fe010113          	addi	sp,sp,-32
8000f818:	00812e23          	sw	s0,28(sp)
8000f81c:	02010413          	addi	s0,sp,32
8000f820:	fea42623          	sw	a0,-20(s0)
8000f824:	feb42423          	sw	a1,-24(s0)
8000f828:	00000793          	li	a5,0
8000f82c:	00078513          	mv	a0,a5
8000f830:	01c12403          	lw	s0,28(sp)
8000f834:	02010113          	addi	sp,sp,32
8000f838:	00008067          	ret

8000f83c <context_irq_enable>:
8000f83c:	fe010113          	addi	sp,sp,-32
8000f840:	00812e23          	sw	s0,28(sp)
8000f844:	02010413          	addi	s0,sp,32
8000f848:	fea42623          	sw	a0,-20(s0)
8000f84c:	feb42423          	sw	a1,-24(s0)
8000f850:	fec42783          	lw	a5,-20(s0)
8000f854:	0047a783          	lw	a5,4(a5)
8000f858:	f7f7f713          	andi	a4,a5,-129
8000f85c:	fec42783          	lw	a5,-20(s0)
8000f860:	00e7a223          	sw	a4,4(a5)
8000f864:	fec42783          	lw	a5,-20(s0)
8000f868:	0047a703          	lw	a4,4(a5)
8000f86c:	fe842783          	lw	a5,-24(s0)
8000f870:	00078663          	beqz	a5,8000f87c <context_irq_enable+0x40>
8000f874:	08000793          	li	a5,128
8000f878:	0080006f          	j	8000f880 <context_irq_enable+0x44>
8000f87c:	00000793          	li	a5,0
8000f880:	00e7e733          	or	a4,a5,a4
8000f884:	fec42783          	lw	a5,-20(s0)
8000f888:	00e7a223          	sw	a4,4(a5)
8000f88c:	00000013          	nop
8000f890:	01c12403          	lw	s0,28(sp)
8000f894:	02010113          	addi	sp,sp,32
8000f898:	00008067          	ret

8000f89c <timer_diff>:
8000f89c:	fe010113          	addi	sp,sp,-32
8000f8a0:	00812e23          	sw	s0,28(sp)
8000f8a4:	02010413          	addi	s0,sp,32
8000f8a8:	fea42623          	sw	a0,-20(s0)
8000f8ac:	feb42423          	sw	a1,-24(s0)
8000f8b0:	fec42703          	lw	a4,-20(s0)
8000f8b4:	fe842783          	lw	a5,-24(s0)
8000f8b8:	40f707b3          	sub	a5,a4,a5
8000f8bc:	00078513          	mv	a0,a5
8000f8c0:	01c12403          	lw	s0,28(sp)
8000f8c4:	02010113          	addi	sp,sp,32
8000f8c8:	00008067          	ret

8000f8cc <xsh_echo>:
8000f8cc:	fd010113          	addi	sp,sp,-48
8000f8d0:	02112623          	sw	ra,44(sp)
8000f8d4:	02812423          	sw	s0,40(sp)
8000f8d8:	03010413          	addi	s0,sp,48
8000f8dc:	fca42e23          	sw	a0,-36(s0)
8000f8e0:	fcb42c23          	sw	a1,-40(s0)
8000f8e4:	fdc42703          	lw	a4,-36(s0)
8000f8e8:	00100793          	li	a5,1
8000f8ec:	06e7d463          	bge	a5,a4,8000f954 <xsh_echo+0x88>
8000f8f0:	fd842783          	lw	a5,-40(s0)
8000f8f4:	00478793          	addi	a5,a5,4
8000f8f8:	0007a783          	lw	a5,0(a5)
8000f8fc:	00078593          	mv	a1,a5
8000f900:	800147b7          	lui	a5,0x80014
8000f904:	6b878513          	addi	a0,a5,1720 # 800146b8 <cmdtab+0x3d0>
8000f908:	a3df70ef          	jal	80007344 <printf>
8000f90c:	00200793          	li	a5,2
8000f910:	fef42623          	sw	a5,-20(s0)
8000f914:	0340006f          	j	8000f948 <xsh_echo+0x7c>
8000f918:	fec42783          	lw	a5,-20(s0)
8000f91c:	00279793          	slli	a5,a5,0x2
8000f920:	fd842703          	lw	a4,-40(s0)
8000f924:	00f707b3          	add	a5,a4,a5
8000f928:	0007a783          	lw	a5,0(a5)
8000f92c:	00078593          	mv	a1,a5
8000f930:	800147b7          	lui	a5,0x80014
8000f934:	6bc78513          	addi	a0,a5,1724 # 800146bc <cmdtab+0x3d4>
8000f938:	a0df70ef          	jal	80007344 <printf>
8000f93c:	fec42783          	lw	a5,-20(s0)
8000f940:	00178793          	addi	a5,a5,1
8000f944:	fef42623          	sw	a5,-20(s0)
8000f948:	fec42703          	lw	a4,-20(s0)
8000f94c:	fdc42783          	lw	a5,-36(s0)
8000f950:	fcf744e3          	blt	a4,a5,8000f918 <xsh_echo+0x4c>
8000f954:	800147b7          	lui	a5,0x80014
8000f958:	6c078513          	addi	a0,a5,1728 # 800146c0 <cmdtab+0x3d8>
8000f95c:	9e9f70ef          	jal	80007344 <printf>
8000f960:	00000793          	li	a5,0
8000f964:	00078513          	mv	a0,a5
8000f968:	02c12083          	lw	ra,44(sp)
8000f96c:	02812403          	lw	s0,40(sp)
8000f970:	03010113          	addi	sp,sp,48
8000f974:	00008067          	ret

8000f978 <context_irq_enable>:
8000f978:	fe010113          	addi	sp,sp,-32
8000f97c:	00812e23          	sw	s0,28(sp)
8000f980:	02010413          	addi	s0,sp,32
8000f984:	fea42623          	sw	a0,-20(s0)
8000f988:	feb42423          	sw	a1,-24(s0)
8000f98c:	fec42783          	lw	a5,-20(s0)
8000f990:	0047a783          	lw	a5,4(a5)
8000f994:	f7f7f713          	andi	a4,a5,-129
8000f998:	fec42783          	lw	a5,-20(s0)
8000f99c:	00e7a223          	sw	a4,4(a5)
8000f9a0:	fec42783          	lw	a5,-20(s0)
8000f9a4:	0047a703          	lw	a4,4(a5)
8000f9a8:	fe842783          	lw	a5,-24(s0)
8000f9ac:	00078663          	beqz	a5,8000f9b8 <context_irq_enable+0x40>
8000f9b0:	08000793          	li	a5,128
8000f9b4:	0080006f          	j	8000f9bc <context_irq_enable+0x44>
8000f9b8:	00000793          	li	a5,0
8000f9bc:	00e7e733          	or	a4,a5,a4
8000f9c0:	fec42783          	lw	a5,-20(s0)
8000f9c4:	00e7a223          	sw	a4,4(a5)
8000f9c8:	00000013          	nop
8000f9cc:	01c12403          	lw	s0,28(sp)
8000f9d0:	02010113          	addi	sp,sp,32
8000f9d4:	00008067          	ret

8000f9d8 <timer_diff>:
8000f9d8:	fe010113          	addi	sp,sp,-32
8000f9dc:	00812e23          	sw	s0,28(sp)
8000f9e0:	02010413          	addi	s0,sp,32
8000f9e4:	fea42623          	sw	a0,-20(s0)
8000f9e8:	feb42423          	sw	a1,-24(s0)
8000f9ec:	fec42703          	lw	a4,-20(s0)
8000f9f0:	fe842783          	lw	a5,-24(s0)
8000f9f4:	40f707b3          	sub	a5,a4,a5
8000f9f8:	00078513          	mv	a0,a5
8000f9fc:	01c12403          	lw	s0,28(sp)
8000fa00:	02010113          	addi	sp,sp,32
8000fa04:	00008067          	ret

8000fa08 <xsh_exit>:
8000fa08:	fe010113          	addi	sp,sp,-32
8000fa0c:	00812e23          	sw	s0,28(sp)
8000fa10:	02010413          	addi	s0,sp,32
8000fa14:	fea42623          	sw	a0,-20(s0)
8000fa18:	feb42423          	sw	a1,-24(s0)
8000fa1c:	ffd00793          	li	a5,-3
8000fa20:	00078513          	mv	a0,a5
8000fa24:	01c12403          	lw	s0,28(sp)
8000fa28:	02010113          	addi	sp,sp,32
8000fa2c:	00008067          	ret

8000fa30 <context_irq_enable>:
8000fa30:	fe010113          	addi	sp,sp,-32
8000fa34:	00812e23          	sw	s0,28(sp)
8000fa38:	02010413          	addi	s0,sp,32
8000fa3c:	fea42623          	sw	a0,-20(s0)
8000fa40:	feb42423          	sw	a1,-24(s0)
8000fa44:	fec42783          	lw	a5,-20(s0)
8000fa48:	0047a783          	lw	a5,4(a5)
8000fa4c:	f7f7f713          	andi	a4,a5,-129
8000fa50:	fec42783          	lw	a5,-20(s0)
8000fa54:	00e7a223          	sw	a4,4(a5)
8000fa58:	fec42783          	lw	a5,-20(s0)
8000fa5c:	0047a703          	lw	a4,4(a5)
8000fa60:	fe842783          	lw	a5,-24(s0)
8000fa64:	00078663          	beqz	a5,8000fa70 <context_irq_enable+0x40>
8000fa68:	08000793          	li	a5,128
8000fa6c:	0080006f          	j	8000fa74 <context_irq_enable+0x44>
8000fa70:	00000793          	li	a5,0
8000fa74:	00e7e733          	or	a4,a5,a4
8000fa78:	fec42783          	lw	a5,-20(s0)
8000fa7c:	00e7a223          	sw	a4,4(a5)
8000fa80:	00000013          	nop
8000fa84:	01c12403          	lw	s0,28(sp)
8000fa88:	02010113          	addi	sp,sp,32
8000fa8c:	00008067          	ret

8000fa90 <timer_diff>:
8000fa90:	fe010113          	addi	sp,sp,-32
8000fa94:	00812e23          	sw	s0,28(sp)
8000fa98:	02010413          	addi	s0,sp,32
8000fa9c:	fea42623          	sw	a0,-20(s0)
8000faa0:	feb42423          	sw	a1,-24(s0)
8000faa4:	fec42703          	lw	a4,-20(s0)
8000faa8:	fe842783          	lw	a5,-24(s0)
8000faac:	40f707b3          	sub	a5,a4,a5
8000fab0:	00078513          	mv	a0,a5
8000fab4:	01c12403          	lw	s0,28(sp)
8000fab8:	02010113          	addi	sp,sp,32
8000fabc:	00008067          	ret

8000fac0 <xsh_format>:
8000fac0:	fe010113          	addi	sp,sp,-32
8000fac4:	00812e23          	sw	s0,28(sp)
8000fac8:	02010413          	addi	s0,sp,32
8000facc:	fea42623          	sw	a0,-20(s0)
8000fad0:	feb42423          	sw	a1,-24(s0)
8000fad4:	00000793          	li	a5,0
8000fad8:	00078513          	mv	a0,a5
8000fadc:	01c12403          	lw	s0,28(sp)
8000fae0:	02010113          	addi	sp,sp,32
8000fae4:	00008067          	ret

8000fae8 <context_irq_enable>:
8000fae8:	fe010113          	addi	sp,sp,-32
8000faec:	00812e23          	sw	s0,28(sp)
8000faf0:	02010413          	addi	s0,sp,32
8000faf4:	fea42623          	sw	a0,-20(s0)
8000faf8:	feb42423          	sw	a1,-24(s0)
8000fafc:	fec42783          	lw	a5,-20(s0)
8000fb00:	0047a783          	lw	a5,4(a5)
8000fb04:	f7f7f713          	andi	a4,a5,-129
8000fb08:	fec42783          	lw	a5,-20(s0)
8000fb0c:	00e7a223          	sw	a4,4(a5)
8000fb10:	fec42783          	lw	a5,-20(s0)
8000fb14:	0047a703          	lw	a4,4(a5)
8000fb18:	fe842783          	lw	a5,-24(s0)
8000fb1c:	00078663          	beqz	a5,8000fb28 <context_irq_enable+0x40>
8000fb20:	08000793          	li	a5,128
8000fb24:	0080006f          	j	8000fb2c <context_irq_enable+0x44>
8000fb28:	00000793          	li	a5,0
8000fb2c:	00e7e733          	or	a4,a5,a4
8000fb30:	fec42783          	lw	a5,-20(s0)
8000fb34:	00e7a223          	sw	a4,4(a5)
8000fb38:	00000013          	nop
8000fb3c:	01c12403          	lw	s0,28(sp)
8000fb40:	02010113          	addi	sp,sp,32
8000fb44:	00008067          	ret

8000fb48 <timer_diff>:
8000fb48:	fe010113          	addi	sp,sp,-32
8000fb4c:	00812e23          	sw	s0,28(sp)
8000fb50:	02010413          	addi	s0,sp,32
8000fb54:	fea42623          	sw	a0,-20(s0)
8000fb58:	feb42423          	sw	a1,-24(s0)
8000fb5c:	fec42703          	lw	a4,-20(s0)
8000fb60:	fe842783          	lw	a5,-24(s0)
8000fb64:	40f707b3          	sub	a5,a4,a5
8000fb68:	00078513          	mv	a0,a5
8000fb6c:	01c12403          	lw	s0,28(sp)
8000fb70:	02010113          	addi	sp,sp,32
8000fb74:	00008067          	ret

8000fb78 <get_cycles>:
8000fb78:	fe010113          	addi	sp,sp,-32
8000fb7c:	00812e23          	sw	s0,28(sp)
8000fb80:	02010413          	addi	s0,sp,32
8000fb84:	c00027f3          	rdcycle	a5
8000fb88:	fef42623          	sw	a5,-20(s0)
8000fb8c:	fec42783          	lw	a5,-20(s0)
8000fb90:	00078513          	mv	a0,a5
8000fb94:	01c12403          	lw	s0,28(sp)
8000fb98:	02010113          	addi	sp,sp,32
8000fb9c:	00008067          	ret

8000fba0 <workload>:
8000fba0:	fe010113          	addi	sp,sp,-32
8000fba4:	00812e23          	sw	s0,28(sp)
8000fba8:	02010413          	addi	s0,sp,32
8000fbac:	fe042623          	sw	zero,-20(s0)
8000fbb0:	0100006f          	j	8000fbc0 <workload+0x20>
8000fbb4:	fec42783          	lw	a5,-20(s0)
8000fbb8:	00178793          	addi	a5,a5,1
8000fbbc:	fef42623          	sw	a5,-20(s0)
8000fbc0:	fec42703          	lw	a4,-20(s0)
8000fbc4:	000f47b7          	lui	a5,0xf4
8000fbc8:	23f78793          	addi	a5,a5,575 # f423f <_start-0x7ff0bdc1>
8000fbcc:	fee7d4e3          	bge	a5,a4,8000fbb4 <workload+0x14>
8000fbd0:	00000013          	nop
8000fbd4:	00000013          	nop
8000fbd8:	01c12403          	lw	s0,28(sp)
8000fbdc:	02010113          	addi	sp,sp,32
8000fbe0:	00008067          	ret

8000fbe4 <xsh_freq>:
8000fbe4:	fd010113          	addi	sp,sp,-48
8000fbe8:	02112623          	sw	ra,44(sp)
8000fbec:	02812423          	sw	s0,40(sp)
8000fbf0:	03010413          	addi	s0,sp,48
8000fbf4:	fca42e23          	sw	a0,-36(s0)
8000fbf8:	fcb42c23          	sw	a1,-40(s0)
8000fbfc:	f7dff0ef          	jal	8000fb78 <get_cycles>
8000fc00:	00050713          	mv	a4,a0
8000fc04:	8001d7b7          	lui	a5,0x8001d
8000fc08:	4ee7aa23          	sw	a4,1268(a5) # 8001d4f4 <cycles_start>
8000fc0c:	f95ff0ef          	jal	8000fba0 <workload>
8000fc10:	f69ff0ef          	jal	8000fb78 <get_cycles>
8000fc14:	00050713          	mv	a4,a0
8000fc18:	8001d7b7          	lui	a5,0x8001d
8000fc1c:	4ee7aa23          	sw	a4,1268(a5) # 8001d4f4 <cycles_start>
8000fc20:	8001d7b7          	lui	a5,0x8001d
8000fc24:	4f87a703          	lw	a4,1272(a5) # 8001d4f8 <cycles_end>
8000fc28:	8001d7b7          	lui	a5,0x8001d
8000fc2c:	4f47a783          	lw	a5,1268(a5) # 8001d4f4 <cycles_start>
8000fc30:	40f707b3          	sub	a5,a4,a5
8000fc34:	fef42623          	sw	a5,-20(s0)
8000fc38:	fec42783          	lw	a5,-20(s0)
8000fc3c:	fef42423          	sw	a5,-24(s0)
8000fc40:	fe842703          	lw	a4,-24(s0)
8000fc44:	000f47b7          	lui	a5,0xf4
8000fc48:	24078793          	addi	a5,a5,576 # f4240 <_start-0x7ff0bdc0>
8000fc4c:	02f757b3          	divu	a5,a4,a5
8000fc50:	00078593          	mv	a1,a5
8000fc54:	800147b7          	lui	a5,0x80014
8000fc58:	6c478513          	addi	a0,a5,1732 # 800146c4 <cmdtab+0x3dc>
8000fc5c:	ee8f70ef          	jal	80007344 <printf>
8000fc60:	00000793          	li	a5,0
8000fc64:	00078513          	mv	a0,a5
8000fc68:	02c12083          	lw	ra,44(sp)
8000fc6c:	02812403          	lw	s0,40(sp)
8000fc70:	03010113          	addi	sp,sp,48
8000fc74:	00008067          	ret

8000fc78 <context_irq_enable>:
8000fc78:	fe010113          	addi	sp,sp,-32
8000fc7c:	00812e23          	sw	s0,28(sp)
8000fc80:	02010413          	addi	s0,sp,32
8000fc84:	fea42623          	sw	a0,-20(s0)
8000fc88:	feb42423          	sw	a1,-24(s0)
8000fc8c:	fec42783          	lw	a5,-20(s0)
8000fc90:	0047a783          	lw	a5,4(a5)
8000fc94:	f7f7f713          	andi	a4,a5,-129
8000fc98:	fec42783          	lw	a5,-20(s0)
8000fc9c:	00e7a223          	sw	a4,4(a5)
8000fca0:	fec42783          	lw	a5,-20(s0)
8000fca4:	0047a703          	lw	a4,4(a5)
8000fca8:	fe842783          	lw	a5,-24(s0)
8000fcac:	00078663          	beqz	a5,8000fcb8 <context_irq_enable+0x40>
8000fcb0:	08000793          	li	a5,128
8000fcb4:	0080006f          	j	8000fcbc <context_irq_enable+0x44>
8000fcb8:	00000793          	li	a5,0
8000fcbc:	00e7e733          	or	a4,a5,a4
8000fcc0:	fec42783          	lw	a5,-20(s0)
8000fcc4:	00e7a223          	sw	a4,4(a5)
8000fcc8:	00000013          	nop
8000fccc:	01c12403          	lw	s0,28(sp)
8000fcd0:	02010113          	addi	sp,sp,32
8000fcd4:	00008067          	ret

8000fcd8 <timer_diff>:
8000fcd8:	fe010113          	addi	sp,sp,-32
8000fcdc:	00812e23          	sw	s0,28(sp)
8000fce0:	02010413          	addi	s0,sp,32
8000fce4:	fea42623          	sw	a0,-20(s0)
8000fce8:	feb42423          	sw	a1,-24(s0)
8000fcec:	fec42703          	lw	a4,-20(s0)
8000fcf0:	fe842783          	lw	a5,-24(s0)
8000fcf4:	40f707b3          	sub	a5,a4,a5
8000fcf8:	00078513          	mv	a0,a5
8000fcfc:	01c12403          	lw	s0,28(sp)
8000fd00:	02010113          	addi	sp,sp,32
8000fd04:	00008067          	ret

8000fd08 <xsh_help>:
8000fd08:	fb010113          	addi	sp,sp,-80
8000fd0c:	04112623          	sw	ra,76(sp)
8000fd10:	04812423          	sw	s0,72(sp)
8000fd14:	05010413          	addi	s0,sp,80
8000fd18:	faa42e23          	sw	a0,-68(s0)
8000fd1c:	fab42c23          	sw	a1,-72(s0)
8000fd20:	fbc42703          	lw	a4,-68(s0)
8000fd24:	00200793          	li	a5,2
8000fd28:	0af71663          	bne	a4,a5,8000fdd4 <xsh_help+0xcc>
8000fd2c:	fb842783          	lw	a5,-72(s0)
8000fd30:	00478793          	addi	a5,a5,4
8000fd34:	0007a703          	lw	a4,0(a5)
8000fd38:	00700613          	li	a2,7
8000fd3c:	800147b7          	lui	a5,0x80014
8000fd40:	6cc78593          	addi	a1,a5,1740 # 800146cc <cmdtab+0x3e4>
8000fd44:	00070513          	mv	a0,a4
8000fd48:	8d1f80ef          	jal	80008618 <strncmp>
8000fd4c:	00050793          	mv	a5,a0
8000fd50:	08079263          	bnez	a5,8000fdd4 <xsh_help+0xcc>
8000fd54:	800147b7          	lui	a5,0x80014
8000fd58:	6d478513          	addi	a0,a5,1748 # 800146d4 <cmdtab+0x3ec>
8000fd5c:	de8f70ef          	jal	80007344 <printf>
8000fd60:	fb842783          	lw	a5,-72(s0)
8000fd64:	0007a783          	lw	a5,0(a5)
8000fd68:	00078593          	mv	a1,a5
8000fd6c:	800147b7          	lui	a5,0x80014
8000fd70:	6dc78513          	addi	a0,a5,1756 # 800146dc <cmdtab+0x3f4>
8000fd74:	dd0f70ef          	jal	80007344 <printf>
8000fd78:	800147b7          	lui	a5,0x80014
8000fd7c:	6ec78513          	addi	a0,a5,1772 # 800146ec <cmdtab+0x404>
8000fd80:	dc4f70ef          	jal	80007344 <printf>
8000fd84:	800147b7          	lui	a5,0x80014
8000fd88:	6fc78513          	addi	a0,a5,1788 # 800146fc <cmdtab+0x414>
8000fd8c:	db8f70ef          	jal	80007344 <printf>
8000fd90:	800147b7          	lui	a5,0x80014
8000fd94:	72478513          	addi	a0,a5,1828 # 80014724 <cmdtab+0x43c>
8000fd98:	dacf70ef          	jal	80007344 <printf>
8000fd9c:	800147b7          	lui	a5,0x80014
8000fda0:	75078513          	addi	a0,a5,1872 # 80014750 <cmdtab+0x468>
8000fda4:	da0f70ef          	jal	80007344 <printf>
8000fda8:	800147b7          	lui	a5,0x80014
8000fdac:	75c78513          	addi	a0,a5,1884 # 8001475c <cmdtab+0x474>
8000fdb0:	d94f70ef          	jal	80007344 <printf>
8000fdb4:	800147b7          	lui	a5,0x80014
8000fdb8:	78478513          	addi	a0,a5,1924 # 80014784 <cmdtab+0x49c>
8000fdbc:	d88f70ef          	jal	80007344 <printf>
8000fdc0:	800147b7          	lui	a5,0x80014
8000fdc4:	7a078513          	addi	a0,a5,1952 # 800147a0 <cmdtab+0x4b8>
8000fdc8:	d7cf70ef          	jal	80007344 <printf>
8000fdcc:	00000793          	li	a5,0
8000fdd0:	3580006f          	j	80010128 <xsh_help+0x420>
8000fdd4:	fbc42703          	lw	a4,-68(s0)
8000fdd8:	00200793          	li	a5,2
8000fddc:	04e7d263          	bge	a5,a4,8000fe20 <xsh_help+0x118>
8000fde0:	fb842783          	lw	a5,-72(s0)
8000fde4:	0007a783          	lw	a5,0(a5)
8000fde8:	00078613          	mv	a2,a5
8000fdec:	800147b7          	lui	a5,0x80014
8000fdf0:	7c478593          	addi	a1,a5,1988 # 800147c4 <cmdtab+0x4dc>
8000fdf4:	00000513          	li	a0,0
8000fdf8:	cc9f40ef          	jal	80004ac0 <fprintf>
8000fdfc:	fb842783          	lw	a5,-72(s0)
8000fe00:	0007a783          	lw	a5,0(a5)
8000fe04:	00078613          	mv	a2,a5
8000fe08:	800147b7          	lui	a5,0x80014
8000fe0c:	7dc78593          	addi	a1,a5,2012 # 800147dc <cmdtab+0x4f4>
8000fe10:	00000513          	li	a0,0
8000fe14:	cadf40ef          	jal	80004ac0 <fprintf>
8000fe18:	00100793          	li	a5,1
8000fe1c:	30c0006f          	j	80010128 <xsh_help+0x420>
8000fe20:	fbc42703          	lw	a4,-68(s0)
8000fe24:	00200793          	li	a5,2
8000fe28:	14f71063          	bne	a4,a5,8000ff68 <xsh_help+0x260>
8000fe2c:	fe042623          	sw	zero,-20(s0)
8000fe30:	0f80006f          	j	8000ff28 <xsh_help+0x220>
8000fe34:	800147b7          	lui	a5,0x80014
8000fe38:	2e878693          	addi	a3,a5,744 # 800142e8 <cmdtab>
8000fe3c:	fec42703          	lw	a4,-20(s0)
8000fe40:	00070793          	mv	a5,a4
8000fe44:	00179793          	slli	a5,a5,0x1
8000fe48:	00e787b3          	add	a5,a5,a4
8000fe4c:	00279793          	slli	a5,a5,0x2
8000fe50:	00f687b3          	add	a5,a3,a5
8000fe54:	0007a783          	lw	a5,0(a5)
8000fe58:	fef42423          	sw	a5,-24(s0)
8000fe5c:	fb842783          	lw	a5,-72(s0)
8000fe60:	0047a783          	lw	a5,4(a5)
8000fe64:	fef42223          	sw	a5,-28(s0)
8000fe68:	0300006f          	j	8000fe98 <xsh_help+0x190>
8000fe6c:	fe842783          	lw	a5,-24(s0)
8000fe70:	0007c703          	lbu	a4,0(a5)
8000fe74:	fe442783          	lw	a5,-28(s0)
8000fe78:	0007c783          	lbu	a5,0(a5)
8000fe7c:	02f71663          	bne	a4,a5,8000fea8 <xsh_help+0x1a0>
8000fe80:	fe842783          	lw	a5,-24(s0)
8000fe84:	00178793          	addi	a5,a5,1
8000fe88:	fef42423          	sw	a5,-24(s0)
8000fe8c:	fe442783          	lw	a5,-28(s0)
8000fe90:	00178793          	addi	a5,a5,1
8000fe94:	fef42223          	sw	a5,-28(s0)
8000fe98:	fe842783          	lw	a5,-24(s0)
8000fe9c:	0007c783          	lbu	a5,0(a5)
8000fea0:	fc0796e3          	bnez	a5,8000fe6c <xsh_help+0x164>
8000fea4:	0080006f          	j	8000feac <xsh_help+0x1a4>
8000fea8:	00000013          	nop
8000feac:	fe842783          	lw	a5,-24(s0)
8000feb0:	0007c783          	lbu	a5,0(a5)
8000feb4:	06079263          	bnez	a5,8000ff18 <xsh_help+0x210>
8000feb8:	fe442783          	lw	a5,-28(s0)
8000febc:	0007c783          	lbu	a5,0(a5)
8000fec0:	04079c63          	bnez	a5,8000ff18 <xsh_help+0x210>
8000fec4:	fb842783          	lw	a5,-72(s0)
8000fec8:	0047a783          	lw	a5,4(a5)
8000fecc:	fcf42223          	sw	a5,-60(s0)
8000fed0:	800147b7          	lui	a5,0x80014
8000fed4:	6cc78793          	addi	a5,a5,1740 # 800146cc <cmdtab+0x3e4>
8000fed8:	fcf42423          	sw	a5,-56(s0)
8000fedc:	800147b7          	lui	a5,0x80014
8000fee0:	2e878693          	addi	a3,a5,744 # 800142e8 <cmdtab>
8000fee4:	fec42703          	lw	a4,-20(s0)
8000fee8:	00070793          	mv	a5,a4
8000feec:	00179793          	slli	a5,a5,0x1
8000fef0:	00e787b3          	add	a5,a5,a4
8000fef4:	00279793          	slli	a5,a5,0x2
8000fef8:	00f687b3          	add	a5,a3,a5
8000fefc:	0087a783          	lw	a5,8(a5)
8000ff00:	fc440713          	addi	a4,s0,-60
8000ff04:	00070593          	mv	a1,a4
8000ff08:	00200513          	li	a0,2
8000ff0c:	000780e7          	jalr	a5
8000ff10:	00000793          	li	a5,0
8000ff14:	2140006f          	j	80010128 <xsh_help+0x420>
8000ff18:	00000013          	nop
8000ff1c:	fec42783          	lw	a5,-20(s0)
8000ff20:	00178793          	addi	a5,a5,1
8000ff24:	fef42623          	sw	a5,-20(s0)
8000ff28:	fec42703          	lw	a4,-20(s0)
8000ff2c:	800177b7          	lui	a5,0x80017
8000ff30:	9bc7a783          	lw	a5,-1604(a5) # 800169bc <ncmd>
8000ff34:	f0f760e3          	bltu	a4,a5,8000fe34 <xsh_help+0x12c>
8000ff38:	fb842783          	lw	a5,-72(s0)
8000ff3c:	0007a703          	lw	a4,0(a5)
8000ff40:	fb842783          	lw	a5,-72(s0)
8000ff44:	00478793          	addi	a5,a5,4
8000ff48:	0007a783          	lw	a5,0(a5)
8000ff4c:	00078613          	mv	a2,a5
8000ff50:	00070593          	mv	a1,a4
8000ff54:	800157b7          	lui	a5,0x80015
8000ff58:	80478513          	addi	a0,a5,-2044 # 80014804 <cmdtab+0x51c>
8000ff5c:	be8f70ef          	jal	80007344 <printf>
8000ff60:	00100793          	li	a5,1
8000ff64:	1c40006f          	j	80010128 <xsh_help+0x420>
8000ff68:	800157b7          	lui	a5,0x80015
8000ff6c:	82478513          	addi	a0,a5,-2012 # 80014824 <cmdtab+0x53c>
8000ff70:	bd4f70ef          	jal	80007344 <printf>
8000ff74:	fc042e23          	sw	zero,-36(s0)
8000ff78:	fe042623          	sw	zero,-20(s0)
8000ff7c:	0580006f          	j	8000ffd4 <xsh_help+0x2cc>
8000ff80:	800147b7          	lui	a5,0x80014
8000ff84:	2e878693          	addi	a3,a5,744 # 800142e8 <cmdtab>
8000ff88:	fec42703          	lw	a4,-20(s0)
8000ff8c:	00070793          	mv	a5,a4
8000ff90:	00179793          	slli	a5,a5,0x1
8000ff94:	00e787b3          	add	a5,a5,a4
8000ff98:	00279793          	slli	a5,a5,0x2
8000ff9c:	00f687b3          	add	a5,a3,a5
8000ffa0:	0007a783          	lw	a5,0(a5)
8000ffa4:	05000593          	li	a1,80
8000ffa8:	00078513          	mv	a0,a5
8000ffac:	b8df80ef          	jal	80008b38 <strnlen>
8000ffb0:	fea42023          	sw	a0,-32(s0)
8000ffb4:	fe042703          	lw	a4,-32(s0)
8000ffb8:	fdc42783          	lw	a5,-36(s0)
8000ffbc:	00e7d663          	bge	a5,a4,8000ffc8 <xsh_help+0x2c0>
8000ffc0:	fe042783          	lw	a5,-32(s0)
8000ffc4:	fcf42e23          	sw	a5,-36(s0)
8000ffc8:	fec42783          	lw	a5,-20(s0)
8000ffcc:	00178793          	addi	a5,a5,1
8000ffd0:	fef42623          	sw	a5,-20(s0)
8000ffd4:	fec42703          	lw	a4,-20(s0)
8000ffd8:	800177b7          	lui	a5,0x80017
8000ffdc:	9bc7a783          	lw	a5,-1604(a5) # 800169bc <ncmd>
8000ffe0:	faf760e3          	bltu	a4,a5,8000ff80 <xsh_help+0x278>
8000ffe4:	fdc42783          	lw	a5,-36(s0)
8000ffe8:	00178793          	addi	a5,a5,1
8000ffec:	05000713          	li	a4,80
8000fff0:	02f747b3          	div	a5,a4,a5
8000fff4:	fcf42c23          	sw	a5,-40(s0)
8000fff8:	fd842703          	lw	a4,-40(s0)
8000fffc:	00600793          	li	a5,6
80010000:	00e7d663          	bge	a5,a4,8001000c <xsh_help+0x304>
80010004:	00600793          	li	a5,6
80010008:	fcf42c23          	sw	a5,-40(s0)
8001000c:	05000713          	li	a4,80
80010010:	fd842783          	lw	a5,-40(s0)
80010014:	02f747b3          	div	a5,a4,a5
80010018:	fcf42823          	sw	a5,-48(s0)
8001001c:	fd842703          	lw	a4,-40(s0)
80010020:	800177b7          	lui	a5,0x80017
80010024:	9bc7a783          	lw	a5,-1604(a5) # 800169bc <ncmd>
80010028:	00f707b3          	add	a5,a4,a5
8001002c:	fff78713          	addi	a4,a5,-1
80010030:	fd842783          	lw	a5,-40(s0)
80010034:	02f757b3          	divu	a5,a4,a5
80010038:	fcf42623          	sw	a5,-52(s0)
8001003c:	fe042623          	sw	zero,-20(s0)
80010040:	0d80006f          	j	80010118 <xsh_help+0x410>
80010044:	fec42783          	lw	a5,-20(s0)
80010048:	fcf42a23          	sw	a5,-44(s0)
8001004c:	0a40006f          	j	800100f0 <xsh_help+0x3e8>
80010050:	800147b7          	lui	a5,0x80014
80010054:	2e878693          	addi	a3,a5,744 # 800142e8 <cmdtab>
80010058:	fd442703          	lw	a4,-44(s0)
8001005c:	00070793          	mv	a5,a4
80010060:	00179793          	slli	a5,a5,0x1
80010064:	00e787b3          	add	a5,a5,a4
80010068:	00279793          	slli	a5,a5,0x2
8001006c:	00f687b3          	add	a5,a3,a5
80010070:	0007a783          	lw	a5,0(a5)
80010074:	05000593          	li	a1,80
80010078:	00078513          	mv	a0,a5
8001007c:	abdf80ef          	jal	80008b38 <strnlen>
80010080:	fea42023          	sw	a0,-32(s0)
80010084:	800147b7          	lui	a5,0x80014
80010088:	2e878693          	addi	a3,a5,744 # 800142e8 <cmdtab>
8001008c:	fd442703          	lw	a4,-44(s0)
80010090:	00070793          	mv	a5,a4
80010094:	00179793          	slli	a5,a5,0x1
80010098:	00e787b3          	add	a5,a5,a4
8001009c:	00279793          	slli	a5,a5,0x2
800100a0:	00f687b3          	add	a5,a3,a5
800100a4:	0007a783          	lw	a5,0(a5)
800100a8:	00078593          	mv	a1,a5
800100ac:	800157b7          	lui	a5,0x80015
800100b0:	83c78513          	addi	a0,a5,-1988 # 8001483c <cmdtab+0x554>
800100b4:	a90f70ef          	jal	80007344 <printf>
800100b8:	01c0006f          	j	800100d4 <xsh_help+0x3cc>
800100bc:	800157b7          	lui	a5,0x80015
800100c0:	84078513          	addi	a0,a5,-1984 # 80014840 <cmdtab+0x558>
800100c4:	a80f70ef          	jal	80007344 <printf>
800100c8:	fe042783          	lw	a5,-32(s0)
800100cc:	00178793          	addi	a5,a5,1
800100d0:	fef42023          	sw	a5,-32(s0)
800100d4:	fe042703          	lw	a4,-32(s0)
800100d8:	fd042783          	lw	a5,-48(s0)
800100dc:	fef740e3          	blt	a4,a5,800100bc <xsh_help+0x3b4>
800100e0:	fd442703          	lw	a4,-44(s0)
800100e4:	fcc42783          	lw	a5,-52(s0)
800100e8:	00f707b3          	add	a5,a4,a5
800100ec:	fcf42a23          	sw	a5,-44(s0)
800100f0:	fd442703          	lw	a4,-44(s0)
800100f4:	800177b7          	lui	a5,0x80017
800100f8:	9bc7a783          	lw	a5,-1604(a5) # 800169bc <ncmd>
800100fc:	f4f76ae3          	bltu	a4,a5,80010050 <xsh_help+0x348>
80010100:	800157b7          	lui	a5,0x80015
80010104:	84478513          	addi	a0,a5,-1980 # 80014844 <cmdtab+0x55c>
80010108:	a3cf70ef          	jal	80007344 <printf>
8001010c:	fec42783          	lw	a5,-20(s0)
80010110:	00178793          	addi	a5,a5,1
80010114:	fef42623          	sw	a5,-20(s0)
80010118:	fec42703          	lw	a4,-20(s0)
8001011c:	fcc42783          	lw	a5,-52(s0)
80010120:	f2f742e3          	blt	a4,a5,80010044 <xsh_help+0x33c>
80010124:	00000793          	li	a5,0
80010128:	00078513          	mv	a0,a5
8001012c:	04c12083          	lw	ra,76(sp)
80010130:	04812403          	lw	s0,72(sp)
80010134:	05010113          	addi	sp,sp,80
80010138:	00008067          	ret

8001013c <context_irq_enable>:
8001013c:	fe010113          	addi	sp,sp,-32
80010140:	00812e23          	sw	s0,28(sp)
80010144:	02010413          	addi	s0,sp,32
80010148:	fea42623          	sw	a0,-20(s0)
8001014c:	feb42423          	sw	a1,-24(s0)
80010150:	fec42783          	lw	a5,-20(s0)
80010154:	0047a783          	lw	a5,4(a5)
80010158:	f7f7f713          	andi	a4,a5,-129
8001015c:	fec42783          	lw	a5,-20(s0)
80010160:	00e7a223          	sw	a4,4(a5)
80010164:	fec42783          	lw	a5,-20(s0)
80010168:	0047a703          	lw	a4,4(a5)
8001016c:	fe842783          	lw	a5,-24(s0)
80010170:	00078663          	beqz	a5,8001017c <context_irq_enable+0x40>
80010174:	08000793          	li	a5,128
80010178:	0080006f          	j	80010180 <context_irq_enable+0x44>
8001017c:	00000793          	li	a5,0
80010180:	00e7e733          	or	a4,a5,a4
80010184:	fec42783          	lw	a5,-20(s0)
80010188:	00e7a223          	sw	a4,4(a5)
8001018c:	00000013          	nop
80010190:	01c12403          	lw	s0,28(sp)
80010194:	02010113          	addi	sp,sp,32
80010198:	00008067          	ret

8001019c <timer_diff>:
8001019c:	fe010113          	addi	sp,sp,-32
800101a0:	00812e23          	sw	s0,28(sp)
800101a4:	02010413          	addi	s0,sp,32
800101a8:	fea42623          	sw	a0,-20(s0)
800101ac:	feb42423          	sw	a1,-24(s0)
800101b0:	fec42703          	lw	a4,-20(s0)
800101b4:	fe842783          	lw	a5,-24(s0)
800101b8:	40f707b3          	sub	a5,a4,a5
800101bc:	00078513          	mv	a0,a5
800101c0:	01c12403          	lw	s0,28(sp)
800101c4:	02010113          	addi	sp,sp,32
800101c8:	00008067          	ret

800101cc <xsh_kill>:
800101cc:	fd010113          	addi	sp,sp,-48
800101d0:	02112623          	sw	ra,44(sp)
800101d4:	02812423          	sw	s0,40(sp)
800101d8:	03010413          	addi	s0,sp,48
800101dc:	fca42e23          	sw	a0,-36(s0)
800101e0:	fcb42c23          	sw	a1,-40(s0)
800101e4:	fdc42703          	lw	a4,-36(s0)
800101e8:	00200793          	li	a5,2
800101ec:	08f71463          	bne	a4,a5,80010274 <xsh_kill+0xa8>
800101f0:	fd842783          	lw	a5,-40(s0)
800101f4:	00478793          	addi	a5,a5,4
800101f8:	0007a703          	lw	a4,0(a5)
800101fc:	00700613          	li	a2,7
80010200:	800157b7          	lui	a5,0x80015
80010204:	84878593          	addi	a1,a5,-1976 # 80014848 <cmdtab+0x560>
80010208:	00070513          	mv	a0,a4
8001020c:	c0cf80ef          	jal	80008618 <strncmp>
80010210:	00050793          	mv	a5,a0
80010214:	06079063          	bnez	a5,80010274 <xsh_kill+0xa8>
80010218:	fd842783          	lw	a5,-40(s0)
8001021c:	0007a783          	lw	a5,0(a5)
80010220:	00078593          	mv	a1,a5
80010224:	800157b7          	lui	a5,0x80015
80010228:	85078513          	addi	a0,a5,-1968 # 80014850 <cmdtab+0x568>
8001022c:	918f70ef          	jal	80007344 <printf>
80010230:	800157b7          	lui	a5,0x80015
80010234:	86078513          	addi	a0,a5,-1952 # 80014860 <cmdtab+0x578>
80010238:	90cf70ef          	jal	80007344 <printf>
8001023c:	800157b7          	lui	a5,0x80015
80010240:	87078513          	addi	a0,a5,-1936 # 80014870 <cmdtab+0x588>
80010244:	900f70ef          	jal	80007344 <printf>
80010248:	800157b7          	lui	a5,0x80015
8001024c:	88878513          	addi	a0,a5,-1912 # 80014888 <cmdtab+0x5a0>
80010250:	8f4f70ef          	jal	80007344 <printf>
80010254:	800157b7          	lui	a5,0x80015
80010258:	89478513          	addi	a0,a5,-1900 # 80014894 <cmdtab+0x5ac>
8001025c:	8e8f70ef          	jal	80007344 <printf>
80010260:	800157b7          	lui	a5,0x80015
80010264:	8bc78513          	addi	a0,a5,-1860 # 800148bc <cmdtab+0x5d4>
80010268:	8dcf70ef          	jal	80007344 <printf>
8001026c:	00100793          	li	a5,1
80010270:	1680006f          	j	800103d8 <xsh_kill+0x20c>
80010274:	fdc42703          	lw	a4,-36(s0)
80010278:	00200793          	li	a5,2
8001027c:	04f70263          	beq	a4,a5,800102c0 <xsh_kill+0xf4>
80010280:	fd842783          	lw	a5,-40(s0)
80010284:	0007a783          	lw	a5,0(a5)
80010288:	00078613          	mv	a2,a5
8001028c:	800157b7          	lui	a5,0x80015
80010290:	8e078593          	addi	a1,a5,-1824 # 800148e0 <cmdtab+0x5f8>
80010294:	00000513          	li	a0,0
80010298:	829f40ef          	jal	80004ac0 <fprintf>
8001029c:	fd842783          	lw	a5,-40(s0)
800102a0:	0007a783          	lw	a5,0(a5)
800102a4:	00078613          	mv	a2,a5
800102a8:	800157b7          	lui	a5,0x80015
800102ac:	8f878593          	addi	a1,a5,-1800 # 800148f8 <cmdtab+0x610>
800102b0:	00000513          	li	a0,0
800102b4:	80df40ef          	jal	80004ac0 <fprintf>
800102b8:	fff00793          	li	a5,-1
800102bc:	11c0006f          	j	800103d8 <xsh_kill+0x20c>
800102c0:	fd842783          	lw	a5,-40(s0)
800102c4:	0047a783          	lw	a5,4(a5)
800102c8:	fef42223          	sw	a5,-28(s0)
800102cc:	fe442783          	lw	a5,-28(s0)
800102d0:	00178713          	addi	a4,a5,1
800102d4:	fee42223          	sw	a4,-28(s0)
800102d8:	0007c783          	lbu	a5,0(a5)
800102dc:	fef405a3          	sb	a5,-21(s0)
800102e0:	fe042623          	sw	zero,-20(s0)
800102e4:	07c0006f          	j	80010360 <xsh_kill+0x194>
800102e8:	feb44703          	lbu	a4,-21(s0)
800102ec:	02f00793          	li	a5,47
800102f0:	00e7f863          	bgeu	a5,a4,80010300 <xsh_kill+0x134>
800102f4:	feb44703          	lbu	a4,-21(s0)
800102f8:	03900793          	li	a5,57
800102fc:	02e7f463          	bgeu	a5,a4,80010324 <xsh_kill+0x158>
80010300:	fd842783          	lw	a5,-40(s0)
80010304:	0007a783          	lw	a5,0(a5)
80010308:	00078613          	mv	a2,a5
8001030c:	800157b7          	lui	a5,0x80015
80010310:	92078593          	addi	a1,a5,-1760 # 80014920 <cmdtab+0x638>
80010314:	00000513          	li	a0,0
80010318:	fa8f40ef          	jal	80004ac0 <fprintf>
8001031c:	00100793          	li	a5,1
80010320:	0b80006f          	j	800103d8 <xsh_kill+0x20c>
80010324:	fec42703          	lw	a4,-20(s0)
80010328:	00070793          	mv	a5,a4
8001032c:	00279793          	slli	a5,a5,0x2
80010330:	00e787b3          	add	a5,a5,a4
80010334:	00179793          	slli	a5,a5,0x1
80010338:	00078713          	mv	a4,a5
8001033c:	feb44783          	lbu	a5,-21(s0)
80010340:	fd078793          	addi	a5,a5,-48
80010344:	00f707b3          	add	a5,a4,a5
80010348:	fef42623          	sw	a5,-20(s0)
8001034c:	fe442783          	lw	a5,-28(s0)
80010350:	00178713          	addi	a4,a5,1
80010354:	fee42223          	sw	a4,-28(s0)
80010358:	0007c783          	lbu	a5,0(a5)
8001035c:	fef405a3          	sb	a5,-21(s0)
80010360:	feb44783          	lbu	a5,-21(s0)
80010364:	f80792e3          	bnez	a5,800102e8 <xsh_kill+0x11c>
80010368:	fec42783          	lw	a5,-20(s0)
8001036c:	02079463          	bnez	a5,80010394 <xsh_kill+0x1c8>
80010370:	fd842783          	lw	a5,-40(s0)
80010374:	0007a783          	lw	a5,0(a5)
80010378:	00078613          	mv	a2,a5
8001037c:	800157b7          	lui	a5,0x80015
80010380:	94078593          	addi	a1,a5,-1728 # 80014940 <cmdtab+0x658>
80010384:	00000513          	li	a0,0
80010388:	f38f40ef          	jal	80004ac0 <fprintf>
8001038c:	00100793          	li	a5,1
80010390:	0480006f          	j	800103d8 <xsh_kill+0x20c>
80010394:	fec42503          	lw	a0,-20(s0)
80010398:	e29fa0ef          	jal	8000b1c0 <kill>
8001039c:	fea42023          	sw	a0,-32(s0)
800103a0:	fe042703          	lw	a4,-32(s0)
800103a4:	fff00793          	li	a5,-1
800103a8:	02f71663          	bne	a4,a5,800103d4 <xsh_kill+0x208>
800103ac:	fd842783          	lw	a5,-40(s0)
800103b0:	0007a783          	lw	a5,0(a5)
800103b4:	fec42683          	lw	a3,-20(s0)
800103b8:	00078613          	mv	a2,a5
800103bc:	800157b7          	lui	a5,0x80015
800103c0:	96478593          	addi	a1,a5,-1692 # 80014964 <cmdtab+0x67c>
800103c4:	00000513          	li	a0,0
800103c8:	ef8f40ef          	jal	80004ac0 <fprintf>
800103cc:	00100793          	li	a5,1
800103d0:	0080006f          	j	800103d8 <xsh_kill+0x20c>
800103d4:	00000793          	li	a5,0
800103d8:	00078513          	mv	a0,a5
800103dc:	02c12083          	lw	ra,44(sp)
800103e0:	02812403          	lw	s0,40(sp)
800103e4:	03010113          	addi	sp,sp,48
800103e8:	00008067          	ret

800103ec <context_irq_enable>:
800103ec:	fe010113          	addi	sp,sp,-32
800103f0:	00812e23          	sw	s0,28(sp)
800103f4:	02010413          	addi	s0,sp,32
800103f8:	fea42623          	sw	a0,-20(s0)
800103fc:	feb42423          	sw	a1,-24(s0)
80010400:	fec42783          	lw	a5,-20(s0)
80010404:	0047a783          	lw	a5,4(a5)
80010408:	f7f7f713          	andi	a4,a5,-129
8001040c:	fec42783          	lw	a5,-20(s0)
80010410:	00e7a223          	sw	a4,4(a5)
80010414:	fec42783          	lw	a5,-20(s0)
80010418:	0047a703          	lw	a4,4(a5)
8001041c:	fe842783          	lw	a5,-24(s0)
80010420:	00078663          	beqz	a5,8001042c <context_irq_enable+0x40>
80010424:	08000793          	li	a5,128
80010428:	0080006f          	j	80010430 <context_irq_enable+0x44>
8001042c:	00000793          	li	a5,0
80010430:	00e7e733          	or	a4,a5,a4
80010434:	fec42783          	lw	a5,-20(s0)
80010438:	00e7a223          	sw	a4,4(a5)
8001043c:	00000013          	nop
80010440:	01c12403          	lw	s0,28(sp)
80010444:	02010113          	addi	sp,sp,32
80010448:	00008067          	ret

8001044c <timer_diff>:
8001044c:	fe010113          	addi	sp,sp,-32
80010450:	00812e23          	sw	s0,28(sp)
80010454:	02010413          	addi	s0,sp,32
80010458:	fea42623          	sw	a0,-20(s0)
8001045c:	feb42423          	sw	a1,-24(s0)
80010460:	fec42703          	lw	a4,-20(s0)
80010464:	fe842783          	lw	a5,-24(s0)
80010468:	40f707b3          	sub	a5,a4,a5
8001046c:	00078513          	mv	a0,a5
80010470:	01c12403          	lw	s0,28(sp)
80010474:	02010113          	addi	sp,sp,32
80010478:	00008067          	ret

8001047c <xsh_ls>:
8001047c:	fe010113          	addi	sp,sp,-32
80010480:	00812e23          	sw	s0,28(sp)
80010484:	02010413          	addi	s0,sp,32
80010488:	fea42623          	sw	a0,-20(s0)
8001048c:	feb42423          	sw	a1,-24(s0)
80010490:	00000793          	li	a5,0
80010494:	00078513          	mv	a0,a5
80010498:	01c12403          	lw	s0,28(sp)
8001049c:	02010113          	addi	sp,sp,32
800104a0:	00008067          	ret

800104a4 <context_irq_enable>:
800104a4:	fe010113          	addi	sp,sp,-32
800104a8:	00812e23          	sw	s0,28(sp)
800104ac:	02010413          	addi	s0,sp,32
800104b0:	fea42623          	sw	a0,-20(s0)
800104b4:	feb42423          	sw	a1,-24(s0)
800104b8:	fec42783          	lw	a5,-20(s0)
800104bc:	0047a783          	lw	a5,4(a5)
800104c0:	f7f7f713          	andi	a4,a5,-129
800104c4:	fec42783          	lw	a5,-20(s0)
800104c8:	00e7a223          	sw	a4,4(a5)
800104cc:	fec42783          	lw	a5,-20(s0)
800104d0:	0047a703          	lw	a4,4(a5)
800104d4:	fe842783          	lw	a5,-24(s0)
800104d8:	00078663          	beqz	a5,800104e4 <context_irq_enable+0x40>
800104dc:	08000793          	li	a5,128
800104e0:	0080006f          	j	800104e8 <context_irq_enable+0x44>
800104e4:	00000793          	li	a5,0
800104e8:	00e7e733          	or	a4,a5,a4
800104ec:	fec42783          	lw	a5,-20(s0)
800104f0:	00e7a223          	sw	a4,4(a5)
800104f4:	00000013          	nop
800104f8:	01c12403          	lw	s0,28(sp)
800104fc:	02010113          	addi	sp,sp,32
80010500:	00008067          	ret

80010504 <timer_diff>:
80010504:	fe010113          	addi	sp,sp,-32
80010508:	00812e23          	sw	s0,28(sp)
8001050c:	02010413          	addi	s0,sp,32
80010510:	fea42623          	sw	a0,-20(s0)
80010514:	feb42423          	sw	a1,-24(s0)
80010518:	fec42703          	lw	a4,-20(s0)
8001051c:	fe842783          	lw	a5,-24(s0)
80010520:	40f707b3          	sub	a5,a4,a5
80010524:	00078513          	mv	a0,a5
80010528:	01c12403          	lw	s0,28(sp)
8001052c:	02010113          	addi	sp,sp,32
80010530:	00008067          	ret

80010534 <xsh_memdump>:
80010534:	fd010113          	addi	sp,sp,-48
80010538:	02112623          	sw	ra,44(sp)
8001053c:	02812423          	sw	s0,40(sp)
80010540:	03010413          	addi	s0,sp,48
80010544:	fca42e23          	sw	a0,-36(s0)
80010548:	fcb42c23          	sw	a1,-40(s0)
8001054c:	fe042623          	sw	zero,-20(s0)
80010550:	000017b7          	lui	a5,0x1
80010554:	8ff78793          	addi	a5,a5,-1793 # 8ff <_start-0x7ffff701>
80010558:	fef42423          	sw	a5,-24(s0)
8001055c:	fdc42703          	lw	a4,-36(s0)
80010560:	00200793          	li	a5,2
80010564:	04f71c63          	bne	a4,a5,800105bc <xsh_memdump+0x88>
80010568:	fd842783          	lw	a5,-40(s0)
8001056c:	00478793          	addi	a5,a5,4
80010570:	0007a703          	lw	a4,0(a5)
80010574:	00700613          	li	a2,7
80010578:	800157b7          	lui	a5,0x80015
8001057c:	98078593          	addi	a1,a5,-1664 # 80014980 <cmdtab+0x698>
80010580:	00070513          	mv	a0,a4
80010584:	894f80ef          	jal	80008618 <strncmp>
80010588:	00050793          	mv	a5,a0
8001058c:	02079863          	bnez	a5,800105bc <xsh_memdump+0x88>
80010590:	fd842783          	lw	a5,-40(s0)
80010594:	0007a783          	lw	a5,0(a5)
80010598:	00078593          	mv	a1,a5
8001059c:	800157b7          	lui	a5,0x80015
800105a0:	98878513          	addi	a0,a5,-1656 # 80014988 <cmdtab+0x6a0>
800105a4:	da1f60ef          	jal	80007344 <printf>
800105a8:	800157b7          	lui	a5,0x80015
800105ac:	9ac78513          	addi	a0,a5,-1620 # 800149ac <cmdtab+0x6c4>
800105b0:	d95f60ef          	jal	80007344 <printf>
800105b4:	00100793          	li	a5,1
800105b8:	0080006f          	j	800105c0 <xsh_memdump+0x8c>
800105bc:	00000793          	li	a5,0
800105c0:	00078513          	mv	a0,a5
800105c4:	02c12083          	lw	ra,44(sp)
800105c8:	02812403          	lw	s0,40(sp)
800105cc:	03010113          	addi	sp,sp,48
800105d0:	00008067          	ret

800105d4 <context_irq_enable>:
800105d4:	fe010113          	addi	sp,sp,-32
800105d8:	00812e23          	sw	s0,28(sp)
800105dc:	02010413          	addi	s0,sp,32
800105e0:	fea42623          	sw	a0,-20(s0)
800105e4:	feb42423          	sw	a1,-24(s0)
800105e8:	fec42783          	lw	a5,-20(s0)
800105ec:	0047a783          	lw	a5,4(a5)
800105f0:	f7f7f713          	andi	a4,a5,-129
800105f4:	fec42783          	lw	a5,-20(s0)
800105f8:	00e7a223          	sw	a4,4(a5)
800105fc:	fec42783          	lw	a5,-20(s0)
80010600:	0047a703          	lw	a4,4(a5)
80010604:	fe842783          	lw	a5,-24(s0)
80010608:	00078663          	beqz	a5,80010614 <context_irq_enable+0x40>
8001060c:	08000793          	li	a5,128
80010610:	0080006f          	j	80010618 <context_irq_enable+0x44>
80010614:	00000793          	li	a5,0
80010618:	00e7e733          	or	a4,a5,a4
8001061c:	fec42783          	lw	a5,-20(s0)
80010620:	00e7a223          	sw	a4,4(a5)
80010624:	00000013          	nop
80010628:	01c12403          	lw	s0,28(sp)
8001062c:	02010113          	addi	sp,sp,32
80010630:	00008067          	ret

80010634 <timer_diff>:
80010634:	fe010113          	addi	sp,sp,-32
80010638:	00812e23          	sw	s0,28(sp)
8001063c:	02010413          	addi	s0,sp,32
80010640:	fea42623          	sw	a0,-20(s0)
80010644:	feb42423          	sw	a1,-24(s0)
80010648:	fec42703          	lw	a4,-20(s0)
8001064c:	fe842783          	lw	a5,-24(s0)
80010650:	40f707b3          	sub	a5,a4,a5
80010654:	00078513          	mv	a0,a5
80010658:	01c12403          	lw	s0,28(sp)
8001065c:	02010113          	addi	sp,sp,32
80010660:	00008067          	ret

80010664 <xsh_memstat>:
80010664:	fd010113          	addi	sp,sp,-48
80010668:	02112623          	sw	ra,44(sp)
8001066c:	02812423          	sw	s0,40(sp)
80010670:	03010413          	addi	s0,sp,48
80010674:	fca42e23          	sw	a0,-36(s0)
80010678:	fcb42c23          	sw	a1,-40(s0)
8001067c:	d58f40ef          	jal	80004bd4 <heap_free>
80010680:	fea42623          	sw	a0,-20(s0)
80010684:	fec42583          	lw	a1,-20(s0)
80010688:	800157b7          	lui	a5,0x80015
8001068c:	9bc78513          	addi	a0,a5,-1604 # 800149bc <cmdtab+0x6d4>
80010690:	0b4030ef          	jal	80013744 <kprintf>
80010694:	fdc42703          	lw	a4,-36(s0)
80010698:	00200793          	li	a5,2
8001069c:	08f71463          	bne	a4,a5,80010724 <xsh_memstat+0xc0>
800106a0:	fd842783          	lw	a5,-40(s0)
800106a4:	00478793          	addi	a5,a5,4
800106a8:	0007a703          	lw	a4,0(a5)
800106ac:	00700613          	li	a2,7
800106b0:	800157b7          	lui	a5,0x80015
800106b4:	9d078593          	addi	a1,a5,-1584 # 800149d0 <cmdtab+0x6e8>
800106b8:	00070513          	mv	a0,a4
800106bc:	f5df70ef          	jal	80008618 <strncmp>
800106c0:	00050793          	mv	a5,a0
800106c4:	06079063          	bnez	a5,80010724 <xsh_memstat+0xc0>
800106c8:	fd842783          	lw	a5,-40(s0)
800106cc:	0007a783          	lw	a5,0(a5)
800106d0:	00078593          	mv	a1,a5
800106d4:	800157b7          	lui	a5,0x80015
800106d8:	9d878513          	addi	a0,a5,-1576 # 800149d8 <cmdtab+0x6f0>
800106dc:	c69f60ef          	jal	80007344 <printf>
800106e0:	800157b7          	lui	a5,0x80015
800106e4:	9e478513          	addi	a0,a5,-1564 # 800149e4 <cmdtab+0x6fc>
800106e8:	c5df60ef          	jal	80007344 <printf>
800106ec:	800157b7          	lui	a5,0x80015
800106f0:	9f478513          	addi	a0,a5,-1548 # 800149f4 <cmdtab+0x70c>
800106f4:	c51f60ef          	jal	80007344 <printf>
800106f8:	800157b7          	lui	a5,0x80015
800106fc:	a2878513          	addi	a0,a5,-1496 # 80014a28 <cmdtab+0x740>
80010700:	c45f60ef          	jal	80007344 <printf>
80010704:	800157b7          	lui	a5,0x80015
80010708:	a3878513          	addi	a0,a5,-1480 # 80014a38 <cmdtab+0x750>
8001070c:	c39f60ef          	jal	80007344 <printf>
80010710:	800157b7          	lui	a5,0x80015
80010714:	a4478513          	addi	a0,a5,-1468 # 80014a44 <cmdtab+0x75c>
80010718:	c2df60ef          	jal	80007344 <printf>
8001071c:	00000793          	li	a5,0
80010720:	0500006f          	j	80010770 <xsh_memstat+0x10c>
80010724:	fdc42703          	lw	a4,-36(s0)
80010728:	00100793          	li	a5,1
8001072c:	02e7de63          	bge	a5,a4,80010768 <xsh_memstat+0x104>
80010730:	fd842783          	lw	a5,-40(s0)
80010734:	0007a783          	lw	a5,0(a5)
80010738:	00078593          	mv	a1,a5
8001073c:	800157b7          	lui	a5,0x80015
80010740:	a6c78513          	addi	a0,a5,-1428 # 80014a6c <cmdtab+0x784>
80010744:	c01f60ef          	jal	80007344 <printf>
80010748:	fd842783          	lw	a5,-40(s0)
8001074c:	0007a783          	lw	a5,0(a5)
80010750:	00078593          	mv	a1,a5
80010754:	800157b7          	lui	a5,0x80015
80010758:	a8478513          	addi	a0,a5,-1404 # 80014a84 <cmdtab+0x79c>
8001075c:	be9f60ef          	jal	80007344 <printf>
80010760:	00100793          	li	a5,1
80010764:	00c0006f          	j	80010770 <xsh_memstat+0x10c>
80010768:	01c000ef          	jal	80010784 <printFreeList>
8001076c:	00000793          	li	a5,0
80010770:	00078513          	mv	a0,a5
80010774:	02c12083          	lw	ra,44(sp)
80010778:	02812403          	lw	s0,40(sp)
8001077c:	03010113          	addi	sp,sp,48
80010780:	00008067          	ret

80010784 <printFreeList>:
80010784:	fe010113          	addi	sp,sp,-32
80010788:	00112e23          	sw	ra,28(sp)
8001078c:	00812c23          	sw	s0,24(sp)
80010790:	02010413          	addi	s0,sp,32
80010794:	800157b7          	lui	a5,0x80015
80010798:	aac78513          	addi	a0,a5,-1364 # 80014aac <cmdtab+0x7c4>
8001079c:	ba9f60ef          	jal	80007344 <printf>
800107a0:	800157b7          	lui	a5,0x80015
800107a4:	ab878513          	addi	a0,a5,-1352 # 80014ab8 <cmdtab+0x7d0>
800107a8:	b9df60ef          	jal	80007344 <printf>
800107ac:	800157b7          	lui	a5,0x80015
800107b0:	ae478513          	addi	a0,a5,-1308 # 80014ae4 <cmdtab+0x7fc>
800107b4:	b91f60ef          	jal	80007344 <printf>
800107b8:	8001d7b7          	lui	a5,0x8001d
800107bc:	4e478793          	addi	a5,a5,1252 # 8001d4e4 <memlist>
800107c0:	0007a783          	lw	a5,0(a5)
800107c4:	fef42623          	sw	a5,-20(s0)
800107c8:	0380006f          	j	80010800 <printFreeList+0x7c>
800107cc:	fec42783          	lw	a5,-20(s0)
800107d0:	0047a703          	lw	a4,4(a5)
800107d4:	fec42783          	lw	a5,-20(s0)
800107d8:	0047a783          	lw	a5,4(a5)
800107dc:	00078693          	mv	a3,a5
800107e0:	00070613          	mv	a2,a4
800107e4:	fec42583          	lw	a1,-20(s0)
800107e8:	800157b7          	lui	a5,0x80015
800107ec:	b1078513          	addi	a0,a5,-1264 # 80014b10 <cmdtab+0x828>
800107f0:	b55f60ef          	jal	80007344 <printf>
800107f4:	fec42783          	lw	a5,-20(s0)
800107f8:	0007a783          	lw	a5,0(a5)
800107fc:	fef42623          	sw	a5,-20(s0)
80010800:	fec42783          	lw	a5,-20(s0)
80010804:	fc0794e3          	bnez	a5,800107cc <printFreeList+0x48>
80010808:	800157b7          	lui	a5,0x80015
8001080c:	b2c78513          	addi	a0,a5,-1236 # 80014b2c <cmdtab+0x844>
80010810:	b35f60ef          	jal	80007344 <printf>
80010814:	00000013          	nop
80010818:	01c12083          	lw	ra,28(sp)
8001081c:	01812403          	lw	s0,24(sp)
80010820:	02010113          	addi	sp,sp,32
80010824:	00008067          	ret

80010828 <context_irq_enable>:
80010828:	fe010113          	addi	sp,sp,-32
8001082c:	00812e23          	sw	s0,28(sp)
80010830:	02010413          	addi	s0,sp,32
80010834:	fea42623          	sw	a0,-20(s0)
80010838:	feb42423          	sw	a1,-24(s0)
8001083c:	fec42783          	lw	a5,-20(s0)
80010840:	0047a783          	lw	a5,4(a5)
80010844:	f7f7f713          	andi	a4,a5,-129
80010848:	fec42783          	lw	a5,-20(s0)
8001084c:	00e7a223          	sw	a4,4(a5)
80010850:	fec42783          	lw	a5,-20(s0)
80010854:	0047a703          	lw	a4,4(a5)
80010858:	fe842783          	lw	a5,-24(s0)
8001085c:	00078663          	beqz	a5,80010868 <context_irq_enable+0x40>
80010860:	08000793          	li	a5,128
80010864:	0080006f          	j	8001086c <context_irq_enable+0x44>
80010868:	00000793          	li	a5,0
8001086c:	00e7e733          	or	a4,a5,a4
80010870:	fec42783          	lw	a5,-20(s0)
80010874:	00e7a223          	sw	a4,4(a5)
80010878:	00000013          	nop
8001087c:	01c12403          	lw	s0,28(sp)
80010880:	02010113          	addi	sp,sp,32
80010884:	00008067          	ret

80010888 <timer_diff>:
80010888:	fe010113          	addi	sp,sp,-32
8001088c:	00812e23          	sw	s0,28(sp)
80010890:	02010413          	addi	s0,sp,32
80010894:	fea42623          	sw	a0,-20(s0)
80010898:	feb42423          	sw	a1,-24(s0)
8001089c:	fec42703          	lw	a4,-20(s0)
800108a0:	fe842783          	lw	a5,-24(s0)
800108a4:	40f707b3          	sub	a5,a4,a5
800108a8:	00078513          	mv	a0,a5
800108ac:	01c12403          	lw	s0,28(sp)
800108b0:	02010113          	addi	sp,sp,32
800108b4:	00008067          	ret

800108b8 <xsh_mkdir>:
800108b8:	fe010113          	addi	sp,sp,-32
800108bc:	00812e23          	sw	s0,28(sp)
800108c0:	02010413          	addi	s0,sp,32
800108c4:	fea42623          	sw	a0,-20(s0)
800108c8:	feb42423          	sw	a1,-24(s0)
800108cc:	00000793          	li	a5,0
800108d0:	00078513          	mv	a0,a5
800108d4:	01c12403          	lw	s0,28(sp)
800108d8:	02010113          	addi	sp,sp,32
800108dc:	00008067          	ret

800108e0 <context_irq_enable>:
800108e0:	fe010113          	addi	sp,sp,-32
800108e4:	00812e23          	sw	s0,28(sp)
800108e8:	02010413          	addi	s0,sp,32
800108ec:	fea42623          	sw	a0,-20(s0)
800108f0:	feb42423          	sw	a1,-24(s0)
800108f4:	fec42783          	lw	a5,-20(s0)
800108f8:	0047a783          	lw	a5,4(a5)
800108fc:	f7f7f713          	andi	a4,a5,-129
80010900:	fec42783          	lw	a5,-20(s0)
80010904:	00e7a223          	sw	a4,4(a5)
80010908:	fec42783          	lw	a5,-20(s0)
8001090c:	0047a703          	lw	a4,4(a5)
80010910:	fe842783          	lw	a5,-24(s0)
80010914:	00078663          	beqz	a5,80010920 <context_irq_enable+0x40>
80010918:	08000793          	li	a5,128
8001091c:	0080006f          	j	80010924 <context_irq_enable+0x44>
80010920:	00000793          	li	a5,0
80010924:	00e7e733          	or	a4,a5,a4
80010928:	fec42783          	lw	a5,-20(s0)
8001092c:	00e7a223          	sw	a4,4(a5)
80010930:	00000013          	nop
80010934:	01c12403          	lw	s0,28(sp)
80010938:	02010113          	addi	sp,sp,32
8001093c:	00008067          	ret

80010940 <timer_diff>:
80010940:	fe010113          	addi	sp,sp,-32
80010944:	00812e23          	sw	s0,28(sp)
80010948:	02010413          	addi	s0,sp,32
8001094c:	fea42623          	sw	a0,-20(s0)
80010950:	feb42423          	sw	a1,-24(s0)
80010954:	fec42703          	lw	a4,-20(s0)
80010958:	fe842783          	lw	a5,-24(s0)
8001095c:	40f707b3          	sub	a5,a4,a5
80010960:	00078513          	mv	a0,a5
80010964:	01c12403          	lw	s0,28(sp)
80010968:	02010113          	addi	sp,sp,32
8001096c:	00008067          	ret

80010970 <xsh_ps>:
80010970:	fb010113          	addi	sp,sp,-80
80010974:	04112623          	sw	ra,76(sp)
80010978:	04812423          	sw	s0,72(sp)
8001097c:	05010413          	addi	s0,sp,80
80010980:	faa42e23          	sw	a0,-68(s0)
80010984:	fab42c23          	sw	a1,-72(s0)
80010988:	800157b7          	lui	a5,0x80015
8001098c:	cdc78793          	addi	a5,a5,-804 # 80014cdc <cmdtab+0x9f4>
80010990:	0007a883          	lw	a7,0(a5)
80010994:	0047a803          	lw	a6,4(a5)
80010998:	0087a503          	lw	a0,8(a5)
8001099c:	00c7a583          	lw	a1,12(a5)
800109a0:	0107a603          	lw	a2,16(a5)
800109a4:	0147a683          	lw	a3,20(a5)
800109a8:	0187a703          	lw	a4,24(a5)
800109ac:	01c7a783          	lw	a5,28(a5)
800109b0:	fd142423          	sw	a7,-56(s0)
800109b4:	fd042623          	sw	a6,-52(s0)
800109b8:	fca42823          	sw	a0,-48(s0)
800109bc:	fcb42a23          	sw	a1,-44(s0)
800109c0:	fcc42c23          	sw	a2,-40(s0)
800109c4:	fcd42e23          	sw	a3,-36(s0)
800109c8:	fee42023          	sw	a4,-32(s0)
800109cc:	fef42223          	sw	a5,-28(s0)
800109d0:	fbc42703          	lw	a4,-68(s0)
800109d4:	00200793          	li	a5,2
800109d8:	06f71e63          	bne	a4,a5,80010a54 <xsh_ps+0xe4>
800109dc:	fb842783          	lw	a5,-72(s0)
800109e0:	00478793          	addi	a5,a5,4
800109e4:	0007a703          	lw	a4,0(a5)
800109e8:	00700613          	li	a2,7
800109ec:	800157b7          	lui	a5,0x80015
800109f0:	b3078593          	addi	a1,a5,-1232 # 80014b30 <cmdtab+0x848>
800109f4:	00070513          	mv	a0,a4
800109f8:	c21f70ef          	jal	80008618 <strncmp>
800109fc:	00050793          	mv	a5,a0
80010a00:	04079a63          	bnez	a5,80010a54 <xsh_ps+0xe4>
80010a04:	fb842783          	lw	a5,-72(s0)
80010a08:	0007a783          	lw	a5,0(a5)
80010a0c:	00078593          	mv	a1,a5
80010a10:	800157b7          	lui	a5,0x80015
80010a14:	b3878513          	addi	a0,a5,-1224 # 80014b38 <cmdtab+0x850>
80010a18:	92df60ef          	jal	80007344 <printf>
80010a1c:	800157b7          	lui	a5,0x80015
80010a20:	b4478513          	addi	a0,a5,-1212 # 80014b44 <cmdtab+0x85c>
80010a24:	921f60ef          	jal	80007344 <printf>
80010a28:	800157b7          	lui	a5,0x80015
80010a2c:	b5478513          	addi	a0,a5,-1196 # 80014b54 <cmdtab+0x86c>
80010a30:	915f60ef          	jal	80007344 <printf>
80010a34:	800157b7          	lui	a5,0x80015
80010a38:	b8478513          	addi	a0,a5,-1148 # 80014b84 <cmdtab+0x89c>
80010a3c:	909f60ef          	jal	80007344 <printf>
80010a40:	800157b7          	lui	a5,0x80015
80010a44:	b9078513          	addi	a0,a5,-1136 # 80014b90 <cmdtab+0x8a8>
80010a48:	8fdf60ef          	jal	80007344 <printf>
80010a4c:	00000793          	li	a5,0
80010a50:	16c0006f          	j	80010bbc <xsh_ps+0x24c>
80010a54:	fbc42703          	lw	a4,-68(s0)
80010a58:	00100793          	li	a5,1
80010a5c:	04e7d263          	bge	a5,a4,80010aa0 <xsh_ps+0x130>
80010a60:	fb842783          	lw	a5,-72(s0)
80010a64:	0007a783          	lw	a5,0(a5)
80010a68:	00078613          	mv	a2,a5
80010a6c:	800157b7          	lui	a5,0x80015
80010a70:	bb878593          	addi	a1,a5,-1096 # 80014bb8 <cmdtab+0x8d0>
80010a74:	00000513          	li	a0,0
80010a78:	848f40ef          	jal	80004ac0 <fprintf>
80010a7c:	fb842783          	lw	a5,-72(s0)
80010a80:	0007a783          	lw	a5,0(a5)
80010a84:	00078613          	mv	a2,a5
80010a88:	800157b7          	lui	a5,0x80015
80010a8c:	bd078593          	addi	a1,a5,-1072 # 80014bd0 <cmdtab+0x8e8>
80010a90:	00000513          	li	a0,0
80010a94:	82cf40ef          	jal	80004ac0 <fprintf>
80010a98:	00100793          	li	a5,1
80010a9c:	1200006f          	j	80010bbc <xsh_ps+0x24c>
80010aa0:	800157b7          	lui	a5,0x80015
80010aa4:	bf878813          	addi	a6,a5,-1032 # 80014bf8 <cmdtab+0x910>
80010aa8:	800157b7          	lui	a5,0x80015
80010aac:	c0478793          	addi	a5,a5,-1020 # 80014c04 <cmdtab+0x91c>
80010ab0:	80015737          	lui	a4,0x80015
80010ab4:	c1070713          	addi	a4,a4,-1008 # 80014c10 <cmdtab+0x928>
80010ab8:	800156b7          	lui	a3,0x80015
80010abc:	c1c68693          	addi	a3,a3,-996 # 80014c1c <cmdtab+0x934>
80010ac0:	80015637          	lui	a2,0x80015
80010ac4:	c2460613          	addi	a2,a2,-988 # 80014c24 <cmdtab+0x93c>
80010ac8:	800155b7          	lui	a1,0x80015
80010acc:	c2c58593          	addi	a1,a1,-980 # 80014c2c <cmdtab+0x944>
80010ad0:	80015537          	lui	a0,0x80015
80010ad4:	c3050513          	addi	a0,a0,-976 # 80014c30 <cmdtab+0x948>
80010ad8:	86df60ef          	jal	80007344 <printf>
80010adc:	800157b7          	lui	a5,0x80015
80010ae0:	c5078813          	addi	a6,a5,-944 # 80014c50 <cmdtab+0x968>
80010ae4:	800157b7          	lui	a5,0x80015
80010ae8:	c5078793          	addi	a5,a5,-944 # 80014c50 <cmdtab+0x968>
80010aec:	80015737          	lui	a4,0x80015
80010af0:	c5070713          	addi	a4,a4,-944 # 80014c50 <cmdtab+0x968>
80010af4:	800156b7          	lui	a3,0x80015
80010af8:	c5c68693          	addi	a3,a3,-932 # 80014c5c <cmdtab+0x974>
80010afc:	80015637          	lui	a2,0x80015
80010b00:	c6460613          	addi	a2,a2,-924 # 80014c64 <cmdtab+0x97c>
80010b04:	800155b7          	lui	a1,0x80015
80010b08:	c7858593          	addi	a1,a1,-904 # 80014c78 <cmdtab+0x990>
80010b0c:	80015537          	lui	a0,0x80015
80010b10:	c3050513          	addi	a0,a0,-976 # 80014c30 <cmdtab+0x948>
80010b14:	831f60ef          	jal	80007344 <printf>
80010b18:	fe042623          	sw	zero,-20(s0)
80010b1c:	0900006f          	j	80010bac <xsh_ps+0x23c>
80010b20:	fec42703          	lw	a4,-20(s0)
80010b24:	06400793          	li	a5,100
80010b28:	02f70733          	mul	a4,a4,a5
80010b2c:	800177b7          	lui	a5,0x80017
80010b30:	a3c78793          	addi	a5,a5,-1476 # 80016a3c <proctab>
80010b34:	00f707b3          	add	a5,a4,a5
80010b38:	fef42423          	sw	a5,-24(s0)
80010b3c:	fe842783          	lw	a5,-24(s0)
80010b40:	0007d783          	lhu	a5,0(a5)
80010b44:	04078c63          	beqz	a5,80010b9c <xsh_ps+0x22c>
80010b48:	fe842783          	lw	a5,-24(s0)
80010b4c:	01078613          	addi	a2,a5,16
80010b50:	fe842783          	lw	a5,-24(s0)
80010b54:	0007d783          	lhu	a5,0(a5)
80010b58:	00279793          	slli	a5,a5,0x2
80010b5c:	ff078793          	addi	a5,a5,-16
80010b60:	008787b3          	add	a5,a5,s0
80010b64:	fd87a683          	lw	a3,-40(a5)
80010b68:	fe842783          	lw	a5,-24(s0)
80010b6c:	0087a703          	lw	a4,8(a5)
80010b70:	fe842783          	lw	a5,-24(s0)
80010b74:	0047a583          	lw	a1,4(a5)
80010b78:	fe842783          	lw	a5,-24(s0)
80010b7c:	00c7a783          	lw	a5,12(a5)
80010b80:	00078813          	mv	a6,a5
80010b84:	00058793          	mv	a5,a1
80010b88:	fec42583          	lw	a1,-20(s0)
80010b8c:	80015537          	lui	a0,0x80015
80010b90:	c7c50513          	addi	a0,a0,-900 # 80014c7c <cmdtab+0x994>
80010b94:	fb0f60ef          	jal	80007344 <printf>
80010b98:	0080006f          	j	80010ba0 <xsh_ps+0x230>
80010b9c:	00000013          	nop
80010ba0:	fec42783          	lw	a5,-20(s0)
80010ba4:	00178793          	addi	a5,a5,1
80010ba8:	fef42623          	sw	a5,-20(s0)
80010bac:	fec42703          	lw	a4,-20(s0)
80010bb0:	00900793          	li	a5,9
80010bb4:	f6e7d6e3          	bge	a5,a4,80010b20 <xsh_ps+0x1b0>
80010bb8:	00000793          	li	a5,0
80010bbc:	00078513          	mv	a0,a5
80010bc0:	04c12083          	lw	ra,76(sp)
80010bc4:	04812403          	lw	s0,72(sp)
80010bc8:	05010113          	addi	sp,sp,80
80010bcc:	00008067          	ret

80010bd0 <context_irq_enable>:
80010bd0:	fe010113          	addi	sp,sp,-32
80010bd4:	00812e23          	sw	s0,28(sp)
80010bd8:	02010413          	addi	s0,sp,32
80010bdc:	fea42623          	sw	a0,-20(s0)
80010be0:	feb42423          	sw	a1,-24(s0)
80010be4:	fec42783          	lw	a5,-20(s0)
80010be8:	0047a783          	lw	a5,4(a5)
80010bec:	f7f7f713          	andi	a4,a5,-129
80010bf0:	fec42783          	lw	a5,-20(s0)
80010bf4:	00e7a223          	sw	a4,4(a5)
80010bf8:	fec42783          	lw	a5,-20(s0)
80010bfc:	0047a703          	lw	a4,4(a5)
80010c00:	fe842783          	lw	a5,-24(s0)
80010c04:	00078663          	beqz	a5,80010c10 <context_irq_enable+0x40>
80010c08:	08000793          	li	a5,128
80010c0c:	0080006f          	j	80010c14 <context_irq_enable+0x44>
80010c10:	00000793          	li	a5,0
80010c14:	00e7e733          	or	a4,a5,a4
80010c18:	fec42783          	lw	a5,-20(s0)
80010c1c:	00e7a223          	sw	a4,4(a5)
80010c20:	00000013          	nop
80010c24:	01c12403          	lw	s0,28(sp)
80010c28:	02010113          	addi	sp,sp,32
80010c2c:	00008067          	ret

80010c30 <timer_diff>:
80010c30:	fe010113          	addi	sp,sp,-32
80010c34:	00812e23          	sw	s0,28(sp)
80010c38:	02010413          	addi	s0,sp,32
80010c3c:	fea42623          	sw	a0,-20(s0)
80010c40:	feb42423          	sw	a1,-24(s0)
80010c44:	fec42703          	lw	a4,-20(s0)
80010c48:	fe842783          	lw	a5,-24(s0)
80010c4c:	40f707b3          	sub	a5,a4,a5
80010c50:	00078513          	mv	a0,a5
80010c54:	01c12403          	lw	s0,28(sp)
80010c58:	02010113          	addi	sp,sp,32
80010c5c:	00008067          	ret

80010c60 <xsh_pwd>:
80010c60:	fe010113          	addi	sp,sp,-32
80010c64:	00812e23          	sw	s0,28(sp)
80010c68:	02010413          	addi	s0,sp,32
80010c6c:	fea42623          	sw	a0,-20(s0)
80010c70:	feb42423          	sw	a1,-24(s0)
80010c74:	00000793          	li	a5,0
80010c78:	00078513          	mv	a0,a5
80010c7c:	01c12403          	lw	s0,28(sp)
80010c80:	02010113          	addi	sp,sp,32
80010c84:	00008067          	ret

80010c88 <context_irq_enable>:
80010c88:	fe010113          	addi	sp,sp,-32
80010c8c:	00812e23          	sw	s0,28(sp)
80010c90:	02010413          	addi	s0,sp,32
80010c94:	fea42623          	sw	a0,-20(s0)
80010c98:	feb42423          	sw	a1,-24(s0)
80010c9c:	fec42783          	lw	a5,-20(s0)
80010ca0:	0047a783          	lw	a5,4(a5)
80010ca4:	f7f7f713          	andi	a4,a5,-129
80010ca8:	fec42783          	lw	a5,-20(s0)
80010cac:	00e7a223          	sw	a4,4(a5)
80010cb0:	fec42783          	lw	a5,-20(s0)
80010cb4:	0047a703          	lw	a4,4(a5)
80010cb8:	fe842783          	lw	a5,-24(s0)
80010cbc:	00078663          	beqz	a5,80010cc8 <context_irq_enable+0x40>
80010cc0:	08000793          	li	a5,128
80010cc4:	0080006f          	j	80010ccc <context_irq_enable+0x44>
80010cc8:	00000793          	li	a5,0
80010ccc:	00e7e733          	or	a4,a5,a4
80010cd0:	fec42783          	lw	a5,-20(s0)
80010cd4:	00e7a223          	sw	a4,4(a5)
80010cd8:	00000013          	nop
80010cdc:	01c12403          	lw	s0,28(sp)
80010ce0:	02010113          	addi	sp,sp,32
80010ce4:	00008067          	ret

80010ce8 <timer_diff>:
80010ce8:	fe010113          	addi	sp,sp,-32
80010cec:	00812e23          	sw	s0,28(sp)
80010cf0:	02010413          	addi	s0,sp,32
80010cf4:	fea42623          	sw	a0,-20(s0)
80010cf8:	feb42423          	sw	a1,-24(s0)
80010cfc:	fec42703          	lw	a4,-20(s0)
80010d00:	fe842783          	lw	a5,-24(s0)
80010d04:	40f707b3          	sub	a5,a4,a5
80010d08:	00078513          	mv	a0,a5
80010d0c:	01c12403          	lw	s0,28(sp)
80010d10:	02010113          	addi	sp,sp,32
80010d14:	00008067          	ret

80010d18 <xsh_reboot>:
80010d18:	fd010113          	addi	sp,sp,-48
80010d1c:	02812623          	sw	s0,44(sp)
80010d20:	03010413          	addi	s0,sp,48
80010d24:	fca42e23          	sw	a0,-36(s0)
80010d28:	fcb42c23          	sw	a1,-40(s0)
80010d2c:	000077b7          	lui	a5,0x7
80010d30:	77778793          	addi	a5,a5,1911 # 7777 <_start-0x7fff8889>
80010d34:	fef42623          	sw	a5,-20(s0)
80010d38:	fec42783          	lw	a5,-20(s0)
80010d3c:	111002b7          	lui	t0,0x11100
80010d40:	00f2a023          	sw	a5,0(t0) # 11100000 <_start-0x6ef00000>
80010d44:	00000793          	li	a5,0
80010d48:	00078513          	mv	a0,a5
80010d4c:	02c12403          	lw	s0,44(sp)
80010d50:	03010113          	addi	sp,sp,48
80010d54:	00008067          	ret

80010d58 <context_irq_enable>:
80010d58:	fe010113          	addi	sp,sp,-32
80010d5c:	00812e23          	sw	s0,28(sp)
80010d60:	02010413          	addi	s0,sp,32
80010d64:	fea42623          	sw	a0,-20(s0)
80010d68:	feb42423          	sw	a1,-24(s0)
80010d6c:	fec42783          	lw	a5,-20(s0)
80010d70:	0047a783          	lw	a5,4(a5)
80010d74:	f7f7f713          	andi	a4,a5,-129
80010d78:	fec42783          	lw	a5,-20(s0)
80010d7c:	00e7a223          	sw	a4,4(a5)
80010d80:	fec42783          	lw	a5,-20(s0)
80010d84:	0047a703          	lw	a4,4(a5)
80010d88:	fe842783          	lw	a5,-24(s0)
80010d8c:	00078663          	beqz	a5,80010d98 <context_irq_enable+0x40>
80010d90:	08000793          	li	a5,128
80010d94:	0080006f          	j	80010d9c <context_irq_enable+0x44>
80010d98:	00000793          	li	a5,0
80010d9c:	00e7e733          	or	a4,a5,a4
80010da0:	fec42783          	lw	a5,-20(s0)
80010da4:	00e7a223          	sw	a4,4(a5)
80010da8:	00000013          	nop
80010dac:	01c12403          	lw	s0,28(sp)
80010db0:	02010113          	addi	sp,sp,32
80010db4:	00008067          	ret

80010db8 <timer_diff>:
80010db8:	fe010113          	addi	sp,sp,-32
80010dbc:	00812e23          	sw	s0,28(sp)
80010dc0:	02010413          	addi	s0,sp,32
80010dc4:	fea42623          	sw	a0,-20(s0)
80010dc8:	feb42423          	sw	a1,-24(s0)
80010dcc:	fec42703          	lw	a4,-20(s0)
80010dd0:	fe842783          	lw	a5,-24(s0)
80010dd4:	40f707b3          	sub	a5,a4,a5
80010dd8:	00078513          	mv	a0,a5
80010ddc:	01c12403          	lw	s0,28(sp)
80010de0:	02010113          	addi	sp,sp,32
80010de4:	00008067          	ret

80010de8 <xsh_rm>:
80010de8:	fe010113          	addi	sp,sp,-32
80010dec:	00812e23          	sw	s0,28(sp)
80010df0:	02010413          	addi	s0,sp,32
80010df4:	fea42623          	sw	a0,-20(s0)
80010df8:	feb42423          	sw	a1,-24(s0)
80010dfc:	00000793          	li	a5,0
80010e00:	00078513          	mv	a0,a5
80010e04:	01c12403          	lw	s0,28(sp)
80010e08:	02010113          	addi	sp,sp,32
80010e0c:	00008067          	ret

80010e10 <context_irq_enable>:
80010e10:	fe010113          	addi	sp,sp,-32
80010e14:	00812e23          	sw	s0,28(sp)
80010e18:	02010413          	addi	s0,sp,32
80010e1c:	fea42623          	sw	a0,-20(s0)
80010e20:	feb42423          	sw	a1,-24(s0)
80010e24:	fec42783          	lw	a5,-20(s0)
80010e28:	0047a783          	lw	a5,4(a5)
80010e2c:	f7f7f713          	andi	a4,a5,-129
80010e30:	fec42783          	lw	a5,-20(s0)
80010e34:	00e7a223          	sw	a4,4(a5)
80010e38:	fec42783          	lw	a5,-20(s0)
80010e3c:	0047a703          	lw	a4,4(a5)
80010e40:	fe842783          	lw	a5,-24(s0)
80010e44:	00078663          	beqz	a5,80010e50 <context_irq_enable+0x40>
80010e48:	08000793          	li	a5,128
80010e4c:	0080006f          	j	80010e54 <context_irq_enable+0x44>
80010e50:	00000793          	li	a5,0
80010e54:	00e7e733          	or	a4,a5,a4
80010e58:	fec42783          	lw	a5,-20(s0)
80010e5c:	00e7a223          	sw	a4,4(a5)
80010e60:	00000013          	nop
80010e64:	01c12403          	lw	s0,28(sp)
80010e68:	02010113          	addi	sp,sp,32
80010e6c:	00008067          	ret

80010e70 <timer_diff>:
80010e70:	fe010113          	addi	sp,sp,-32
80010e74:	00812e23          	sw	s0,28(sp)
80010e78:	02010413          	addi	s0,sp,32
80010e7c:	fea42623          	sw	a0,-20(s0)
80010e80:	feb42423          	sw	a1,-24(s0)
80010e84:	fec42703          	lw	a4,-20(s0)
80010e88:	fe842783          	lw	a5,-24(s0)
80010e8c:	40f707b3          	sub	a5,a4,a5
80010e90:	00078513          	mv	a0,a5
80010e94:	01c12403          	lw	s0,28(sp)
80010e98:	02010113          	addi	sp,sp,32
80010e9c:	00008067          	ret

80010ea0 <xsh_run>:
80010ea0:	fe010113          	addi	sp,sp,-32
80010ea4:	00812e23          	sw	s0,28(sp)
80010ea8:	02010413          	addi	s0,sp,32
80010eac:	fea42623          	sw	a0,-20(s0)
80010eb0:	feb42423          	sw	a1,-24(s0)
80010eb4:	00000793          	li	a5,0
80010eb8:	00078513          	mv	a0,a5
80010ebc:	01c12403          	lw	s0,28(sp)
80010ec0:	02010113          	addi	sp,sp,32
80010ec4:	00008067          	ret

80010ec8 <context_irq_enable>:
80010ec8:	fe010113          	addi	sp,sp,-32
80010ecc:	00812e23          	sw	s0,28(sp)
80010ed0:	02010413          	addi	s0,sp,32
80010ed4:	fea42623          	sw	a0,-20(s0)
80010ed8:	feb42423          	sw	a1,-24(s0)
80010edc:	fec42783          	lw	a5,-20(s0)
80010ee0:	0047a783          	lw	a5,4(a5)
80010ee4:	f7f7f713          	andi	a4,a5,-129
80010ee8:	fec42783          	lw	a5,-20(s0)
80010eec:	00e7a223          	sw	a4,4(a5)
80010ef0:	fec42783          	lw	a5,-20(s0)
80010ef4:	0047a703          	lw	a4,4(a5)
80010ef8:	fe842783          	lw	a5,-24(s0)
80010efc:	00078663          	beqz	a5,80010f08 <context_irq_enable+0x40>
80010f00:	08000793          	li	a5,128
80010f04:	0080006f          	j	80010f0c <context_irq_enable+0x44>
80010f08:	00000793          	li	a5,0
80010f0c:	00e7e733          	or	a4,a5,a4
80010f10:	fec42783          	lw	a5,-20(s0)
80010f14:	00e7a223          	sw	a4,4(a5)
80010f18:	00000013          	nop
80010f1c:	01c12403          	lw	s0,28(sp)
80010f20:	02010113          	addi	sp,sp,32
80010f24:	00008067          	ret

80010f28 <timer_diff>:
80010f28:	fe010113          	addi	sp,sp,-32
80010f2c:	00812e23          	sw	s0,28(sp)
80010f30:	02010413          	addi	s0,sp,32
80010f34:	fea42623          	sw	a0,-20(s0)
80010f38:	feb42423          	sw	a1,-24(s0)
80010f3c:	fec42703          	lw	a4,-20(s0)
80010f40:	fe842783          	lw	a5,-24(s0)
80010f44:	40f707b3          	sub	a5,a4,a5
80010f48:	00078513          	mv	a0,a5
80010f4c:	01c12403          	lw	s0,28(sp)
80010f50:	02010113          	addi	sp,sp,32
80010f54:	00008067          	ret

80010f58 <fibonacci_recursivo>:
80010f58:	fe010113          	addi	sp,sp,-32
80010f5c:	00112e23          	sw	ra,28(sp)
80010f60:	00812c23          	sw	s0,24(sp)
80010f64:	00912a23          	sw	s1,20(sp)
80010f68:	02010413          	addi	s0,sp,32
80010f6c:	fea42623          	sw	a0,-20(s0)
80010f70:	fec42783          	lw	a5,-20(s0)
80010f74:	00f04663          	bgtz	a5,80010f80 <fibonacci_recursivo+0x28>
80010f78:	00000793          	li	a5,0
80010f7c:	0440006f          	j	80010fc0 <fibonacci_recursivo+0x68>
80010f80:	fec42703          	lw	a4,-20(s0)
80010f84:	00100793          	li	a5,1
80010f88:	00f71663          	bne	a4,a5,80010f94 <fibonacci_recursivo+0x3c>
80010f8c:	00100793          	li	a5,1
80010f90:	0300006f          	j	80010fc0 <fibonacci_recursivo+0x68>
80010f94:	fec42783          	lw	a5,-20(s0)
80010f98:	fff78793          	addi	a5,a5,-1
80010f9c:	00078513          	mv	a0,a5
80010fa0:	fb9ff0ef          	jal	80010f58 <fibonacci_recursivo>
80010fa4:	00050493          	mv	s1,a0
80010fa8:	fec42783          	lw	a5,-20(s0)
80010fac:	ffe78793          	addi	a5,a5,-2
80010fb0:	00078513          	mv	a0,a5
80010fb4:	fa5ff0ef          	jal	80010f58 <fibonacci_recursivo>
80010fb8:	00050793          	mv	a5,a0
80010fbc:	00f487b3          	add	a5,s1,a5
80010fc0:	00078513          	mv	a0,a5
80010fc4:	01c12083          	lw	ra,28(sp)
80010fc8:	01812403          	lw	s0,24(sp)
80010fcc:	01412483          	lw	s1,20(sp)
80010fd0:	02010113          	addi	sp,sp,32
80010fd4:	00008067          	ret

80010fd8 <factorial_recursivo>:
80010fd8:	fe010113          	addi	sp,sp,-32
80010fdc:	00112e23          	sw	ra,28(sp)
80010fe0:	00812c23          	sw	s0,24(sp)
80010fe4:	02010413          	addi	s0,sp,32
80010fe8:	fea42623          	sw	a0,-20(s0)
80010fec:	fec42783          	lw	a5,-20(s0)
80010ff0:	0007d663          	bgez	a5,80010ffc <factorial_recursivo+0x24>
80010ff4:	00000793          	li	a5,0
80010ff8:	03c0006f          	j	80011034 <factorial_recursivo+0x5c>
80010ffc:	fec42783          	lw	a5,-20(s0)
80011000:	00078863          	beqz	a5,80011010 <factorial_recursivo+0x38>
80011004:	fec42703          	lw	a4,-20(s0)
80011008:	00100793          	li	a5,1
8001100c:	00f71663          	bne	a4,a5,80011018 <factorial_recursivo+0x40>
80011010:	00100793          	li	a5,1
80011014:	0200006f          	j	80011034 <factorial_recursivo+0x5c>
80011018:	fec42783          	lw	a5,-20(s0)
8001101c:	fff78793          	addi	a5,a5,-1
80011020:	00078513          	mv	a0,a5
80011024:	fb5ff0ef          	jal	80010fd8 <factorial_recursivo>
80011028:	00050713          	mv	a4,a0
8001102c:	fec42783          	lw	a5,-20(s0)
80011030:	02f707b3          	mul	a5,a4,a5
80011034:	00078513          	mv	a0,a5
80011038:	01c12083          	lw	ra,28(sp)
8001103c:	01812403          	lw	s0,24(sp)
80011040:	02010113          	addi	sp,sp,32
80011044:	00008067          	ret

80011048 <ex1>:
80011048:	fe010113          	addi	sp,sp,-32
8001104c:	00112e23          	sw	ra,28(sp)
80011050:	00812c23          	sw	s0,24(sp)
80011054:	00912a23          	sw	s1,20(sp)
80011058:	02010413          	addi	s0,sp,32
8001105c:	fea42623          	sw	a0,-20(s0)
80011060:	feb42423          	sw	a1,-24(s0)
80011064:	fe842783          	lw	a5,-24(s0)
80011068:	0007a483          	lw	s1,0(a5)
8001106c:	fe842783          	lw	a5,-24(s0)
80011070:	00478793          	addi	a5,a5,4
80011074:	0007a783          	lw	a5,0(a5)
80011078:	00078513          	mv	a0,a5
8001107c:	ce5f60ef          	jal	80007d60 <atoi>
80011080:	00050793          	mv	a5,a0
80011084:	00078613          	mv	a2,a5
80011088:	00048593          	mv	a1,s1
8001108c:	800157b7          	lui	a5,0x80015
80011090:	cfc78513          	addi	a0,a5,-772 # 80014cfc <cmdtab+0xa14>
80011094:	ab0f60ef          	jal	80007344 <printf>
80011098:	fe842783          	lw	a5,-24(s0)
8001109c:	00478793          	addi	a5,a5,4
800110a0:	0007a783          	lw	a5,0(a5)
800110a4:	00078513          	mv	a0,a5
800110a8:	cb9f60ef          	jal	80007d60 <atoi>
800110ac:	00050793          	mv	a5,a0
800110b0:	00078513          	mv	a0,a5
800110b4:	f25ff0ef          	jal	80010fd8 <factorial_recursivo>
800110b8:	00050793          	mv	a5,a0
800110bc:	00078593          	mv	a1,a5
800110c0:	800157b7          	lui	a5,0x80015
800110c4:	d0478513          	addi	a0,a5,-764 # 80014d04 <cmdtab+0xa1c>
800110c8:	a7cf60ef          	jal	80007344 <printf>
800110cc:	800157b7          	lui	a5,0x80015
800110d0:	d1478513          	addi	a0,a5,-748 # 80014d14 <cmdtab+0xa2c>
800110d4:	a70f60ef          	jal	80007344 <printf>
800110d8:	00100793          	li	a5,1
800110dc:	00078513          	mv	a0,a5
800110e0:	01c12083          	lw	ra,28(sp)
800110e4:	01812403          	lw	s0,24(sp)
800110e8:	01412483          	lw	s1,20(sp)
800110ec:	02010113          	addi	sp,sp,32
800110f0:	00008067          	ret

800110f4 <ex0>:
800110f4:	fe010113          	addi	sp,sp,-32
800110f8:	00112e23          	sw	ra,28(sp)
800110fc:	00812c23          	sw	s0,24(sp)
80011100:	02010413          	addi	s0,sp,32
80011104:	fea42623          	sw	a0,-20(s0)
80011108:	feb42423          	sw	a1,-24(s0)
8001110c:	fe842783          	lw	a5,-24(s0)
80011110:	0007a783          	lw	a5,0(a5)
80011114:	00078813          	mv	a6,a5
80011118:	800157b7          	lui	a5,0x80015
8001111c:	d4478793          	addi	a5,a5,-700 # 80014d44 <cmdtab+0xa5c>
80011120:	00200713          	li	a4,2
80011124:	800156b7          	lui	a3,0x80015
80011128:	d5468693          	addi	a3,a3,-684 # 80014d54 <cmdtab+0xa6c>
8001112c:	00100613          	li	a2,1
80011130:	000025b7          	lui	a1,0x2
80011134:	80011537          	lui	a0,0x80011
80011138:	04850513          	addi	a0,a0,72 # 80011048 <ex1>
8001113c:	c05f90ef          	jal	8000ad40 <create>
80011140:	00050793          	mv	a5,a0
80011144:	00078513          	mv	a0,a5
80011148:	881fa0ef          	jal	8000b9c8 <resume>
8001114c:	00100793          	li	a5,1
80011150:	00078513          	mv	a0,a5
80011154:	01c12083          	lw	ra,28(sp)
80011158:	01812403          	lw	s0,24(sp)
8001115c:	02010113          	addi	sp,sp,32
80011160:	00008067          	ret

80011164 <xsh_test2>:
80011164:	fd010113          	addi	sp,sp,-48
80011168:	02112623          	sw	ra,44(sp)
8001116c:	02812423          	sw	s0,40(sp)
80011170:	03010413          	addi	s0,sp,48
80011174:	fca42e23          	sw	a0,-36(s0)
80011178:	fcb42c23          	sw	a1,-40(s0)
8001117c:	fe042623          	sw	zero,-20(s0)
80011180:	0700006f          	j	800111f0 <xsh_test2+0x8c>
80011184:	fe040793          	addi	a5,s0,-32
80011188:	00a00693          	li	a3,10
8001118c:	00a00613          	li	a2,10
80011190:	00078593          	mv	a1,a5
80011194:	fec42503          	lw	a0,-20(s0)
80011198:	d55f60ef          	jal	80007eec <itoa>
8001119c:	fec42783          	lw	a5,-20(s0)
800111a0:	01079613          	slli	a2,a5,0x10
800111a4:	41065613          	srai	a2,a2,0x10
800111a8:	fe040713          	addi	a4,s0,-32
800111ac:	800157b7          	lui	a5,0x80015
800111b0:	d5c78813          	addi	a6,a5,-676 # 80014d5c <cmdtab+0xa74>
800111b4:	00070793          	mv	a5,a4
800111b8:	00200713          	li	a4,2
800111bc:	800156b7          	lui	a3,0x80015
800111c0:	d6468693          	addi	a3,a3,-668 # 80014d64 <cmdtab+0xa7c>
800111c4:	000015b7          	lui	a1,0x1
800111c8:	80011537          	lui	a0,0x80011
800111cc:	0f450513          	addi	a0,a0,244 # 800110f4 <ex0>
800111d0:	b71f90ef          	jal	8000ad40 <create>
800111d4:	00050793          	mv	a5,a0
800111d8:	00078513          	mv	a0,a5
800111dc:	fecfa0ef          	jal	8000b9c8 <resume>
800111e0:	805fb0ef          	jal	8000c9e4 <receive>
800111e4:	fec42783          	lw	a5,-20(s0)
800111e8:	00178793          	addi	a5,a5,1
800111ec:	fef42623          	sw	a5,-20(s0)
800111f0:	fec42703          	lw	a4,-20(s0)
800111f4:	3e700793          	li	a5,999
800111f8:	f8e7d6e3          	bge	a5,a4,80011184 <xsh_test2+0x20>
800111fc:	00000793          	li	a5,0
80011200:	00078513          	mv	a0,a5
80011204:	02c12083          	lw	ra,44(sp)
80011208:	02812403          	lw	s0,40(sp)
8001120c:	03010113          	addi	sp,sp,48
80011210:	00008067          	ret

80011214 <context_irq_enable>:
80011214:	fe010113          	addi	sp,sp,-32
80011218:	00812e23          	sw	s0,28(sp)
8001121c:	02010413          	addi	s0,sp,32
80011220:	fea42623          	sw	a0,-20(s0)
80011224:	feb42423          	sw	a1,-24(s0)
80011228:	fec42783          	lw	a5,-20(s0)
8001122c:	0047a783          	lw	a5,4(a5)
80011230:	f7f7f713          	andi	a4,a5,-129
80011234:	fec42783          	lw	a5,-20(s0)
80011238:	00e7a223          	sw	a4,4(a5)
8001123c:	fec42783          	lw	a5,-20(s0)
80011240:	0047a703          	lw	a4,4(a5)
80011244:	fe842783          	lw	a5,-24(s0)
80011248:	00078663          	beqz	a5,80011254 <context_irq_enable+0x40>
8001124c:	08000793          	li	a5,128
80011250:	0080006f          	j	80011258 <context_irq_enable+0x44>
80011254:	00000793          	li	a5,0
80011258:	00e7e733          	or	a4,a5,a4
8001125c:	fec42783          	lw	a5,-20(s0)
80011260:	00e7a223          	sw	a4,4(a5)
80011264:	00000013          	nop
80011268:	01c12403          	lw	s0,28(sp)
8001126c:	02010113          	addi	sp,sp,32
80011270:	00008067          	ret

80011274 <timer_diff>:
80011274:	fe010113          	addi	sp,sp,-32
80011278:	00812e23          	sw	s0,28(sp)
8001127c:	02010413          	addi	s0,sp,32
80011280:	fea42623          	sw	a0,-20(s0)
80011284:	feb42423          	sw	a1,-24(s0)
80011288:	fec42703          	lw	a4,-20(s0)
8001128c:	fe842783          	lw	a5,-24(s0)
80011290:	40f707b3          	sub	a5,a4,a5
80011294:	00078513          	mv	a0,a5
80011298:	01c12403          	lw	s0,28(sp)
8001129c:	02010113          	addi	sp,sp,32
800112a0:	00008067          	ret

800112a4 <xsh_test>:
800112a4:	f9010113          	addi	sp,sp,-112
800112a8:	06112623          	sw	ra,108(sp)
800112ac:	06812423          	sw	s0,104(sp)
800112b0:	07010413          	addi	s0,sp,112
800112b4:	f8a42e23          	sw	a0,-100(s0)
800112b8:	f8b42c23          	sw	a1,-104(s0)
800112bc:	800157b7          	lui	a5,0x80015
800112c0:	d9478793          	addi	a5,a5,-620 # 80014d94 <cmdtab+0xaac>
800112c4:	0007a603          	lw	a2,0(a5)
800112c8:	0047a683          	lw	a3,4(a5)
800112cc:	0087a703          	lw	a4,8(a5)
800112d0:	00c7a783          	lw	a5,12(a5)
800112d4:	fcc42c23          	sw	a2,-40(s0)
800112d8:	fcd42e23          	sw	a3,-36(s0)
800112dc:	fee42023          	sw	a4,-32(s0)
800112e0:	fef42223          	sw	a5,-28(s0)
800112e4:	fd840713          	addi	a4,s0,-40
800112e8:	fc840793          	addi	a5,s0,-56
800112ec:	01000613          	li	a2,16
800112f0:	00070593          	mv	a1,a4
800112f4:	00078513          	mv	a0,a5
800112f8:	fe5f60ef          	jal	800082dc <memcpy>
800112fc:	800157b7          	lui	a5,0x80015
80011300:	da478793          	addi	a5,a5,-604 # 80014da4 <cmdtab+0xabc>
80011304:	0007a883          	lw	a7,0(a5)
80011308:	0047a803          	lw	a6,4(a5)
8001130c:	0087a503          	lw	a0,8(a5)
80011310:	00c7a583          	lw	a1,12(a5)
80011314:	0107a603          	lw	a2,16(a5)
80011318:	0147a683          	lw	a3,20(a5)
8001131c:	0187a703          	lw	a4,24(a5)
80011320:	01c7a783          	lw	a5,28(a5)
80011324:	fb142423          	sw	a7,-88(s0)
80011328:	fb042623          	sw	a6,-84(s0)
8001132c:	faa42823          	sw	a0,-80(s0)
80011330:	fab42a23          	sw	a1,-76(s0)
80011334:	fac42c23          	sw	a2,-72(s0)
80011338:	fad42e23          	sw	a3,-68(s0)
8001133c:	fce42023          	sw	a4,-64(s0)
80011340:	fcf42223          	sw	a5,-60(s0)
80011344:	fa840793          	addi	a5,s0,-88
80011348:	00078513          	mv	a0,a5
8001134c:	b21f00ef          	jal	80001e6c <AES_setKey>
80011350:	fd840793          	addi	a5,s0,-40
80011354:	00078513          	mv	a0,a5
80011358:	d35f00ef          	jal	8000208c <AES256_encrypt>
8001135c:	fe042623          	sw	zero,-20(s0)
80011360:	0780006f          	j	800113d8 <xsh_test+0x134>
80011364:	fec42783          	lw	a5,-20(s0)
80011368:	ff078793          	addi	a5,a5,-16
8001136c:	008787b3          	add	a5,a5,s0
80011370:	fe87c783          	lbu	a5,-24(a5)
80011374:	00078593          	mv	a1,a5
80011378:	fec42783          	lw	a5,-20(s0)
8001137c:	00478793          	addi	a5,a5,4
80011380:	ff078793          	addi	a5,a5,-16
80011384:	008787b3          	add	a5,a5,s0
80011388:	fe87c783          	lbu	a5,-24(a5)
8001138c:	00078613          	mv	a2,a5
80011390:	fec42783          	lw	a5,-20(s0)
80011394:	00878793          	addi	a5,a5,8
80011398:	ff078793          	addi	a5,a5,-16
8001139c:	008787b3          	add	a5,a5,s0
800113a0:	fe87c783          	lbu	a5,-24(a5)
800113a4:	00078693          	mv	a3,a5
800113a8:	fec42783          	lw	a5,-20(s0)
800113ac:	00c78793          	addi	a5,a5,12
800113b0:	ff078793          	addi	a5,a5,-16
800113b4:	008787b3          	add	a5,a5,s0
800113b8:	fe87c783          	lbu	a5,-24(a5)
800113bc:	00078713          	mv	a4,a5
800113c0:	800157b7          	lui	a5,0x80015
800113c4:	d6c78513          	addi	a0,a5,-660 # 80014d6c <cmdtab+0xa84>
800113c8:	f7df50ef          	jal	80007344 <printf>
800113cc:	fec42783          	lw	a5,-20(s0)
800113d0:	00178793          	addi	a5,a5,1
800113d4:	fef42623          	sw	a5,-20(s0)
800113d8:	fec42703          	lw	a4,-20(s0)
800113dc:	00300793          	li	a5,3
800113e0:	f8e7d2e3          	bge	a5,a4,80011364 <xsh_test+0xc0>
800113e4:	800157b7          	lui	a5,0x80015
800113e8:	d8078513          	addi	a0,a5,-640 # 80014d80 <cmdtab+0xa98>
800113ec:	f59f50ef          	jal	80007344 <printf>
800113f0:	fd840793          	addi	a5,s0,-40
800113f4:	00078513          	mv	a0,a5
800113f8:	d89f00ef          	jal	80002180 <AES256_decrypt>
800113fc:	fe042423          	sw	zero,-24(s0)
80011400:	0480006f          	j	80011448 <xsh_test+0x1a4>
80011404:	fe842783          	lw	a5,-24(s0)
80011408:	ff078793          	addi	a5,a5,-16
8001140c:	008787b3          	add	a5,a5,s0
80011410:	fe87c703          	lbu	a4,-24(a5)
80011414:	fe842783          	lw	a5,-24(s0)
80011418:	ff078793          	addi	a5,a5,-16
8001141c:	008787b3          	add	a5,a5,s0
80011420:	fd87c783          	lbu	a5,-40(a5)
80011424:	00f70c63          	beq	a4,a5,8001143c <xsh_test+0x198>
80011428:	800157b7          	lui	a5,0x80015
8001142c:	d8478513          	addi	a0,a5,-636 # 80014d84 <cmdtab+0xa9c>
80011430:	f15f50ef          	jal	80007344 <printf>
80011434:	00100793          	li	a5,1
80011438:	02c0006f          	j	80011464 <xsh_test+0x1c0>
8001143c:	fe842783          	lw	a5,-24(s0)
80011440:	00178793          	addi	a5,a5,1
80011444:	fef42423          	sw	a5,-24(s0)
80011448:	fe842703          	lw	a4,-24(s0)
8001144c:	00f00793          	li	a5,15
80011450:	fae7dae3          	bge	a5,a4,80011404 <xsh_test+0x160>
80011454:	800157b7          	lui	a5,0x80015
80011458:	d8c78513          	addi	a0,a5,-628 # 80014d8c <cmdtab+0xaa4>
8001145c:	ee9f50ef          	jal	80007344 <printf>
80011460:	00000793          	li	a5,0
80011464:	00078513          	mv	a0,a5
80011468:	06c12083          	lw	ra,108(sp)
8001146c:	06812403          	lw	s0,104(sp)
80011470:	07010113          	addi	sp,sp,112
80011474:	00008067          	ret

80011478 <context_irq_enable>:
80011478:	fe010113          	addi	sp,sp,-32
8001147c:	00812e23          	sw	s0,28(sp)
80011480:	02010413          	addi	s0,sp,32
80011484:	fea42623          	sw	a0,-20(s0)
80011488:	feb42423          	sw	a1,-24(s0)
8001148c:	fec42783          	lw	a5,-20(s0)
80011490:	0047a783          	lw	a5,4(a5)
80011494:	f7f7f713          	andi	a4,a5,-129
80011498:	fec42783          	lw	a5,-20(s0)
8001149c:	00e7a223          	sw	a4,4(a5)
800114a0:	fec42783          	lw	a5,-20(s0)
800114a4:	0047a703          	lw	a4,4(a5)
800114a8:	fe842783          	lw	a5,-24(s0)
800114ac:	00078663          	beqz	a5,800114b8 <context_irq_enable+0x40>
800114b0:	08000793          	li	a5,128
800114b4:	0080006f          	j	800114bc <context_irq_enable+0x44>
800114b8:	00000793          	li	a5,0
800114bc:	00e7e733          	or	a4,a5,a4
800114c0:	fec42783          	lw	a5,-20(s0)
800114c4:	00e7a223          	sw	a4,4(a5)
800114c8:	00000013          	nop
800114cc:	01c12403          	lw	s0,28(sp)
800114d0:	02010113          	addi	sp,sp,32
800114d4:	00008067          	ret

800114d8 <timer_diff>:
800114d8:	fe010113          	addi	sp,sp,-32
800114dc:	00812e23          	sw	s0,28(sp)
800114e0:	02010413          	addi	s0,sp,32
800114e4:	fea42623          	sw	a0,-20(s0)
800114e8:	feb42423          	sw	a1,-24(s0)
800114ec:	fec42703          	lw	a4,-20(s0)
800114f0:	fe842783          	lw	a5,-24(s0)
800114f4:	40f707b3          	sub	a5,a4,a5
800114f8:	00078513          	mv	a0,a5
800114fc:	01c12403          	lw	s0,28(sp)
80011500:	02010113          	addi	sp,sp,32
80011504:	00008067          	ret

80011508 <xsh_touch>:
80011508:	fe010113          	addi	sp,sp,-32
8001150c:	00812e23          	sw	s0,28(sp)
80011510:	02010413          	addi	s0,sp,32
80011514:	fea42623          	sw	a0,-20(s0)
80011518:	feb42423          	sw	a1,-24(s0)
8001151c:	00000793          	li	a5,0
80011520:	00078513          	mv	a0,a5
80011524:	01c12403          	lw	s0,28(sp)
80011528:	02010113          	addi	sp,sp,32
8001152c:	00008067          	ret

80011530 <context_irq_enable>:
80011530:	fe010113          	addi	sp,sp,-32
80011534:	00812e23          	sw	s0,28(sp)
80011538:	02010413          	addi	s0,sp,32
8001153c:	fea42623          	sw	a0,-20(s0)
80011540:	feb42423          	sw	a1,-24(s0)
80011544:	fec42783          	lw	a5,-20(s0)
80011548:	0047a783          	lw	a5,4(a5)
8001154c:	f7f7f713          	andi	a4,a5,-129
80011550:	fec42783          	lw	a5,-20(s0)
80011554:	00e7a223          	sw	a4,4(a5)
80011558:	fec42783          	lw	a5,-20(s0)
8001155c:	0047a703          	lw	a4,4(a5)
80011560:	fe842783          	lw	a5,-24(s0)
80011564:	00078663          	beqz	a5,80011570 <context_irq_enable+0x40>
80011568:	08000793          	li	a5,128
8001156c:	0080006f          	j	80011574 <context_irq_enable+0x44>
80011570:	00000793          	li	a5,0
80011574:	00e7e733          	or	a4,a5,a4
80011578:	fec42783          	lw	a5,-20(s0)
8001157c:	00e7a223          	sw	a4,4(a5)
80011580:	00000013          	nop
80011584:	01c12403          	lw	s0,28(sp)
80011588:	02010113          	addi	sp,sp,32
8001158c:	00008067          	ret

80011590 <timer_diff>:
80011590:	fe010113          	addi	sp,sp,-32
80011594:	00812e23          	sw	s0,28(sp)
80011598:	02010413          	addi	s0,sp,32
8001159c:	fea42623          	sw	a0,-20(s0)
800115a0:	feb42423          	sw	a1,-24(s0)
800115a4:	fec42703          	lw	a4,-20(s0)
800115a8:	fe842783          	lw	a5,-24(s0)
800115ac:	40f707b3          	sub	a5,a4,a5
800115b0:	00078513          	mv	a0,a5
800115b4:	01c12403          	lw	s0,28(sp)
800115b8:	02010113          	addi	sp,sp,32
800115bc:	00008067          	ret

800115c0 <xsh_tt>:
800115c0:	fc010113          	addi	sp,sp,-64
800115c4:	02112e23          	sw	ra,60(sp)
800115c8:	02812c23          	sw	s0,56(sp)
800115cc:	04010413          	addi	s0,sp,64
800115d0:	fca42623          	sw	a0,-52(s0)
800115d4:	fcb42423          	sw	a1,-56(s0)
800115d8:	05f5e7b7          	lui	a5,0x5f5e
800115dc:	10078793          	addi	a5,a5,256 # 5f5e100 <_start-0x7a0a1f00>
800115e0:	fef42223          	sw	a5,-28(s0)
800115e4:	fe042623          	sw	zero,-20(s0)
800115e8:	ce0ef0ef          	jal	80000ac8 <timer_get_mtime>
800115ec:	fea42023          	sw	a0,-32(s0)
800115f0:	00100793          	li	a5,1
800115f4:	fef42423          	sw	a5,-24(s0)
800115f8:	0200006f          	j	80011618 <xsh_tt+0x58>
800115fc:	fec42703          	lw	a4,-20(s0)
80011600:	fe842783          	lw	a5,-24(s0)
80011604:	00f707b3          	add	a5,a4,a5
80011608:	fef42623          	sw	a5,-20(s0)
8001160c:	fe842783          	lw	a5,-24(s0)
80011610:	00178793          	addi	a5,a5,1
80011614:	fef42423          	sw	a5,-24(s0)
80011618:	fe842703          	lw	a4,-24(s0)
8001161c:	fe442783          	lw	a5,-28(s0)
80011620:	fce7dee3          	bge	a5,a4,800115fc <xsh_tt+0x3c>
80011624:	ca4ef0ef          	jal	80000ac8 <timer_get_mtime>
80011628:	fca42e23          	sw	a0,-36(s0)
8001162c:	fdc42703          	lw	a4,-36(s0)
80011630:	fe042783          	lw	a5,-32(s0)
80011634:	40f707b3          	sub	a5,a4,a5
80011638:	fcf42c23          	sw	a5,-40(s0)
8001163c:	fec42603          	lw	a2,-20(s0)
80011640:	fe442583          	lw	a1,-28(s0)
80011644:	800157b7          	lui	a5,0x80015
80011648:	dc478513          	addi	a0,a5,-572 # 80014dc4 <cmdtab+0xadc>
8001164c:	cf9f50ef          	jal	80007344 <printf>
80011650:	fd842583          	lw	a1,-40(s0)
80011654:	800157b7          	lui	a5,0x80015
80011658:	df078513          	addi	a0,a5,-528 # 80014df0 <cmdtab+0xb08>
8001165c:	ce9f50ef          	jal	80007344 <printf>
80011660:	00000793          	li	a5,0
80011664:	00078513          	mv	a0,a5
80011668:	03c12083          	lw	ra,60(sp)
8001166c:	03812403          	lw	s0,56(sp)
80011670:	04010113          	addi	sp,sp,64
80011674:	00008067          	ret

80011678 <context_irq_enable>:
80011678:	fe010113          	addi	sp,sp,-32
8001167c:	00812e23          	sw	s0,28(sp)
80011680:	02010413          	addi	s0,sp,32
80011684:	fea42623          	sw	a0,-20(s0)
80011688:	feb42423          	sw	a1,-24(s0)
8001168c:	fec42783          	lw	a5,-20(s0)
80011690:	0047a783          	lw	a5,4(a5)
80011694:	f7f7f713          	andi	a4,a5,-129
80011698:	fec42783          	lw	a5,-20(s0)
8001169c:	00e7a223          	sw	a4,4(a5)
800116a0:	fec42783          	lw	a5,-20(s0)
800116a4:	0047a703          	lw	a4,4(a5)
800116a8:	fe842783          	lw	a5,-24(s0)
800116ac:	00078663          	beqz	a5,800116b8 <context_irq_enable+0x40>
800116b0:	08000793          	li	a5,128
800116b4:	0080006f          	j	800116bc <context_irq_enable+0x44>
800116b8:	00000793          	li	a5,0
800116bc:	00e7e733          	or	a4,a5,a4
800116c0:	fec42783          	lw	a5,-20(s0)
800116c4:	00e7a223          	sw	a4,4(a5)
800116c8:	00000013          	nop
800116cc:	01c12403          	lw	s0,28(sp)
800116d0:	02010113          	addi	sp,sp,32
800116d4:	00008067          	ret

800116d8 <timer_diff>:
800116d8:	fe010113          	addi	sp,sp,-32
800116dc:	00812e23          	sw	s0,28(sp)
800116e0:	02010413          	addi	s0,sp,32
800116e4:	fea42623          	sw	a0,-20(s0)
800116e8:	feb42423          	sw	a1,-24(s0)
800116ec:	fec42703          	lw	a4,-20(s0)
800116f0:	fe842783          	lw	a5,-24(s0)
800116f4:	40f707b3          	sub	a5,a4,a5
800116f8:	00078513          	mv	a0,a5
800116fc:	01c12403          	lw	s0,28(sp)
80011700:	02010113          	addi	sp,sp,32
80011704:	00008067          	ret

80011708 <mount2>:
80011708:	fc010113          	addi	sp,sp,-64
8001170c:	02112e23          	sw	ra,60(sp)
80011710:	02812c23          	sw	s0,56(sp)
80011714:	04010413          	addi	s0,sp,64
80011718:	fca42623          	sw	a0,-52(s0)
8001171c:	fcb42423          	sw	a1,-56(s0)
80011720:	fcc42223          	sw	a2,-60(s0)
80011724:	b69ee0ef          	jal	8000028c <disable>
80011728:	fea42423          	sw	a0,-24(s0)
8001172c:	01000593          	li	a1,16
80011730:	fcc42503          	lw	a0,-52(s0)
80011734:	160000ef          	jal	80011894 <namlen>
80011738:	fea42223          	sw	a0,-28(s0)
8001173c:	00100593          	li	a1,1
80011740:	fc842503          	lw	a0,-56(s0)
80011744:	150000ef          	jal	80011894 <namlen>
80011748:	fea42023          	sw	a0,-32(s0)
8001174c:	fe442703          	lw	a4,-28(s0)
80011750:	fff00793          	li	a5,-1
80011754:	04f70463          	beq	a4,a5,8001179c <mount2+0x94>
80011758:	fe042703          	lw	a4,-32(s0)
8001175c:	fff00793          	li	a5,-1
80011760:	02f70e63          	beq	a4,a5,8001179c <mount2+0x94>
80011764:	fc442783          	lw	a5,-60(s0)
80011768:	01f7d793          	srli	a5,a5,0x1f
8001176c:	0ff7f713          	zext.b	a4,a5
80011770:	fc442783          	lw	a5,-60(s0)
80011774:	0037a793          	slti	a5,a5,3
80011778:	0017b793          	seqz	a5,a5
8001177c:	0ff7f793          	zext.b	a5,a5
80011780:	00f767b3          	or	a5,a4,a5
80011784:	0ff7f793          	zext.b	a5,a5
80011788:	00079a63          	bnez	a5,8001179c <mount2+0x94>
8001178c:	8001d7b7          	lui	a5,0x8001d
80011790:	4fc7a703          	lw	a4,1276(a5) # 8001d4fc <nnames>
80011794:	00400793          	li	a5,4
80011798:	00e7da63          	bge	a5,a4,800117ac <mount2+0xa4>
8001179c:	fe842503          	lw	a0,-24(s0)
800117a0:	af5ee0ef          	jal	80000294 <restore>
800117a4:	fff00793          	li	a5,-1
800117a8:	0d80006f          	j	80011880 <mount2+0x178>
800117ac:	8001d7b7          	lui	a5,0x8001d
800117b0:	4fc7a703          	lw	a4,1276(a5) # 8001d4fc <nnames>
800117b4:	00070793          	mv	a5,a4
800117b8:	00179793          	slli	a5,a5,0x1
800117bc:	00e787b3          	add	a5,a5,a4
800117c0:	00379793          	slli	a5,a5,0x3
800117c4:	80017737          	lui	a4,0x80017
800117c8:	0b070713          	addi	a4,a4,176 # 800170b0 <nametab>
800117cc:	00e787b3          	add	a5,a5,a4
800117d0:	fcf42e23          	sw	a5,-36(s0)
800117d4:	fe042623          	sw	zero,-20(s0)
800117d8:	0300006f          	j	80011808 <mount2+0x100>
800117dc:	fcc42783          	lw	a5,-52(s0)
800117e0:	00178713          	addi	a4,a5,1
800117e4:	fce42623          	sw	a4,-52(s0)
800117e8:	0007c703          	lbu	a4,0(a5)
800117ec:	fdc42683          	lw	a3,-36(s0)
800117f0:	fec42783          	lw	a5,-20(s0)
800117f4:	00f687b3          	add	a5,a3,a5
800117f8:	00e78023          	sb	a4,0(a5)
800117fc:	fec42783          	lw	a5,-20(s0)
80011800:	00178793          	addi	a5,a5,1
80011804:	fef42623          	sw	a5,-20(s0)
80011808:	fec42703          	lw	a4,-20(s0)
8001180c:	fe442783          	lw	a5,-28(s0)
80011810:	fcf746e3          	blt	a4,a5,800117dc <mount2+0xd4>
80011814:	fe042623          	sw	zero,-20(s0)
80011818:	0300006f          	j	80011848 <mount2+0x140>
8001181c:	fc842783          	lw	a5,-56(s0)
80011820:	00178713          	addi	a4,a5,1
80011824:	fce42423          	sw	a4,-56(s0)
80011828:	0007c703          	lbu	a4,0(a5)
8001182c:	fdc42683          	lw	a3,-36(s0)
80011830:	fec42783          	lw	a5,-20(s0)
80011834:	00f687b3          	add	a5,a3,a5
80011838:	00e78823          	sb	a4,16(a5)
8001183c:	fec42783          	lw	a5,-20(s0)
80011840:	00178793          	addi	a5,a5,1
80011844:	fef42623          	sw	a5,-20(s0)
80011848:	fec42703          	lw	a4,-20(s0)
8001184c:	fe042783          	lw	a5,-32(s0)
80011850:	fcf746e3          	blt	a4,a5,8001181c <mount2+0x114>
80011854:	fdc42783          	lw	a5,-36(s0)
80011858:	fc442703          	lw	a4,-60(s0)
8001185c:	00e7aa23          	sw	a4,20(a5)
80011860:	8001d7b7          	lui	a5,0x8001d
80011864:	4fc7a783          	lw	a5,1276(a5) # 8001d4fc <nnames>
80011868:	00178713          	addi	a4,a5,1
8001186c:	8001d7b7          	lui	a5,0x8001d
80011870:	4ee7ae23          	sw	a4,1276(a5) # 8001d4fc <nnames>
80011874:	fe842503          	lw	a0,-24(s0)
80011878:	a1dee0ef          	jal	80000294 <restore>
8001187c:	00100793          	li	a5,1
80011880:	00078513          	mv	a0,a5
80011884:	03c12083          	lw	ra,60(sp)
80011888:	03812403          	lw	s0,56(sp)
8001188c:	04010113          	addi	sp,sp,64
80011890:	00008067          	ret

80011894 <namlen>:
80011894:	fd010113          	addi	sp,sp,-48
80011898:	02812623          	sw	s0,44(sp)
8001189c:	03010413          	addi	s0,sp,48
800118a0:	fca42e23          	sw	a0,-36(s0)
800118a4:	fcb42c23          	sw	a1,-40(s0)
800118a8:	fe042623          	sw	zero,-20(s0)
800118ac:	0300006f          	j	800118dc <namlen+0x48>
800118b0:	fdc42783          	lw	a5,-36(s0)
800118b4:	00178713          	addi	a4,a5,1
800118b8:	fce42e23          	sw	a4,-36(s0)
800118bc:	0007c783          	lbu	a5,0(a5)
800118c0:	00079863          	bnez	a5,800118d0 <namlen+0x3c>
800118c4:	fec42783          	lw	a5,-20(s0)
800118c8:	00178793          	addi	a5,a5,1
800118cc:	0200006f          	j	800118ec <namlen+0x58>
800118d0:	fec42783          	lw	a5,-20(s0)
800118d4:	00178793          	addi	a5,a5,1
800118d8:	fef42623          	sw	a5,-20(s0)
800118dc:	fec42703          	lw	a4,-20(s0)
800118e0:	fd842783          	lw	a5,-40(s0)
800118e4:	fcf746e3          	blt	a4,a5,800118b0 <namlen+0x1c>
800118e8:	fff00793          	li	a5,-1
800118ec:	00078513          	mv	a0,a5
800118f0:	02c12403          	lw	s0,44(sp)
800118f4:	03010113          	addi	sp,sp,48
800118f8:	00008067          	ret

800118fc <context_irq_enable>:
800118fc:	fe010113          	addi	sp,sp,-32
80011900:	00812e23          	sw	s0,28(sp)
80011904:	02010413          	addi	s0,sp,32
80011908:	fea42623          	sw	a0,-20(s0)
8001190c:	feb42423          	sw	a1,-24(s0)
80011910:	fec42783          	lw	a5,-20(s0)
80011914:	0047a783          	lw	a5,4(a5)
80011918:	f7f7f713          	andi	a4,a5,-129
8001191c:	fec42783          	lw	a5,-20(s0)
80011920:	00e7a223          	sw	a4,4(a5)
80011924:	fec42783          	lw	a5,-20(s0)
80011928:	0047a703          	lw	a4,4(a5)
8001192c:	fe842783          	lw	a5,-24(s0)
80011930:	00078663          	beqz	a5,8001193c <context_irq_enable+0x40>
80011934:	08000793          	li	a5,128
80011938:	0080006f          	j	80011940 <context_irq_enable+0x44>
8001193c:	00000793          	li	a5,0
80011940:	00e7e733          	or	a4,a5,a4
80011944:	fec42783          	lw	a5,-20(s0)
80011948:	00e7a223          	sw	a4,4(a5)
8001194c:	00000013          	nop
80011950:	01c12403          	lw	s0,28(sp)
80011954:	02010113          	addi	sp,sp,32
80011958:	00008067          	ret

8001195c <timer_diff>:
8001195c:	fe010113          	addi	sp,sp,-32
80011960:	00812e23          	sw	s0,28(sp)
80011964:	02010413          	addi	s0,sp,32
80011968:	fea42623          	sw	a0,-20(s0)
8001196c:	feb42423          	sw	a1,-24(s0)
80011970:	fec42703          	lw	a4,-20(s0)
80011974:	fe842783          	lw	a5,-24(s0)
80011978:	40f707b3          	sub	a5,a4,a5
8001197c:	00078513          	mv	a0,a5
80011980:	01c12403          	lw	s0,28(sp)
80011984:	02010113          	addi	sp,sp,32
80011988:	00008067          	ret

8001198c <naminit>:
8001198c:	fb010113          	addi	sp,sp,-80
80011990:	04112623          	sw	ra,76(sp)
80011994:	04812423          	sw	s0,72(sp)
80011998:	05010413          	addi	s0,sp,80
8001199c:	766567b7          	lui	a5,0x76656
800119a0:	42f78793          	addi	a5,a5,1071 # 7665642f <_start-0x99a9bd1>
800119a4:	faf42e23          	sw	a5,-68(s0)
800119a8:	02f00793          	li	a5,47
800119ac:	fcf41023          	sh	a5,-64(s0)
800119b0:	8001d7b7          	lui	a5,0x8001d
800119b4:	4e07ae23          	sw	zero,1276(a5) # 8001d4fc <nnames>
800119b8:	fe042623          	sw	zero,-20(s0)
800119bc:	1a40006f          	j	80011b60 <naminit+0x1d4>
800119c0:	fc440793          	addi	a5,s0,-60
800119c4:	fef42423          	sw	a5,-24(s0)
800119c8:	fbc40793          	addi	a5,s0,-68
800119cc:	fef42223          	sw	a5,-28(s0)
800119d0:	fe042023          	sw	zero,-32(s0)
800119d4:	0100006f          	j	800119e4 <naminit+0x58>
800119d8:	fe042783          	lw	a5,-32(s0)
800119dc:	00178793          	addi	a5,a5,1
800119e0:	fef42023          	sw	a5,-32(s0)
800119e4:	fe442703          	lw	a4,-28(s0)
800119e8:	00170793          	addi	a5,a4,1
800119ec:	fef42223          	sw	a5,-28(s0)
800119f0:	fe842783          	lw	a5,-24(s0)
800119f4:	00178693          	addi	a3,a5,1
800119f8:	fed42423          	sw	a3,-24(s0)
800119fc:	00074703          	lbu	a4,0(a4)
80011a00:	00e78023          	sb	a4,0(a5)
80011a04:	0007c783          	lbu	a5,0(a5)
80011a08:	fc0798e3          	bnez	a5,800119d8 <naminit+0x4c>
80011a0c:	fe842783          	lw	a5,-24(s0)
80011a10:	fff78793          	addi	a5,a5,-1
80011a14:	fef42423          	sw	a5,-24(s0)
80011a18:	fec42703          	lw	a4,-20(s0)
80011a1c:	00070793          	mv	a5,a4
80011a20:	00479793          	slli	a5,a5,0x4
80011a24:	40e787b3          	sub	a5,a5,a4
80011a28:	00279793          	slli	a5,a5,0x2
80011a2c:	80017737          	lui	a4,0x80017
80011a30:	8f070713          	addi	a4,a4,-1808 # 800168f0 <devtab>
80011a34:	00e787b3          	add	a5,a5,a4
80011a38:	fcf42c23          	sw	a5,-40(s0)
80011a3c:	fd842783          	lw	a5,-40(s0)
80011a40:	0087a783          	lw	a5,8(a5)
80011a44:	fef42223          	sw	a5,-28(s0)
80011a48:	0580006f          	j	80011aa0 <naminit+0x114>
80011a4c:	fe442783          	lw	a5,-28(s0)
80011a50:	00178713          	addi	a4,a5,1
80011a54:	fee42223          	sw	a4,-28(s0)
80011a58:	0007c783          	lbu	a5,0(a5)
80011a5c:	fcf40fa3          	sb	a5,-33(s0)
80011a60:	fdf44703          	lbu	a4,-33(s0)
80011a64:	04000793          	li	a5,64
80011a68:	00e7fe63          	bgeu	a5,a4,80011a84 <naminit+0xf8>
80011a6c:	fdf44703          	lbu	a4,-33(s0)
80011a70:	05a00793          	li	a5,90
80011a74:	00e7e863          	bltu	a5,a4,80011a84 <naminit+0xf8>
80011a78:	fdf44783          	lbu	a5,-33(s0)
80011a7c:	02078793          	addi	a5,a5,32
80011a80:	fcf40fa3          	sb	a5,-33(s0)
80011a84:	fe842783          	lw	a5,-24(s0)
80011a88:	00178713          	addi	a4,a5,1
80011a8c:	fee42423          	sw	a4,-24(s0)
80011a90:	fdf44703          	lbu	a4,-33(s0)
80011a94:	00e78023          	sb	a4,0(a5)
80011a98:	0007c783          	lbu	a5,0(a5)
80011a9c:	02078063          	beqz	a5,80011abc <naminit+0x130>
80011aa0:	fe042783          	lw	a5,-32(s0)
80011aa4:	00178793          	addi	a5,a5,1
80011aa8:	fef42023          	sw	a5,-32(s0)
80011aac:	fe042703          	lw	a4,-32(s0)
80011ab0:	00f00793          	li	a5,15
80011ab4:	f8e7dce3          	bge	a5,a4,80011a4c <naminit+0xc0>
80011ab8:	0080006f          	j	80011ac0 <naminit+0x134>
80011abc:	00000013          	nop
80011ac0:	fd842783          	lw	a5,-40(s0)
80011ac4:	0007a703          	lw	a4,0(a5)
80011ac8:	fc440793          	addi	a5,s0,-60
80011acc:	00070613          	mv	a2,a4
80011ad0:	00078593          	mv	a1,a5
80011ad4:	800157b7          	lui	a5,0x80015
80011ad8:	e1478513          	addi	a0,a5,-492 # 80014e14 <cmdtab+0xb2c>
80011adc:	469010ef          	jal	80013744 <kprintf>
80011ae0:	fe042703          	lw	a4,-32(s0)
80011ae4:	01000793          	li	a5,16
80011ae8:	02e7d063          	bge	a5,a4,80011b08 <naminit+0x17c>
80011aec:	fd842783          	lw	a5,-40(s0)
80011af0:	0087a783          	lw	a5,8(a5)
80011af4:	00078593          	mv	a1,a5
80011af8:	800157b7          	lui	a5,0x80015
80011afc:	e2478513          	addi	a0,a5,-476 # 80014e24 <cmdtab+0xb3c>
80011b00:	445010ef          	jal	80013744 <kprintf>
80011b04:	0500006f          	j	80011b54 <naminit+0x1c8>
80011b08:	fd842783          	lw	a5,-40(s0)
80011b0c:	0007a783          	lw	a5,0(a5)
80011b10:	fc440713          	addi	a4,s0,-60
80011b14:	00078613          	mv	a2,a5
80011b18:	800157b7          	lui	a5,0x80015
80011b1c:	e4c78593          	addi	a1,a5,-436 # 80014e4c <cmdtab+0xb64>
80011b20:	00070513          	mv	a0,a4
80011b24:	be5ff0ef          	jal	80011708 <mount2>
80011b28:	fca42a23          	sw	a0,-44(s0)
80011b2c:	fd442703          	lw	a4,-44(s0)
80011b30:	fff00793          	li	a5,-1
80011b34:	02f71063          	bne	a4,a5,80011b54 <naminit+0x1c8>
80011b38:	fd842783          	lw	a5,-40(s0)
80011b3c:	0087a783          	lw	a5,8(a5)
80011b40:	00078593          	mv	a1,a5
80011b44:	800157b7          	lui	a5,0x80015
80011b48:	e5078513          	addi	a0,a5,-432 # 80014e50 <cmdtab+0xb68>
80011b4c:	3f9010ef          	jal	80013744 <kprintf>
80011b50:	00000013          	nop
80011b54:	fec42783          	lw	a5,-20(s0)
80011b58:	00178793          	addi	a5,a5,1
80011b5c:	fef42623          	sw	a5,-20(s0)
80011b60:	fec42703          	lw	a4,-20(s0)
80011b64:	00200793          	li	a5,2
80011b68:	e4e7dce3          	bge	a5,a4,800119c0 <naminit+0x34>
80011b6c:	00100613          	li	a2,1
80011b70:	800157b7          	lui	a5,0x80015
80011b74:	e4c78593          	addi	a1,a5,-436 # 80014e4c <cmdtab+0xb64>
80011b78:	800157b7          	lui	a5,0x80015
80011b7c:	e7478513          	addi	a0,a5,-396 # 80014e74 <cmdtab+0xb8c>
80011b80:	b89ff0ef          	jal	80011708 <mount2>
80011b84:	00100793          	li	a5,1
80011b88:	00078513          	mv	a0,a5
80011b8c:	04c12083          	lw	ra,76(sp)
80011b90:	04812403          	lw	s0,72(sp)
80011b94:	05010113          	addi	sp,sp,80
80011b98:	00008067          	ret

80011b9c <context_irq_enable>:
80011b9c:	fe010113          	addi	sp,sp,-32
80011ba0:	00812e23          	sw	s0,28(sp)
80011ba4:	02010413          	addi	s0,sp,32
80011ba8:	fea42623          	sw	a0,-20(s0)
80011bac:	feb42423          	sw	a1,-24(s0)
80011bb0:	fec42783          	lw	a5,-20(s0)
80011bb4:	0047a783          	lw	a5,4(a5)
80011bb8:	f7f7f713          	andi	a4,a5,-129
80011bbc:	fec42783          	lw	a5,-20(s0)
80011bc0:	00e7a223          	sw	a4,4(a5)
80011bc4:	fec42783          	lw	a5,-20(s0)
80011bc8:	0047a703          	lw	a4,4(a5)
80011bcc:	fe842783          	lw	a5,-24(s0)
80011bd0:	00078663          	beqz	a5,80011bdc <context_irq_enable+0x40>
80011bd4:	08000793          	li	a5,128
80011bd8:	0080006f          	j	80011be0 <context_irq_enable+0x44>
80011bdc:	00000793          	li	a5,0
80011be0:	00e7e733          	or	a4,a5,a4
80011be4:	fec42783          	lw	a5,-20(s0)
80011be8:	00e7a223          	sw	a4,4(a5)
80011bec:	00000013          	nop
80011bf0:	01c12403          	lw	s0,28(sp)
80011bf4:	02010113          	addi	sp,sp,32
80011bf8:	00008067          	ret

80011bfc <timer_diff>:
80011bfc:	fe010113          	addi	sp,sp,-32
80011c00:	00812e23          	sw	s0,28(sp)
80011c04:	02010413          	addi	s0,sp,32
80011c08:	fea42623          	sw	a0,-20(s0)
80011c0c:	feb42423          	sw	a1,-24(s0)
80011c10:	fec42703          	lw	a4,-20(s0)
80011c14:	fe842783          	lw	a5,-24(s0)
80011c18:	40f707b3          	sub	a5,a4,a5
80011c1c:	00078513          	mv	a0,a5
80011c20:	01c12403          	lw	s0,28(sp)
80011c24:	02010113          	addi	sp,sp,32
80011c28:	00008067          	ret

80011c2c <nammap>:
80011c2c:	fc010113          	addi	sp,sp,-64
80011c30:	02112e23          	sw	ra,60(sp)
80011c34:	02812c23          	sw	s0,56(sp)
80011c38:	04010413          	addi	s0,sp,64
80011c3c:	fca42623          	sw	a0,-52(s0)
80011c40:	fcb42423          	sw	a1,-56(s0)
80011c44:	fcc42223          	sw	a2,-60(s0)
80011c48:	fd840793          	addi	a5,s0,-40
80011c4c:	01000613          	li	a2,16
80011c50:	fcc42583          	lw	a1,-52(s0)
80011c54:	00078513          	mv	a0,a5
80011c58:	26c000ef          	jal	80011ec4 <namcpy>
80011c5c:	00050713          	mv	a4,a0
80011c60:	fff00793          	li	a5,-1
80011c64:	00f71663          	bne	a4,a5,80011c70 <nammap+0x44>
80011c68:	fff00793          	li	a5,-1
80011c6c:	0680006f          	j	80011cd4 <nammap+0xa8>
80011c70:	fe042623          	sw	zero,-20(s0)
80011c74:	04c0006f          	j	80011cc0 <nammap+0x94>
80011c78:	fd840793          	addi	a5,s0,-40
80011c7c:	fc842583          	lw	a1,-56(s0)
80011c80:	00078513          	mv	a0,a5
80011c84:	064000ef          	jal	80011ce8 <namrepl>
80011c88:	fea42423          	sw	a0,-24(s0)
80011c8c:	fe842703          	lw	a4,-24(s0)
80011c90:	fc442783          	lw	a5,-60(s0)
80011c94:	00f70663          	beq	a4,a5,80011ca0 <nammap+0x74>
80011c98:	fe842783          	lw	a5,-24(s0)
80011c9c:	0380006f          	j	80011cd4 <nammap+0xa8>
80011ca0:	fd840793          	addi	a5,s0,-40
80011ca4:	01000613          	li	a2,16
80011ca8:	fc842583          	lw	a1,-56(s0)
80011cac:	00078513          	mv	a0,a5
80011cb0:	214000ef          	jal	80011ec4 <namcpy>
80011cb4:	fec42783          	lw	a5,-20(s0)
80011cb8:	00178793          	addi	a5,a5,1
80011cbc:	fef42623          	sw	a5,-20(s0)
80011cc0:	8001d7b7          	lui	a5,0x8001d
80011cc4:	4fc7a783          	lw	a5,1276(a5) # 8001d4fc <nnames>
80011cc8:	fec42703          	lw	a4,-20(s0)
80011ccc:	faf746e3          	blt	a4,a5,80011c78 <nammap+0x4c>
80011cd0:	fff00793          	li	a5,-1
80011cd4:	00078513          	mv	a0,a5
80011cd8:	03c12083          	lw	ra,60(sp)
80011cdc:	03812403          	lw	s0,56(sp)
80011ce0:	04010113          	addi	sp,sp,64
80011ce4:	00008067          	ret

80011ce8 <namrepl>:
80011ce8:	fb010113          	addi	sp,sp,-80
80011cec:	04112623          	sw	ra,76(sp)
80011cf0:	04812423          	sw	s0,72(sp)
80011cf4:	05010413          	addi	s0,sp,80
80011cf8:	faa42e23          	sw	a0,-68(s0)
80011cfc:	fab42c23          	sw	a1,-72(s0)
80011d00:	fe042623          	sw	zero,-20(s0)
80011d04:	1980006f          	j	80011e9c <namrepl+0x1b4>
80011d08:	fec42703          	lw	a4,-20(s0)
80011d0c:	00070793          	mv	a5,a4
80011d10:	00179793          	slli	a5,a5,0x1
80011d14:	00e787b3          	add	a5,a5,a4
80011d18:	00379793          	slli	a5,a5,0x3
80011d1c:	80017737          	lui	a4,0x80017
80011d20:	0b070713          	addi	a4,a4,176 # 800170b0 <nametab>
80011d24:	00e787b3          	add	a5,a5,a4
80011d28:	fcf42623          	sw	a5,-52(s0)
80011d2c:	fbc42783          	lw	a5,-68(s0)
80011d30:	fef42023          	sw	a5,-32(s0)
80011d34:	fcc42783          	lw	a5,-52(s0)
80011d38:	fef42423          	sw	a5,-24(s0)
80011d3c:	fc042c23          	sw	zero,-40(s0)
80011d40:	03c0006f          	j	80011d7c <namrepl+0x94>
80011d44:	fe842783          	lw	a5,-24(s0)
80011d48:	0007c703          	lbu	a4,0(a5)
80011d4c:	fe042783          	lw	a5,-32(s0)
80011d50:	0007c783          	lbu	a5,0(a5)
80011d54:	02f71c63          	bne	a4,a5,80011d8c <namrepl+0xa4>
80011d58:	fe842783          	lw	a5,-24(s0)
80011d5c:	00178793          	addi	a5,a5,1
80011d60:	fef42423          	sw	a5,-24(s0)
80011d64:	fe042783          	lw	a5,-32(s0)
80011d68:	00178793          	addi	a5,a5,1
80011d6c:	fef42023          	sw	a5,-32(s0)
80011d70:	fd842783          	lw	a5,-40(s0)
80011d74:	00178793          	addi	a5,a5,1
80011d78:	fcf42c23          	sw	a5,-40(s0)
80011d7c:	fe842783          	lw	a5,-24(s0)
80011d80:	0007c783          	lbu	a5,0(a5)
80011d84:	fc0790e3          	bnez	a5,80011d44 <namrepl+0x5c>
80011d88:	0080006f          	j	80011d90 <namrepl+0xa8>
80011d8c:	00000013          	nop
80011d90:	fe842783          	lw	a5,-24(s0)
80011d94:	0007c783          	lbu	a5,0(a5)
80011d98:	0e079a63          	bnez	a5,80011e8c <namrepl+0x1a4>
80011d9c:	01000593          	li	a1,16
80011da0:	fbc42503          	lw	a0,-68(s0)
80011da4:	af1ff0ef          	jal	80011894 <namlen>
80011da8:	00050793          	mv	a5,a0
80011dac:	fcf405a3          	sb	a5,-53(s0)
80011db0:	fcc42783          	lw	a5,-52(s0)
80011db4:	01078793          	addi	a5,a5,16
80011db8:	01000593          	li	a1,16
80011dbc:	00078513          	mv	a0,a5
80011dc0:	ad5ff0ef          	jal	80011894 <namlen>
80011dc4:	00050793          	mv	a5,a0
80011dc8:	fff78793          	addi	a5,a5,-1
80011dcc:	fcf42a23          	sw	a5,-44(s0)
80011dd0:	fcb44703          	lbu	a4,-53(s0)
80011dd4:	fd842783          	lw	a5,-40(s0)
80011dd8:	40f707b3          	sub	a5,a4,a5
80011ddc:	fcf42823          	sw	a5,-48(s0)
80011de0:	fd442703          	lw	a4,-44(s0)
80011de4:	fd042783          	lw	a5,-48(s0)
80011de8:	00f70733          	add	a4,a4,a5
80011dec:	01000793          	li	a5,16
80011df0:	00e7d663          	bge	a5,a4,80011dfc <namrepl+0x114>
80011df4:	fff00793          	li	a5,-1
80011df8:	0b80006f          	j	80011eb0 <namrepl+0x1c8>
80011dfc:	fb842783          	lw	a5,-72(s0)
80011e00:	fcf42e23          	sw	a5,-36(s0)
80011e04:	fcc42783          	lw	a5,-52(s0)
80011e08:	01078793          	addi	a5,a5,16
80011e0c:	fef42223          	sw	a5,-28(s0)
80011e10:	0300006f          	j	80011e40 <namrepl+0x158>
80011e14:	fe442703          	lw	a4,-28(s0)
80011e18:	00170793          	addi	a5,a4,1
80011e1c:	fef42223          	sw	a5,-28(s0)
80011e20:	fdc42783          	lw	a5,-36(s0)
80011e24:	00178693          	addi	a3,a5,1
80011e28:	fcd42e23          	sw	a3,-36(s0)
80011e2c:	00074703          	lbu	a4,0(a4)
80011e30:	00e78023          	sb	a4,0(a5)
80011e34:	fd442783          	lw	a5,-44(s0)
80011e38:	fff78793          	addi	a5,a5,-1
80011e3c:	fcf42a23          	sw	a5,-44(s0)
80011e40:	fd442783          	lw	a5,-44(s0)
80011e44:	fcf048e3          	bgtz	a5,80011e14 <namrepl+0x12c>
80011e48:	0300006f          	j	80011e78 <namrepl+0x190>
80011e4c:	fe042703          	lw	a4,-32(s0)
80011e50:	00170793          	addi	a5,a4,1
80011e54:	fef42023          	sw	a5,-32(s0)
80011e58:	fdc42783          	lw	a5,-36(s0)
80011e5c:	00178693          	addi	a3,a5,1
80011e60:	fcd42e23          	sw	a3,-36(s0)
80011e64:	00074703          	lbu	a4,0(a4)
80011e68:	00e78023          	sb	a4,0(a5)
80011e6c:	fd042783          	lw	a5,-48(s0)
80011e70:	fff78793          	addi	a5,a5,-1
80011e74:	fcf42823          	sw	a5,-48(s0)
80011e78:	fd042783          	lw	a5,-48(s0)
80011e7c:	fcf048e3          	bgtz	a5,80011e4c <namrepl+0x164>
80011e80:	fcc42783          	lw	a5,-52(s0)
80011e84:	0147a783          	lw	a5,20(a5)
80011e88:	0280006f          	j	80011eb0 <namrepl+0x1c8>
80011e8c:	00000013          	nop
80011e90:	fec42783          	lw	a5,-20(s0)
80011e94:	00178793          	addi	a5,a5,1
80011e98:	fef42623          	sw	a5,-20(s0)
80011e9c:	8001d7b7          	lui	a5,0x8001d
80011ea0:	4fc7a783          	lw	a5,1276(a5) # 8001d4fc <nnames>
80011ea4:	fec42703          	lw	a4,-20(s0)
80011ea8:	e6f740e3          	blt	a4,a5,80011d08 <namrepl+0x20>
80011eac:	fff00793          	li	a5,-1
80011eb0:	00078513          	mv	a0,a5
80011eb4:	04c12083          	lw	ra,76(sp)
80011eb8:	04812403          	lw	s0,72(sp)
80011ebc:	05010113          	addi	sp,sp,80
80011ec0:	00008067          	ret

80011ec4 <namcpy>:
80011ec4:	fd010113          	addi	sp,sp,-48
80011ec8:	02812623          	sw	s0,44(sp)
80011ecc:	03010413          	addi	s0,sp,48
80011ed0:	fca42e23          	sw	a0,-36(s0)
80011ed4:	fcb42c23          	sw	a1,-40(s0)
80011ed8:	fcc42a23          	sw	a2,-44(s0)
80011edc:	fdc42783          	lw	a5,-36(s0)
80011ee0:	fef42623          	sw	a5,-20(s0)
80011ee4:	fd842783          	lw	a5,-40(s0)
80011ee8:	fef42423          	sw	a5,-24(s0)
80011eec:	fe042223          	sw	zero,-28(s0)
80011ef0:	0400006f          	j	80011f30 <namcpy+0x6c>
80011ef4:	fe842703          	lw	a4,-24(s0)
80011ef8:	00170793          	addi	a5,a4,1
80011efc:	fef42423          	sw	a5,-24(s0)
80011f00:	fec42783          	lw	a5,-20(s0)
80011f04:	00178693          	addi	a3,a5,1
80011f08:	fed42623          	sw	a3,-20(s0)
80011f0c:	00074703          	lbu	a4,0(a4)
80011f10:	00e78023          	sb	a4,0(a5)
80011f14:	0007c783          	lbu	a5,0(a5)
80011f18:	00079663          	bnez	a5,80011f24 <namcpy+0x60>
80011f1c:	00100793          	li	a5,1
80011f20:	0200006f          	j	80011f40 <namcpy+0x7c>
80011f24:	fe442783          	lw	a5,-28(s0)
80011f28:	00178793          	addi	a5,a5,1
80011f2c:	fef42223          	sw	a5,-28(s0)
80011f30:	fe442703          	lw	a4,-28(s0)
80011f34:	fd442783          	lw	a5,-44(s0)
80011f38:	faf74ee3          	blt	a4,a5,80011ef4 <namcpy+0x30>
80011f3c:	fff00793          	li	a5,-1
80011f40:	00078513          	mv	a0,a5
80011f44:	02c12403          	lw	s0,44(sp)
80011f48:	03010113          	addi	sp,sp,48
80011f4c:	00008067          	ret

80011f50 <context_irq_enable>:
80011f50:	fe010113          	addi	sp,sp,-32
80011f54:	00812e23          	sw	s0,28(sp)
80011f58:	02010413          	addi	s0,sp,32
80011f5c:	fea42623          	sw	a0,-20(s0)
80011f60:	feb42423          	sw	a1,-24(s0)
80011f64:	fec42783          	lw	a5,-20(s0)
80011f68:	0047a783          	lw	a5,4(a5)
80011f6c:	f7f7f713          	andi	a4,a5,-129
80011f70:	fec42783          	lw	a5,-20(s0)
80011f74:	00e7a223          	sw	a4,4(a5)
80011f78:	fec42783          	lw	a5,-20(s0)
80011f7c:	0047a703          	lw	a4,4(a5)
80011f80:	fe842783          	lw	a5,-24(s0)
80011f84:	00078663          	beqz	a5,80011f90 <context_irq_enable+0x40>
80011f88:	08000793          	li	a5,128
80011f8c:	0080006f          	j	80011f94 <context_irq_enable+0x44>
80011f90:	00000793          	li	a5,0
80011f94:	00e7e733          	or	a4,a5,a4
80011f98:	fec42783          	lw	a5,-20(s0)
80011f9c:	00e7a223          	sw	a4,4(a5)
80011fa0:	00000013          	nop
80011fa4:	01c12403          	lw	s0,28(sp)
80011fa8:	02010113          	addi	sp,sp,32
80011fac:	00008067          	ret

80011fb0 <timer_diff>:
80011fb0:	fe010113          	addi	sp,sp,-32
80011fb4:	00812e23          	sw	s0,28(sp)
80011fb8:	02010413          	addi	s0,sp,32
80011fbc:	fea42623          	sw	a0,-20(s0)
80011fc0:	feb42423          	sw	a1,-24(s0)
80011fc4:	fec42703          	lw	a4,-20(s0)
80011fc8:	fe842783          	lw	a5,-24(s0)
80011fcc:	40f707b3          	sub	a5,a4,a5
80011fd0:	00078513          	mv	a0,a5
80011fd4:	01c12403          	lw	s0,28(sp)
80011fd8:	02010113          	addi	sp,sp,32
80011fdc:	00008067          	ret

80011fe0 <namopen>:
80011fe0:	fc010113          	addi	sp,sp,-64
80011fe4:	02112e23          	sw	ra,60(sp)
80011fe8:	02812c23          	sw	s0,56(sp)
80011fec:	04010413          	addi	s0,sp,64
80011ff0:	fca42623          	sw	a0,-52(s0)
80011ff4:	fcb42423          	sw	a1,-56(s0)
80011ff8:	fcc42223          	sw	a2,-60(s0)
80011ffc:	fcc42783          	lw	a5,-52(s0)
80012000:	0007a703          	lw	a4,0(a5)
80012004:	fdc40793          	addi	a5,s0,-36
80012008:	00070613          	mv	a2,a4
8001200c:	00078593          	mv	a1,a5
80012010:	fc842503          	lw	a0,-56(s0)
80012014:	c19ff0ef          	jal	80011c2c <nammap>
80012018:	fea42623          	sw	a0,-20(s0)
8001201c:	fec42703          	lw	a4,-20(s0)
80012020:	fff00793          	li	a5,-1
80012024:	00f71663          	bne	a4,a5,80012030 <namopen+0x50>
80012028:	fff00793          	li	a5,-1
8001202c:	01c0006f          	j	80012048 <namopen+0x68>
80012030:	fdc40793          	addi	a5,s0,-36
80012034:	fc442603          	lw	a2,-60(s0)
80012038:	00078593          	mv	a1,a5
8001203c:	fec42503          	lw	a0,-20(s0)
80012040:	88cfa0ef          	jal	8000c0cc <open>
80012044:	00050793          	mv	a5,a0
80012048:	00078513          	mv	a0,a5
8001204c:	03c12083          	lw	ra,60(sp)
80012050:	03812403          	lw	s0,56(sp)
80012054:	04010113          	addi	sp,sp,64
80012058:	00008067          	ret

8001205c <context_irq_enable>:
8001205c:	fe010113          	addi	sp,sp,-32
80012060:	00812e23          	sw	s0,28(sp)
80012064:	02010413          	addi	s0,sp,32
80012068:	fea42623          	sw	a0,-20(s0)
8001206c:	feb42423          	sw	a1,-24(s0)
80012070:	fec42783          	lw	a5,-20(s0)
80012074:	0047a783          	lw	a5,4(a5)
80012078:	f7f7f713          	andi	a4,a5,-129
8001207c:	fec42783          	lw	a5,-20(s0)
80012080:	00e7a223          	sw	a4,4(a5)
80012084:	fec42783          	lw	a5,-20(s0)
80012088:	0047a703          	lw	a4,4(a5)
8001208c:	fe842783          	lw	a5,-24(s0)
80012090:	00078663          	beqz	a5,8001209c <context_irq_enable+0x40>
80012094:	08000793          	li	a5,128
80012098:	0080006f          	j	800120a0 <context_irq_enable+0x44>
8001209c:	00000793          	li	a5,0
800120a0:	00e7e733          	or	a4,a5,a4
800120a4:	fec42783          	lw	a5,-20(s0)
800120a8:	00e7a223          	sw	a4,4(a5)
800120ac:	00000013          	nop
800120b0:	01c12403          	lw	s0,28(sp)
800120b4:	02010113          	addi	sp,sp,32
800120b8:	00008067          	ret

800120bc <timer_diff>:
800120bc:	fe010113          	addi	sp,sp,-32
800120c0:	00812e23          	sw	s0,28(sp)
800120c4:	02010413          	addi	s0,sp,32
800120c8:	fea42623          	sw	a0,-20(s0)
800120cc:	feb42423          	sw	a1,-24(s0)
800120d0:	fec42703          	lw	a4,-20(s0)
800120d4:	fe842783          	lw	a5,-24(s0)
800120d8:	40f707b3          	sub	a5,a4,a5
800120dc:	00078513          	mv	a0,a5
800120e0:	01c12403          	lw	s0,28(sp)
800120e4:	02010113          	addi	sp,sp,32
800120e8:	00008067          	ret

800120ec <ttycontrol>:
800120ec:	fd010113          	addi	sp,sp,-48
800120f0:	02112623          	sw	ra,44(sp)
800120f4:	02812423          	sw	s0,40(sp)
800120f8:	03010413          	addi	s0,sp,48
800120fc:	fca42e23          	sw	a0,-36(s0)
80012100:	fcb42c23          	sw	a1,-40(s0)
80012104:	fcc42a23          	sw	a2,-44(s0)
80012108:	fcd42823          	sw	a3,-48(s0)
8001210c:	fdc42783          	lw	a5,-36(s0)
80012110:	0047a703          	lw	a4,4(a5)
80012114:	09c00793          	li	a5,156
80012118:	02f70733          	mul	a4,a4,a5
8001211c:	800177b7          	lui	a5,0x80017
80012120:	12878793          	addi	a5,a5,296 # 80017128 <ttytab>
80012124:	00f707b3          	add	a5,a4,a5
80012128:	fef42623          	sw	a5,-20(s0)
8001212c:	fd842783          	lw	a5,-40(s0)
80012130:	ffd78793          	addi	a5,a5,-3
80012134:	00700713          	li	a4,7
80012138:	0cf76663          	bltu	a4,a5,80012204 <ttycontrol+0x118>
8001213c:	00279713          	slli	a4,a5,0x2
80012140:	800157b7          	lui	a5,0x80015
80012144:	e8078793          	addi	a5,a5,-384 # 80014e80 <cmdtab+0xb98>
80012148:	00f707b3          	add	a5,a4,a5
8001214c:	0007a783          	lw	a5,0(a5)
80012150:	00078067          	jr	a5
80012154:	fec42783          	lw	a5,-20(s0)
80012158:	0287a783          	lw	a5,40(a5)
8001215c:	00078513          	mv	a0,a5
80012160:	b98f90ef          	jal	8000b4f8 <wait>
80012164:	fec42783          	lw	a5,-20(s0)
80012168:	0047a783          	lw	a5,4(a5)
8001216c:	0007c783          	lbu	a5,0(a5)
80012170:	fef405a3          	sb	a5,-21(s0)
80012174:	fec42783          	lw	a5,-20(s0)
80012178:	0287a783          	lw	a5,40(a5)
8001217c:	00078513          	mv	a0,a5
80012180:	e71fb0ef          	jal	8000dff0 <signal>
80012184:	feb44783          	lbu	a5,-21(s0)
80012188:	0800006f          	j	80012208 <ttycontrol+0x11c>
8001218c:	fec42783          	lw	a5,-20(s0)
80012190:	05200713          	li	a4,82
80012194:	08e78023          	sb	a4,128(a5)
80012198:	00100793          	li	a5,1
8001219c:	06c0006f          	j	80012208 <ttycontrol+0x11c>
800121a0:	fec42783          	lw	a5,-20(s0)
800121a4:	04300713          	li	a4,67
800121a8:	08e78023          	sb	a4,128(a5)
800121ac:	00100793          	li	a5,1
800121b0:	0580006f          	j	80012208 <ttycontrol+0x11c>
800121b4:	fec42783          	lw	a5,-20(s0)
800121b8:	04b00713          	li	a4,75
800121bc:	08e78023          	sb	a4,128(a5)
800121c0:	00100793          	li	a5,1
800121c4:	0440006f          	j	80012208 <ttycontrol+0x11c>
800121c8:	fec42783          	lw	a5,-20(s0)
800121cc:	0287a783          	lw	a5,40(a5)
800121d0:	00078513          	mv	a0,a5
800121d4:	ee4fb0ef          	jal	8000d8b8 <semcount>
800121d8:	00050793          	mv	a5,a0
800121dc:	02c0006f          	j	80012208 <ttycontrol+0x11c>
800121e0:	fec42783          	lw	a5,-20(s0)
800121e4:	00100713          	li	a4,1
800121e8:	08e780a3          	sb	a4,129(a5)
800121ec:	00100793          	li	a5,1
800121f0:	0180006f          	j	80012208 <ttycontrol+0x11c>
800121f4:	fec42783          	lw	a5,-20(s0)
800121f8:	080780a3          	sb	zero,129(a5)
800121fc:	00100793          	li	a5,1
80012200:	0080006f          	j	80012208 <ttycontrol+0x11c>
80012204:	fff00793          	li	a5,-1
80012208:	00078513          	mv	a0,a5
8001220c:	02c12083          	lw	ra,44(sp)
80012210:	02812403          	lw	s0,40(sp)
80012214:	03010113          	addi	sp,sp,48
80012218:	00008067          	ret

8001221c <context_irq_enable>:
8001221c:	fe010113          	addi	sp,sp,-32
80012220:	00812e23          	sw	s0,28(sp)
80012224:	02010413          	addi	s0,sp,32
80012228:	fea42623          	sw	a0,-20(s0)
8001222c:	feb42423          	sw	a1,-24(s0)
80012230:	fec42783          	lw	a5,-20(s0)
80012234:	0047a783          	lw	a5,4(a5)
80012238:	f7f7f713          	andi	a4,a5,-129
8001223c:	fec42783          	lw	a5,-20(s0)
80012240:	00e7a223          	sw	a4,4(a5)
80012244:	fec42783          	lw	a5,-20(s0)
80012248:	0047a703          	lw	a4,4(a5)
8001224c:	fe842783          	lw	a5,-24(s0)
80012250:	00078663          	beqz	a5,8001225c <context_irq_enable+0x40>
80012254:	08000793          	li	a5,128
80012258:	0080006f          	j	80012260 <context_irq_enable+0x44>
8001225c:	00000793          	li	a5,0
80012260:	00e7e733          	or	a4,a5,a4
80012264:	fec42783          	lw	a5,-20(s0)
80012268:	00e7a223          	sw	a4,4(a5)
8001226c:	00000013          	nop
80012270:	01c12403          	lw	s0,28(sp)
80012274:	02010113          	addi	sp,sp,32
80012278:	00008067          	ret

8001227c <timer_diff>:
8001227c:	fe010113          	addi	sp,sp,-32
80012280:	00812e23          	sw	s0,28(sp)
80012284:	02010413          	addi	s0,sp,32
80012288:	fea42623          	sw	a0,-20(s0)
8001228c:	feb42423          	sw	a1,-24(s0)
80012290:	fec42703          	lw	a4,-20(s0)
80012294:	fe842783          	lw	a5,-24(s0)
80012298:	40f707b3          	sub	a5,a4,a5
8001229c:	00078513          	mv	a0,a5
800122a0:	01c12403          	lw	s0,28(sp)
800122a4:	02010113          	addi	sp,sp,32
800122a8:	00008067          	ret

800122ac <ttygetc>:
800122ac:	fd010113          	addi	sp,sp,-48
800122b0:	02112623          	sw	ra,44(sp)
800122b4:	02812423          	sw	s0,40(sp)
800122b8:	03010413          	addi	s0,sp,48
800122bc:	fca42e23          	sw	a0,-36(s0)
800122c0:	fdc42783          	lw	a5,-36(s0)
800122c4:	0047a703          	lw	a4,4(a5)
800122c8:	09c00793          	li	a5,156
800122cc:	02f70733          	mul	a4,a4,a5
800122d0:	800177b7          	lui	a5,0x80017
800122d4:	12878793          	addi	a5,a5,296 # 80017128 <ttytab>
800122d8:	00f707b3          	add	a5,a4,a5
800122dc:	fef42623          	sw	a5,-20(s0)
800122e0:	fec42783          	lw	a5,-20(s0)
800122e4:	0287a783          	lw	a5,40(a5)
800122e8:	00078513          	mv	a0,a5
800122ec:	a0cf90ef          	jal	8000b4f8 <wait>
800122f0:	fec42783          	lw	a5,-20(s0)
800122f4:	0007a783          	lw	a5,0(a5)
800122f8:	00178693          	addi	a3,a5,1
800122fc:	fec42703          	lw	a4,-20(s0)
80012300:	00d72023          	sw	a3,0(a4)
80012304:	0007c783          	lbu	a5,0(a5)
80012308:	fef405a3          	sb	a5,-21(s0)
8001230c:	fec42783          	lw	a5,-20(s0)
80012310:	0007a703          	lw	a4,0(a5)
80012314:	fec42783          	lw	a5,-20(s0)
80012318:	02878793          	addi	a5,a5,40
8001231c:	00f76a63          	bltu	a4,a5,80012330 <ttygetc+0x84>
80012320:	fec42783          	lw	a5,-20(s0)
80012324:	00878713          	addi	a4,a5,8
80012328:	fec42783          	lw	a5,-20(s0)
8001232c:	00e7a023          	sw	a4,0(a5)
80012330:	fec42783          	lw	a5,-20(s0)
80012334:	0807c703          	lbu	a4,128(a5)
80012338:	04300793          	li	a5,67
8001233c:	02f71463          	bne	a4,a5,80012364 <ttygetc+0xb8>
80012340:	fec42783          	lw	a5,-20(s0)
80012344:	0897c783          	lbu	a5,137(a5)
80012348:	00078e63          	beqz	a5,80012364 <ttygetc+0xb8>
8001234c:	fec42783          	lw	a5,-20(s0)
80012350:	08a7c783          	lbu	a5,138(a5)
80012354:	feb44703          	lbu	a4,-21(s0)
80012358:	00f71663          	bne	a4,a5,80012364 <ttygetc+0xb8>
8001235c:	ffe00793          	li	a5,-2
80012360:	0080006f          	j	80012368 <ttygetc+0xbc>
80012364:	feb44783          	lbu	a5,-21(s0)
80012368:	00078513          	mv	a0,a5
8001236c:	02c12083          	lw	ra,44(sp)
80012370:	02812403          	lw	s0,40(sp)
80012374:	03010113          	addi	sp,sp,48
80012378:	00008067          	ret

8001237c <context_irq_enable>:
8001237c:	fe010113          	addi	sp,sp,-32
80012380:	00812e23          	sw	s0,28(sp)
80012384:	02010413          	addi	s0,sp,32
80012388:	fea42623          	sw	a0,-20(s0)
8001238c:	feb42423          	sw	a1,-24(s0)
80012390:	fec42783          	lw	a5,-20(s0)
80012394:	0047a783          	lw	a5,4(a5)
80012398:	f7f7f713          	andi	a4,a5,-129
8001239c:	fec42783          	lw	a5,-20(s0)
800123a0:	00e7a223          	sw	a4,4(a5)
800123a4:	fec42783          	lw	a5,-20(s0)
800123a8:	0047a703          	lw	a4,4(a5)
800123ac:	fe842783          	lw	a5,-24(s0)
800123b0:	00078663          	beqz	a5,800123bc <context_irq_enable+0x40>
800123b4:	08000793          	li	a5,128
800123b8:	0080006f          	j	800123c0 <context_irq_enable+0x44>
800123bc:	00000793          	li	a5,0
800123c0:	00e7e733          	or	a4,a5,a4
800123c4:	fec42783          	lw	a5,-20(s0)
800123c8:	00e7a223          	sw	a4,4(a5)
800123cc:	00000013          	nop
800123d0:	01c12403          	lw	s0,28(sp)
800123d4:	02010113          	addi	sp,sp,32
800123d8:	00008067          	ret

800123dc <timer_diff>:
800123dc:	fe010113          	addi	sp,sp,-32
800123e0:	00812e23          	sw	s0,28(sp)
800123e4:	02010413          	addi	s0,sp,32
800123e8:	fea42623          	sw	a0,-20(s0)
800123ec:	feb42423          	sw	a1,-24(s0)
800123f0:	fec42703          	lw	a4,-20(s0)
800123f4:	fe842783          	lw	a5,-24(s0)
800123f8:	40f707b3          	sub	a5,a4,a5
800123fc:	00078513          	mv	a0,a5
80012400:	01c12403          	lw	s0,28(sp)
80012404:	02010113          	addi	sp,sp,32
80012408:	00008067          	ret

8001240c <ttyhandle_in>:
8001240c:	fd010113          	addi	sp,sp,-48
80012410:	02112623          	sw	ra,44(sp)
80012414:	02812423          	sw	s0,40(sp)
80012418:	03010413          	addi	s0,sp,48
8001241c:	fca42e23          	sw	a0,-36(s0)
80012420:	00058793          	mv	a5,a1
80012424:	fcf40da3          	sb	a5,-37(s0)
80012428:	fdb44783          	lbu	a5,-37(s0)
8001242c:	fef407a3          	sb	a5,-17(s0)
80012430:	fdc42783          	lw	a5,-36(s0)
80012434:	0287a783          	lw	a5,40(a5)
80012438:	00078513          	mv	a0,a5
8001243c:	c7cfb0ef          	jal	8000d8b8 <semcount>
80012440:	fea42423          	sw	a0,-24(s0)
80012444:	fe842783          	lw	a5,-24(s0)
80012448:	0007d463          	bgez	a5,80012450 <ttyhandle_in+0x44>
8001244c:	fe042423          	sw	zero,-24(s0)
80012450:	fdc42783          	lw	a5,-36(s0)
80012454:	0807c703          	lbu	a4,128(a5)
80012458:	05200793          	li	a5,82
8001245c:	06f71263          	bne	a4,a5,800124c0 <ttyhandle_in+0xb4>
80012460:	fe842703          	lw	a4,-24(s0)
80012464:	01f00793          	li	a5,31
80012468:	3ce7ce63          	blt	a5,a4,80012844 <ttyhandle_in+0x438>
8001246c:	fdc42783          	lw	a5,-36(s0)
80012470:	0047a783          	lw	a5,4(a5)
80012474:	00178693          	addi	a3,a5,1
80012478:	fdc42703          	lw	a4,-36(s0)
8001247c:	00d72223          	sw	a3,4(a4)
80012480:	fef44703          	lbu	a4,-17(s0)
80012484:	00e78023          	sb	a4,0(a5)
80012488:	fdc42783          	lw	a5,-36(s0)
8001248c:	0047a703          	lw	a4,4(a5)
80012490:	fdc42783          	lw	a5,-36(s0)
80012494:	02878793          	addi	a5,a5,40
80012498:	00f76a63          	bltu	a4,a5,800124ac <ttyhandle_in+0xa0>
8001249c:	fdc42783          	lw	a5,-36(s0)
800124a0:	00878713          	addi	a4,a5,8
800124a4:	fdc42783          	lw	a5,-36(s0)
800124a8:	00e7a223          	sw	a4,4(a5)
800124ac:	fdc42783          	lw	a5,-36(s0)
800124b0:	0287a783          	lw	a5,40(a5)
800124b4:	00078513          	mv	a0,a5
800124b8:	b39fb0ef          	jal	8000dff0 <signal>
800124bc:	3a40006f          	j	80012860 <ttyhandle_in+0x454>
800124c0:	fef44703          	lbu	a4,-17(s0)
800124c4:	00d00793          	li	a5,13
800124c8:	00f71c63          	bne	a4,a5,800124e0 <ttyhandle_in+0xd4>
800124cc:	fdc42783          	lw	a5,-36(s0)
800124d0:	0857c783          	lbu	a5,133(a5)
800124d4:	00078663          	beqz	a5,800124e0 <ttyhandle_in+0xd4>
800124d8:	00a00793          	li	a5,10
800124dc:	fef407a3          	sb	a5,-17(s0)
800124e0:	fdc42783          	lw	a5,-36(s0)
800124e4:	08078aa3          	sb	zero,149(a5)
800124e8:	fdc42783          	lw	a5,-36(s0)
800124ec:	0807c703          	lbu	a4,128(a5)
800124f0:	04b00793          	li	a5,75
800124f4:	08f71c63          	bne	a4,a5,8001258c <ttyhandle_in+0x180>
800124f8:	fe842703          	lw	a4,-24(s0)
800124fc:	01f00793          	li	a5,31
80012500:	00e7de63          	bge	a5,a4,8001251c <ttyhandle_in+0x110>
80012504:	fdc42783          	lw	a5,-36(s0)
80012508:	0997c783          	lbu	a5,153(a5)
8001250c:	fdc42583          	lw	a1,-36(s0)
80012510:	00078513          	mv	a0,a5
80012514:	568000ef          	jal	80012a7c <eputc>
80012518:	3480006f          	j	80012860 <ttyhandle_in+0x454>
8001251c:	fdc42783          	lw	a5,-36(s0)
80012520:	0047a783          	lw	a5,4(a5)
80012524:	00178693          	addi	a3,a5,1
80012528:	fdc42703          	lw	a4,-36(s0)
8001252c:	00d72223          	sw	a3,4(a4)
80012530:	fef44703          	lbu	a4,-17(s0)
80012534:	00e78023          	sb	a4,0(a5)
80012538:	fdc42783          	lw	a5,-36(s0)
8001253c:	0047a703          	lw	a4,4(a5)
80012540:	fdc42783          	lw	a5,-36(s0)
80012544:	02878793          	addi	a5,a5,40
80012548:	00f76a63          	bltu	a4,a5,8001255c <ttyhandle_in+0x150>
8001254c:	fdc42783          	lw	a5,-36(s0)
80012550:	00878713          	addi	a4,a5,8
80012554:	fdc42783          	lw	a5,-36(s0)
80012558:	00e7a223          	sw	a4,4(a5)
8001255c:	fdc42783          	lw	a5,-36(s0)
80012560:	0817c783          	lbu	a5,129(a5)
80012564:	00078a63          	beqz	a5,80012578 <ttyhandle_in+0x16c>
80012568:	fef44783          	lbu	a5,-17(s0)
8001256c:	fdc42583          	lw	a1,-36(s0)
80012570:	00078513          	mv	a0,a5
80012574:	438000ef          	jal	800129ac <echoch>
80012578:	fdc42783          	lw	a5,-36(s0)
8001257c:	0287a783          	lw	a5,40(a5)
80012580:	00078513          	mv	a0,a5
80012584:	a6dfb0ef          	jal	8000dff0 <signal>
80012588:	2d80006f          	j	80012860 <ttyhandle_in+0x454>
8001258c:	fdc42783          	lw	a5,-36(s0)
80012590:	08c7c783          	lbu	a5,140(a5)
80012594:	fef44703          	lbu	a4,-17(s0)
80012598:	06f71e63          	bne	a4,a5,80012614 <ttyhandle_in+0x208>
8001259c:	fdc42783          	lw	a5,-36(s0)
800125a0:	08b7c783          	lbu	a5,139(a5)
800125a4:	06078863          	beqz	a5,80012614 <ttyhandle_in+0x208>
800125a8:	fdc42783          	lw	a5,-36(s0)
800125ac:	0047a703          	lw	a4,4(a5)
800125b0:	fdc42783          	lw	a5,-36(s0)
800125b4:	0907a783          	lw	a5,144(a5)
800125b8:	40f007b3          	neg	a5,a5
800125bc:	00f70733          	add	a4,a4,a5
800125c0:	fdc42783          	lw	a5,-36(s0)
800125c4:	00e7a223          	sw	a4,4(a5)
800125c8:	fdc42783          	lw	a5,-36(s0)
800125cc:	0047a703          	lw	a4,4(a5)
800125d0:	fdc42783          	lw	a5,-36(s0)
800125d4:	00878793          	addi	a5,a5,8
800125d8:	00f77c63          	bgeu	a4,a5,800125f0 <ttyhandle_in+0x1e4>
800125dc:	fdc42783          	lw	a5,-36(s0)
800125e0:	0047a783          	lw	a5,4(a5)
800125e4:	02078713          	addi	a4,a5,32
800125e8:	fdc42783          	lw	a5,-36(s0)
800125ec:	00e7a223          	sw	a4,4(a5)
800125f0:	fdc42783          	lw	a5,-36(s0)
800125f4:	0807a823          	sw	zero,144(a5)
800125f8:	fdc42583          	lw	a1,-36(s0)
800125fc:	00d00513          	li	a0,13
80012600:	47c000ef          	jal	80012a7c <eputc>
80012604:	fdc42583          	lw	a1,-36(s0)
80012608:	00a00513          	li	a0,10
8001260c:	470000ef          	jal	80012a7c <eputc>
80012610:	2500006f          	j	80012860 <ttyhandle_in+0x454>
80012614:	fdc42783          	lw	a5,-36(s0)
80012618:	0877c783          	lbu	a5,135(a5)
8001261c:	fef44703          	lbu	a4,-17(s0)
80012620:	00f70a63          	beq	a4,a5,80012634 <ttyhandle_in+0x228>
80012624:	fdc42783          	lw	a5,-36(s0)
80012628:	0887c783          	lbu	a5,136(a5)
8001262c:	fef44703          	lbu	a4,-17(s0)
80012630:	02f71e63          	bne	a4,a5,8001266c <ttyhandle_in+0x260>
80012634:	fdc42783          	lw	a5,-36(s0)
80012638:	0867c783          	lbu	a5,134(a5)
8001263c:	02078863          	beqz	a5,8001266c <ttyhandle_in+0x260>
80012640:	fdc42783          	lw	a5,-36(s0)
80012644:	0907a783          	lw	a5,144(a5)
80012648:	20f05263          	blez	a5,8001284c <ttyhandle_in+0x440>
8001264c:	fdc42783          	lw	a5,-36(s0)
80012650:	0907a783          	lw	a5,144(a5)
80012654:	fff78713          	addi	a4,a5,-1
80012658:	fdc42783          	lw	a5,-36(s0)
8001265c:	08e7a823          	sw	a4,144(a5)
80012660:	fdc42503          	lw	a0,-36(s0)
80012664:	20c000ef          	jal	80012870 <erase1>
80012668:	1e40006f          	j	8001284c <ttyhandle_in+0x440>
8001266c:	fef44703          	lbu	a4,-17(s0)
80012670:	00a00793          	li	a5,10
80012674:	00f70863          	beq	a4,a5,80012684 <ttyhandle_in+0x278>
80012678:	fef44703          	lbu	a4,-17(s0)
8001267c:	00d00793          	li	a5,13
80012680:	08f71663          	bne	a4,a5,8001270c <ttyhandle_in+0x300>
80012684:	fdc42783          	lw	a5,-36(s0)
80012688:	0817c783          	lbu	a5,129(a5)
8001268c:	00078a63          	beqz	a5,800126a0 <ttyhandle_in+0x294>
80012690:	fef44783          	lbu	a5,-17(s0)
80012694:	fdc42583          	lw	a1,-36(s0)
80012698:	00078513          	mv	a0,a5
8001269c:	310000ef          	jal	800129ac <echoch>
800126a0:	fdc42783          	lw	a5,-36(s0)
800126a4:	0047a783          	lw	a5,4(a5)
800126a8:	00178693          	addi	a3,a5,1
800126ac:	fdc42703          	lw	a4,-36(s0)
800126b0:	00d72223          	sw	a3,4(a4)
800126b4:	fef44703          	lbu	a4,-17(s0)
800126b8:	00e78023          	sb	a4,0(a5)
800126bc:	fdc42783          	lw	a5,-36(s0)
800126c0:	0047a703          	lw	a4,4(a5)
800126c4:	fdc42783          	lw	a5,-36(s0)
800126c8:	02878793          	addi	a5,a5,40
800126cc:	00f76a63          	bltu	a4,a5,800126e0 <ttyhandle_in+0x2d4>
800126d0:	fdc42783          	lw	a5,-36(s0)
800126d4:	00878713          	addi	a4,a5,8
800126d8:	fdc42783          	lw	a5,-36(s0)
800126dc:	00e7a223          	sw	a4,4(a5)
800126e0:	fdc42783          	lw	a5,-36(s0)
800126e4:	0287a703          	lw	a4,40(a5)
800126e8:	fdc42783          	lw	a5,-36(s0)
800126ec:	0907a783          	lw	a5,144(a5)
800126f0:	00178793          	addi	a5,a5,1
800126f4:	00078593          	mv	a1,a5
800126f8:	00070513          	mv	a0,a4
800126fc:	9c9fb0ef          	jal	8000e0c4 <signaln>
80012700:	fdc42783          	lw	a5,-36(s0)
80012704:	0807a823          	sw	zero,144(a5)
80012708:	1580006f          	j	80012860 <ttyhandle_in+0x454>
8001270c:	fdc42783          	lw	a5,-36(s0)
80012710:	0287a783          	lw	a5,40(a5)
80012714:	00078513          	mv	a0,a5
80012718:	9a0fb0ef          	jal	8000d8b8 <semcount>
8001271c:	fea42423          	sw	a0,-24(s0)
80012720:	fe842783          	lw	a5,-24(s0)
80012724:	0007d463          	bgez	a5,8001272c <ttyhandle_in+0x320>
80012728:	fe042423          	sw	zero,-24(s0)
8001272c:	fdc42783          	lw	a5,-36(s0)
80012730:	0907a703          	lw	a4,144(a5)
80012734:	fe842783          	lw	a5,-24(s0)
80012738:	00f70733          	add	a4,a4,a5
8001273c:	01e00793          	li	a5,30
80012740:	00e7de63          	bge	a5,a4,8001275c <ttyhandle_in+0x350>
80012744:	fdc42783          	lw	a5,-36(s0)
80012748:	0997c783          	lbu	a5,153(a5)
8001274c:	fdc42583          	lw	a1,-36(s0)
80012750:	00078513          	mv	a0,a5
80012754:	328000ef          	jal	80012a7c <eputc>
80012758:	1080006f          	j	80012860 <ttyhandle_in+0x454>
8001275c:	fdc42783          	lw	a5,-36(s0)
80012760:	08a7c783          	lbu	a5,138(a5)
80012764:	fef44703          	lbu	a4,-17(s0)
80012768:	06f71463          	bne	a4,a5,800127d0 <ttyhandle_in+0x3c4>
8001276c:	fdc42783          	lw	a5,-36(s0)
80012770:	0897c783          	lbu	a5,137(a5)
80012774:	04078e63          	beqz	a5,800127d0 <ttyhandle_in+0x3c4>
80012778:	fdc42783          	lw	a5,-36(s0)
8001277c:	0817c783          	lbu	a5,129(a5)
80012780:	00078a63          	beqz	a5,80012794 <ttyhandle_in+0x388>
80012784:	fef44783          	lbu	a5,-17(s0)
80012788:	fdc42583          	lw	a1,-36(s0)
8001278c:	00078513          	mv	a0,a5
80012790:	21c000ef          	jal	800129ac <echoch>
80012794:	fdc42783          	lw	a5,-36(s0)
80012798:	0907a783          	lw	a5,144(a5)
8001279c:	0a079c63          	bnez	a5,80012854 <ttyhandle_in+0x448>
800127a0:	fdc42783          	lw	a5,-36(s0)
800127a4:	0047a783          	lw	a5,4(a5)
800127a8:	00178693          	addi	a3,a5,1
800127ac:	fdc42703          	lw	a4,-36(s0)
800127b0:	00d72223          	sw	a3,4(a4)
800127b4:	fef44703          	lbu	a4,-17(s0)
800127b8:	00e78023          	sb	a4,0(a5)
800127bc:	fdc42783          	lw	a5,-36(s0)
800127c0:	0287a783          	lw	a5,40(a5)
800127c4:	00078513          	mv	a0,a5
800127c8:	829fb0ef          	jal	8000dff0 <signal>
800127cc:	0940006f          	j	80012860 <ttyhandle_in+0x454>
800127d0:	fdc42783          	lw	a5,-36(s0)
800127d4:	0817c783          	lbu	a5,129(a5)
800127d8:	00078a63          	beqz	a5,800127ec <ttyhandle_in+0x3e0>
800127dc:	fef44783          	lbu	a5,-17(s0)
800127e0:	fdc42583          	lw	a1,-36(s0)
800127e4:	00078513          	mv	a0,a5
800127e8:	1c4000ef          	jal	800129ac <echoch>
800127ec:	fdc42783          	lw	a5,-36(s0)
800127f0:	0907a783          	lw	a5,144(a5)
800127f4:	00178713          	addi	a4,a5,1
800127f8:	fdc42783          	lw	a5,-36(s0)
800127fc:	08e7a823          	sw	a4,144(a5)
80012800:	fdc42783          	lw	a5,-36(s0)
80012804:	0047a783          	lw	a5,4(a5)
80012808:	00178693          	addi	a3,a5,1
8001280c:	fdc42703          	lw	a4,-36(s0)
80012810:	00d72223          	sw	a3,4(a4)
80012814:	fef44703          	lbu	a4,-17(s0)
80012818:	00e78023          	sb	a4,0(a5)
8001281c:	fdc42783          	lw	a5,-36(s0)
80012820:	0047a703          	lw	a4,4(a5)
80012824:	fdc42783          	lw	a5,-36(s0)
80012828:	02878793          	addi	a5,a5,40
8001282c:	02f76863          	bltu	a4,a5,8001285c <ttyhandle_in+0x450>
80012830:	fdc42783          	lw	a5,-36(s0)
80012834:	00878713          	addi	a4,a5,8
80012838:	fdc42783          	lw	a5,-36(s0)
8001283c:	00e7a223          	sw	a4,4(a5)
80012840:	01c0006f          	j	8001285c <ttyhandle_in+0x450>
80012844:	00000013          	nop
80012848:	0180006f          	j	80012860 <ttyhandle_in+0x454>
8001284c:	00000013          	nop
80012850:	0100006f          	j	80012860 <ttyhandle_in+0x454>
80012854:	00000013          	nop
80012858:	0080006f          	j	80012860 <ttyhandle_in+0x454>
8001285c:	00000013          	nop
80012860:	02c12083          	lw	ra,44(sp)
80012864:	02812403          	lw	s0,40(sp)
80012868:	03010113          	addi	sp,sp,48
8001286c:	00008067          	ret

80012870 <erase1>:
80012870:	fd010113          	addi	sp,sp,-48
80012874:	02112623          	sw	ra,44(sp)
80012878:	02812423          	sw	s0,40(sp)
8001287c:	03010413          	addi	s0,sp,48
80012880:	fca42e23          	sw	a0,-36(s0)
80012884:	fdc42783          	lw	a5,-36(s0)
80012888:	0047a783          	lw	a5,4(a5)
8001288c:	fff78713          	addi	a4,a5,-1
80012890:	fdc42783          	lw	a5,-36(s0)
80012894:	00e7a223          	sw	a4,4(a5)
80012898:	fdc42783          	lw	a5,-36(s0)
8001289c:	0047a703          	lw	a4,4(a5)
800128a0:	fdc42783          	lw	a5,-36(s0)
800128a4:	00878793          	addi	a5,a5,8
800128a8:	00f77c63          	bgeu	a4,a5,800128c0 <erase1+0x50>
800128ac:	fdc42783          	lw	a5,-36(s0)
800128b0:	0047a783          	lw	a5,4(a5)
800128b4:	02078713          	addi	a4,a5,32
800128b8:	fdc42783          	lw	a5,-36(s0)
800128bc:	00e7a223          	sw	a4,4(a5)
800128c0:	fdc42783          	lw	a5,-36(s0)
800128c4:	0047a783          	lw	a5,4(a5)
800128c8:	0007c783          	lbu	a5,0(a5)
800128cc:	fef407a3          	sb	a5,-17(s0)
800128d0:	fdc42783          	lw	a5,-36(s0)
800128d4:	0817c783          	lbu	a5,129(a5)
800128d8:	0c078063          	beqz	a5,80012998 <erase1+0x128>
800128dc:	fef44703          	lbu	a4,-17(s0)
800128e0:	01f00793          	li	a5,31
800128e4:	00e7f863          	bgeu	a5,a4,800128f4 <erase1+0x84>
800128e8:	fef44703          	lbu	a4,-17(s0)
800128ec:	07f00793          	li	a5,127
800128f0:	06f71a63          	bne	a4,a5,80012964 <erase1+0xf4>
800128f4:	fdc42783          	lw	a5,-36(s0)
800128f8:	0837c783          	lbu	a5,131(a5)
800128fc:	02078a63          	beqz	a5,80012930 <erase1+0xc0>
80012900:	fdc42583          	lw	a1,-36(s0)
80012904:	00800513          	li	a0,8
80012908:	174000ef          	jal	80012a7c <eputc>
8001290c:	fdc42783          	lw	a5,-36(s0)
80012910:	0827c783          	lbu	a5,130(a5)
80012914:	00078e63          	beqz	a5,80012930 <erase1+0xc0>
80012918:	fdc42583          	lw	a1,-36(s0)
8001291c:	02000513          	li	a0,32
80012920:	15c000ef          	jal	80012a7c <eputc>
80012924:	fdc42583          	lw	a1,-36(s0)
80012928:	00800513          	li	a0,8
8001292c:	150000ef          	jal	80012a7c <eputc>
80012930:	fdc42583          	lw	a1,-36(s0)
80012934:	00800513          	li	a0,8
80012938:	144000ef          	jal	80012a7c <eputc>
8001293c:	fdc42783          	lw	a5,-36(s0)
80012940:	0827c783          	lbu	a5,130(a5)
80012944:	04078863          	beqz	a5,80012994 <erase1+0x124>
80012948:	fdc42583          	lw	a1,-36(s0)
8001294c:	02000513          	li	a0,32
80012950:	12c000ef          	jal	80012a7c <eputc>
80012954:	fdc42583          	lw	a1,-36(s0)
80012958:	00800513          	li	a0,8
8001295c:	120000ef          	jal	80012a7c <eputc>
80012960:	0340006f          	j	80012994 <erase1+0x124>
80012964:	fdc42583          	lw	a1,-36(s0)
80012968:	00800513          	li	a0,8
8001296c:	110000ef          	jal	80012a7c <eputc>
80012970:	fdc42783          	lw	a5,-36(s0)
80012974:	0827c783          	lbu	a5,130(a5)
80012978:	02078063          	beqz	a5,80012998 <erase1+0x128>
8001297c:	fdc42583          	lw	a1,-36(s0)
80012980:	02000513          	li	a0,32
80012984:	0f8000ef          	jal	80012a7c <eputc>
80012988:	fdc42583          	lw	a1,-36(s0)
8001298c:	00800513          	li	a0,8
80012990:	0ec000ef          	jal	80012a7c <eputc>
80012994:	00000013          	nop
80012998:	00000013          	nop
8001299c:	02c12083          	lw	ra,44(sp)
800129a0:	02812403          	lw	s0,40(sp)
800129a4:	03010113          	addi	sp,sp,48
800129a8:	00008067          	ret

800129ac <echoch>:
800129ac:	fe010113          	addi	sp,sp,-32
800129b0:	00112e23          	sw	ra,28(sp)
800129b4:	00812c23          	sw	s0,24(sp)
800129b8:	02010413          	addi	s0,sp,32
800129bc:	00050793          	mv	a5,a0
800129c0:	feb42423          	sw	a1,-24(s0)
800129c4:	fef407a3          	sb	a5,-17(s0)
800129c8:	fef44703          	lbu	a4,-17(s0)
800129cc:	00a00793          	li	a5,10
800129d0:	00f70863          	beq	a4,a5,800129e0 <echoch+0x34>
800129d4:	fef44703          	lbu	a4,-17(s0)
800129d8:	00d00793          	li	a5,13
800129dc:	02f71663          	bne	a4,a5,80012a08 <echoch+0x5c>
800129e0:	fe842783          	lw	a5,-24(s0)
800129e4:	0847c783          	lbu	a5,132(a5)
800129e8:	02078063          	beqz	a5,80012a08 <echoch+0x5c>
800129ec:	fe842583          	lw	a1,-24(s0)
800129f0:	00d00513          	li	a0,13
800129f4:	088000ef          	jal	80012a7c <eputc>
800129f8:	fe842583          	lw	a1,-24(s0)
800129fc:	00a00513          	li	a0,10
80012a00:	07c000ef          	jal	80012a7c <eputc>
80012a04:	0640006f          	j	80012a68 <echoch+0xbc>
80012a08:	fef44703          	lbu	a4,-17(s0)
80012a0c:	01f00793          	li	a5,31
80012a10:	00e7f863          	bgeu	a5,a4,80012a20 <echoch+0x74>
80012a14:	fef44703          	lbu	a4,-17(s0)
80012a18:	07f00793          	li	a5,127
80012a1c:	02f71c63          	bne	a4,a5,80012a54 <echoch+0xa8>
80012a20:	fe842783          	lw	a5,-24(s0)
80012a24:	0837c783          	lbu	a5,131(a5)
80012a28:	02078663          	beqz	a5,80012a54 <echoch+0xa8>
80012a2c:	fe842583          	lw	a1,-24(s0)
80012a30:	05e00513          	li	a0,94
80012a34:	048000ef          	jal	80012a7c <eputc>
80012a38:	fef44783          	lbu	a5,-17(s0)
80012a3c:	04078793          	addi	a5,a5,64
80012a40:	0ff7f793          	zext.b	a5,a5
80012a44:	fe842583          	lw	a1,-24(s0)
80012a48:	00078513          	mv	a0,a5
80012a4c:	030000ef          	jal	80012a7c <eputc>
80012a50:	0180006f          	j	80012a68 <echoch+0xbc>
80012a54:	fef44783          	lbu	a5,-17(s0)
80012a58:	fe842583          	lw	a1,-24(s0)
80012a5c:	00078513          	mv	a0,a5
80012a60:	01c000ef          	jal	80012a7c <eputc>
80012a64:	00000013          	nop
80012a68:	00000013          	nop
80012a6c:	01c12083          	lw	ra,28(sp)
80012a70:	01812403          	lw	s0,24(sp)
80012a74:	02010113          	addi	sp,sp,32
80012a78:	00008067          	ret

80012a7c <eputc>:
80012a7c:	fe010113          	addi	sp,sp,-32
80012a80:	00112e23          	sw	ra,28(sp)
80012a84:	00812c23          	sw	s0,24(sp)
80012a88:	02010413          	addi	s0,sp,32
80012a8c:	00050793          	mv	a5,a0
80012a90:	feb42423          	sw	a1,-24(s0)
80012a94:	fef407a3          	sb	a5,-17(s0)
80012a98:	fef44783          	lbu	a5,-17(s0)
80012a9c:	00078513          	mv	a0,a5
80012aa0:	479000ef          	jal	80013718 <kputc>
80012aa4:	00000013          	nop
80012aa8:	01c12083          	lw	ra,28(sp)
80012aac:	01812403          	lw	s0,24(sp)
80012ab0:	02010113          	addi	sp,sp,32
80012ab4:	00008067          	ret

80012ab8 <context_irq_enable>:
80012ab8:	fe010113          	addi	sp,sp,-32
80012abc:	00812e23          	sw	s0,28(sp)
80012ac0:	02010413          	addi	s0,sp,32
80012ac4:	fea42623          	sw	a0,-20(s0)
80012ac8:	feb42423          	sw	a1,-24(s0)
80012acc:	fec42783          	lw	a5,-20(s0)
80012ad0:	0047a783          	lw	a5,4(a5)
80012ad4:	f7f7f713          	andi	a4,a5,-129
80012ad8:	fec42783          	lw	a5,-20(s0)
80012adc:	00e7a223          	sw	a4,4(a5)
80012ae0:	fec42783          	lw	a5,-20(s0)
80012ae4:	0047a703          	lw	a4,4(a5)
80012ae8:	fe842783          	lw	a5,-24(s0)
80012aec:	00078663          	beqz	a5,80012af8 <context_irq_enable+0x40>
80012af0:	08000793          	li	a5,128
80012af4:	0080006f          	j	80012afc <context_irq_enable+0x44>
80012af8:	00000793          	li	a5,0
80012afc:	00e7e733          	or	a4,a5,a4
80012b00:	fec42783          	lw	a5,-20(s0)
80012b04:	00e7a223          	sw	a4,4(a5)
80012b08:	00000013          	nop
80012b0c:	01c12403          	lw	s0,28(sp)
80012b10:	02010113          	addi	sp,sp,32
80012b14:	00008067          	ret

80012b18 <timer_diff>:
80012b18:	fe010113          	addi	sp,sp,-32
80012b1c:	00812e23          	sw	s0,28(sp)
80012b20:	02010413          	addi	s0,sp,32
80012b24:	fea42623          	sw	a0,-20(s0)
80012b28:	feb42423          	sw	a1,-24(s0)
80012b2c:	fec42703          	lw	a4,-20(s0)
80012b30:	fe842783          	lw	a5,-24(s0)
80012b34:	40f707b3          	sub	a5,a4,a5
80012b38:	00078513          	mv	a0,a5
80012b3c:	01c12403          	lw	s0,28(sp)
80012b40:	02010113          	addi	sp,sp,32
80012b44:	00008067          	ret

80012b48 <ttyhandle_out>:
80012b48:	fd010113          	addi	sp,sp,-48
80012b4c:	02112623          	sw	ra,44(sp)
80012b50:	02812423          	sw	s0,40(sp)
80012b54:	03010413          	addi	s0,sp,48
80012b58:	fca42e23          	sw	a0,-36(s0)
80012b5c:	fdc42783          	lw	a5,-36(s0)
80012b60:	0957c783          	lbu	a5,149(a5)
80012b64:	18079863          	bnez	a5,80012cf4 <ttyhandle_out+0x1ac>
80012b68:	fdc42783          	lw	a5,-36(s0)
80012b6c:	0587a703          	lw	a4,88(a5)
80012b70:	fdc42783          	lw	a5,-36(s0)
80012b74:	05c7a783          	lw	a5,92(a5)
80012b78:	02f71063          	bne	a4,a5,80012b98 <ttyhandle_out+0x50>
80012b7c:	fdc42783          	lw	a5,-36(s0)
80012b80:	0547a783          	lw	a5,84(a5)
80012b84:	00078513          	mv	a0,a5
80012b88:	d31fa0ef          	jal	8000d8b8 <semcount>
80012b8c:	00050713          	mv	a4,a0
80012b90:	01f00793          	li	a5,31
80012b94:	16e7c463          	blt	a5,a4,80012cfc <ttyhandle_out+0x1b4>
80012b98:	00100793          	li	a5,1
80012b9c:	fef42223          	sw	a5,-28(s0)
80012ba0:	0540006f          	j	80012bf4 <ttyhandle_out+0xac>
80012ba4:	fdc42783          	lw	a5,-36(s0)
80012ba8:	02c7a783          	lw	a5,44(a5)
80012bac:	00178693          	addi	a3,a5,1
80012bb0:	fdc42703          	lw	a4,-36(s0)
80012bb4:	02d72623          	sw	a3,44(a4)
80012bb8:	0007c783          	lbu	a5,0(a5)
80012bbc:	00078513          	mv	a0,a5
80012bc0:	359000ef          	jal	80013718 <kputc>
80012bc4:	fdc42783          	lw	a5,-36(s0)
80012bc8:	0587a703          	lw	a4,88(a5)
80012bcc:	fdc42783          	lw	a5,-36(s0)
80012bd0:	08078793          	addi	a5,a5,128
80012bd4:	00f76a63          	bltu	a4,a5,80012be8 <ttyhandle_out+0xa0>
80012bd8:	fdc42783          	lw	a5,-36(s0)
80012bdc:	06078713          	addi	a4,a5,96
80012be0:	fdc42783          	lw	a5,-36(s0)
80012be4:	04e7ac23          	sw	a4,88(a5)
80012be8:	fe442783          	lw	a5,-28(s0)
80012bec:	fff78793          	addi	a5,a5,-1
80012bf0:	fef42223          	sw	a5,-28(s0)
80012bf4:	fe442783          	lw	a5,-28(s0)
80012bf8:	00f05c63          	blez	a5,80012c10 <ttyhandle_out+0xc8>
80012bfc:	fdc42783          	lw	a5,-36(s0)
80012c00:	0587a703          	lw	a4,88(a5)
80012c04:	fdc42783          	lw	a5,-36(s0)
80012c08:	05c7a783          	lw	a5,92(a5)
80012c0c:	f8f71ce3          	bne	a4,a5,80012ba4 <ttyhandle_out+0x5c>
80012c10:	fe042623          	sw	zero,-20(s0)
80012c14:	fdc42783          	lw	a5,-36(s0)
80012c18:	0547a783          	lw	a5,84(a5)
80012c1c:	00078513          	mv	a0,a5
80012c20:	c99fa0ef          	jal	8000d8b8 <semcount>
80012c24:	00050713          	mv	a4,a0
80012c28:	02000793          	li	a5,32
80012c2c:	40e787b3          	sub	a5,a5,a4
80012c30:	fef42423          	sw	a5,-24(s0)
80012c34:	06c0006f          	j	80012ca0 <ttyhandle_out+0x158>
80012c38:	fdc42783          	lw	a5,-36(s0)
80012c3c:	02c7a783          	lw	a5,44(a5)
80012c40:	00178693          	addi	a3,a5,1
80012c44:	fdc42703          	lw	a4,-36(s0)
80012c48:	02d72623          	sw	a3,44(a4)
80012c4c:	0007c783          	lbu	a5,0(a5)
80012c50:	00078513          	mv	a0,a5
80012c54:	2c5000ef          	jal	80013718 <kputc>
80012c58:	fdc42783          	lw	a5,-36(s0)
80012c5c:	02c7a703          	lw	a4,44(a5)
80012c60:	fdc42783          	lw	a5,-36(s0)
80012c64:	05478793          	addi	a5,a5,84
80012c68:	00f76a63          	bltu	a4,a5,80012c7c <ttyhandle_out+0x134>
80012c6c:	fdc42783          	lw	a5,-36(s0)
80012c70:	03478713          	addi	a4,a5,52
80012c74:	fdc42783          	lw	a5,-36(s0)
80012c78:	02e7a623          	sw	a4,44(a5)
80012c7c:	fe842783          	lw	a5,-24(s0)
80012c80:	fff78793          	addi	a5,a5,-1
80012c84:	fef42423          	sw	a5,-24(s0)
80012c88:	fe442783          	lw	a5,-28(s0)
80012c8c:	fff78793          	addi	a5,a5,-1
80012c90:	fef42223          	sw	a5,-28(s0)
80012c94:	fec42783          	lw	a5,-20(s0)
80012c98:	00178793          	addi	a5,a5,1
80012c9c:	fef42623          	sw	a5,-20(s0)
80012ca0:	fe442783          	lw	a5,-28(s0)
80012ca4:	00f05663          	blez	a5,80012cb0 <ttyhandle_out+0x168>
80012ca8:	fe842783          	lw	a5,-24(s0)
80012cac:	f8f046e3          	bgtz	a5,80012c38 <ttyhandle_out+0xf0>
80012cb0:	fec42783          	lw	a5,-20(s0)
80012cb4:	00f05c63          	blez	a5,80012ccc <ttyhandle_out+0x184>
80012cb8:	fdc42783          	lw	a5,-36(s0)
80012cbc:	0547a783          	lw	a5,84(a5)
80012cc0:	fec42583          	lw	a1,-20(s0)
80012cc4:	00078513          	mv	a0,a5
80012cc8:	bfcfb0ef          	jal	8000e0c4 <signaln>
80012ccc:	fdc42783          	lw	a5,-36(s0)
80012cd0:	0587a703          	lw	a4,88(a5)
80012cd4:	fdc42783          	lw	a5,-36(s0)
80012cd8:	05c7a783          	lw	a5,92(a5)
80012cdc:	02f71463          	bne	a4,a5,80012d04 <ttyhandle_out+0x1bc>
80012ce0:	fdc42783          	lw	a5,-36(s0)
80012ce4:	0547a783          	lw	a5,84(a5)
80012ce8:	00078513          	mv	a0,a5
80012cec:	bcdfa0ef          	jal	8000d8b8 <semcount>
80012cf0:	0140006f          	j	80012d04 <ttyhandle_out+0x1bc>
80012cf4:	00000013          	nop
80012cf8:	0100006f          	j	80012d08 <ttyhandle_out+0x1c0>
80012cfc:	00000013          	nop
80012d00:	0080006f          	j	80012d08 <ttyhandle_out+0x1c0>
80012d04:	00000013          	nop
80012d08:	02c12083          	lw	ra,44(sp)
80012d0c:	02812403          	lw	s0,40(sp)
80012d10:	03010113          	addi	sp,sp,48
80012d14:	00008067          	ret

80012d18 <context_irq_enable>:
80012d18:	fe010113          	addi	sp,sp,-32
80012d1c:	00812e23          	sw	s0,28(sp)
80012d20:	02010413          	addi	s0,sp,32
80012d24:	fea42623          	sw	a0,-20(s0)
80012d28:	feb42423          	sw	a1,-24(s0)
80012d2c:	fec42783          	lw	a5,-20(s0)
80012d30:	0047a783          	lw	a5,4(a5)
80012d34:	f7f7f713          	andi	a4,a5,-129
80012d38:	fec42783          	lw	a5,-20(s0)
80012d3c:	00e7a223          	sw	a4,4(a5)
80012d40:	fec42783          	lw	a5,-20(s0)
80012d44:	0047a703          	lw	a4,4(a5)
80012d48:	fe842783          	lw	a5,-24(s0)
80012d4c:	00078663          	beqz	a5,80012d58 <context_irq_enable+0x40>
80012d50:	08000793          	li	a5,128
80012d54:	0080006f          	j	80012d5c <context_irq_enable+0x44>
80012d58:	00000793          	li	a5,0
80012d5c:	00e7e733          	or	a4,a5,a4
80012d60:	fec42783          	lw	a5,-20(s0)
80012d64:	00e7a223          	sw	a4,4(a5)
80012d68:	00000013          	nop
80012d6c:	01c12403          	lw	s0,28(sp)
80012d70:	02010113          	addi	sp,sp,32
80012d74:	00008067          	ret

80012d78 <timer_diff>:
80012d78:	fe010113          	addi	sp,sp,-32
80012d7c:	00812e23          	sw	s0,28(sp)
80012d80:	02010413          	addi	s0,sp,32
80012d84:	fea42623          	sw	a0,-20(s0)
80012d88:	feb42423          	sw	a1,-24(s0)
80012d8c:	fec42703          	lw	a4,-20(s0)
80012d90:	fe842783          	lw	a5,-24(s0)
80012d94:	40f707b3          	sub	a5,a4,a5
80012d98:	00078513          	mv	a0,a5
80012d9c:	01c12403          	lw	s0,28(sp)
80012da0:	02010113          	addi	sp,sp,32
80012da4:	00008067          	ret

80012da8 <ttyhandler>:
80012da8:	fd010113          	addi	sp,sp,-48
80012dac:	02112623          	sw	ra,44(sp)
80012db0:	02812423          	sw	s0,40(sp)
80012db4:	03010413          	addi	s0,sp,48
80012db8:	fca42e23          	sw	a0,-36(s0)
80012dbc:	00058793          	mv	a5,a1
80012dc0:	fcc42a23          	sw	a2,-44(s0)
80012dc4:	fcf40da3          	sb	a5,-37(s0)
80012dc8:	800177b7          	lui	a5,0x80017
80012dcc:	8f078793          	addi	a5,a5,-1808 # 800168f0 <devtab>
80012dd0:	fef42623          	sw	a5,-20(s0)
80012dd4:	fec42783          	lw	a5,-20(s0)
80012dd8:	0047a703          	lw	a4,4(a5)
80012ddc:	09c00793          	li	a5,156
80012de0:	02f70733          	mul	a4,a4,a5
80012de4:	800177b7          	lui	a5,0x80017
80012de8:	12878793          	addi	a5,a5,296 # 80017128 <ttytab>
80012dec:	00f707b3          	add	a5,a4,a5
80012df0:	fef42423          	sw	a5,-24(s0)
80012df4:	fd442783          	lw	a5,-44(s0)
80012df8:	00078863          	beqz	a5,80012e08 <ttyhandler+0x60>
80012dfc:	fe842503          	lw	a0,-24(s0)
80012e00:	d49ff0ef          	jal	80012b48 <ttyhandle_out>
80012e04:	0140006f          	j	80012e18 <ttyhandler+0x70>
80012e08:	fdb44783          	lbu	a5,-37(s0)
80012e0c:	00078593          	mv	a1,a5
80012e10:	fe842503          	lw	a0,-24(s0)
80012e14:	df8ff0ef          	jal	8001240c <ttyhandle_in>
80012e18:	00000013          	nop
80012e1c:	02c12083          	lw	ra,44(sp)
80012e20:	02812403          	lw	s0,40(sp)
80012e24:	03010113          	addi	sp,sp,48
80012e28:	00008067          	ret

80012e2c <context_irq_enable>:
80012e2c:	fe010113          	addi	sp,sp,-32
80012e30:	00812e23          	sw	s0,28(sp)
80012e34:	02010413          	addi	s0,sp,32
80012e38:	fea42623          	sw	a0,-20(s0)
80012e3c:	feb42423          	sw	a1,-24(s0)
80012e40:	fec42783          	lw	a5,-20(s0)
80012e44:	0047a783          	lw	a5,4(a5)
80012e48:	f7f7f713          	andi	a4,a5,-129
80012e4c:	fec42783          	lw	a5,-20(s0)
80012e50:	00e7a223          	sw	a4,4(a5)
80012e54:	fec42783          	lw	a5,-20(s0)
80012e58:	0047a703          	lw	a4,4(a5)
80012e5c:	fe842783          	lw	a5,-24(s0)
80012e60:	00078663          	beqz	a5,80012e6c <context_irq_enable+0x40>
80012e64:	08000793          	li	a5,128
80012e68:	0080006f          	j	80012e70 <context_irq_enable+0x44>
80012e6c:	00000793          	li	a5,0
80012e70:	00e7e733          	or	a4,a5,a4
80012e74:	fec42783          	lw	a5,-20(s0)
80012e78:	00e7a223          	sw	a4,4(a5)
80012e7c:	00000013          	nop
80012e80:	01c12403          	lw	s0,28(sp)
80012e84:	02010113          	addi	sp,sp,32
80012e88:	00008067          	ret

80012e8c <timer_diff>:
80012e8c:	fe010113          	addi	sp,sp,-32
80012e90:	00812e23          	sw	s0,28(sp)
80012e94:	02010413          	addi	s0,sp,32
80012e98:	fea42623          	sw	a0,-20(s0)
80012e9c:	feb42423          	sw	a1,-24(s0)
80012ea0:	fec42703          	lw	a4,-20(s0)
80012ea4:	fe842783          	lw	a5,-24(s0)
80012ea8:	40f707b3          	sub	a5,a4,a5
80012eac:	00078513          	mv	a0,a5
80012eb0:	01c12403          	lw	s0,28(sp)
80012eb4:	02010113          	addi	sp,sp,32
80012eb8:	00008067          	ret

80012ebc <ttyinit>:
80012ebc:	fd010113          	addi	sp,sp,-48
80012ec0:	02112623          	sw	ra,44(sp)
80012ec4:	02812423          	sw	s0,40(sp)
80012ec8:	03010413          	addi	s0,sp,48
80012ecc:	fca42e23          	sw	a0,-36(s0)
80012ed0:	fdc42783          	lw	a5,-36(s0)
80012ed4:	0047a703          	lw	a4,4(a5)
80012ed8:	09c00793          	li	a5,156
80012edc:	02f70733          	mul	a4,a4,a5
80012ee0:	800177b7          	lui	a5,0x80017
80012ee4:	12878793          	addi	a5,a5,296 # 80017128 <ttytab>
80012ee8:	00f707b3          	add	a5,a4,a5
80012eec:	fef42623          	sw	a5,-20(s0)
80012ef0:	fec42783          	lw	a5,-20(s0)
80012ef4:	00878713          	addi	a4,a5,8
80012ef8:	fec42783          	lw	a5,-20(s0)
80012efc:	00e7a223          	sw	a4,4(a5)
80012f00:	fec42783          	lw	a5,-20(s0)
80012f04:	0047a703          	lw	a4,4(a5)
80012f08:	fec42783          	lw	a5,-20(s0)
80012f0c:	00e7a023          	sw	a4,0(a5)
80012f10:	00000513          	li	a0,0
80012f14:	84dfa0ef          	jal	8000d760 <semcreate>
80012f18:	00050713          	mv	a4,a0
80012f1c:	fec42783          	lw	a5,-20(s0)
80012f20:	02e7a423          	sw	a4,40(a5)
80012f24:	fec42783          	lw	a5,-20(s0)
80012f28:	03478713          	addi	a4,a5,52
80012f2c:	fec42783          	lw	a5,-20(s0)
80012f30:	02e7a823          	sw	a4,48(a5)
80012f34:	fec42783          	lw	a5,-20(s0)
80012f38:	0307a703          	lw	a4,48(a5)
80012f3c:	fec42783          	lw	a5,-20(s0)
80012f40:	02e7a623          	sw	a4,44(a5)
80012f44:	02000513          	li	a0,32
80012f48:	819fa0ef          	jal	8000d760 <semcreate>
80012f4c:	00050713          	mv	a4,a0
80012f50:	fec42783          	lw	a5,-20(s0)
80012f54:	04e7aa23          	sw	a4,84(a5)
80012f58:	fec42783          	lw	a5,-20(s0)
80012f5c:	06078713          	addi	a4,a5,96
80012f60:	fec42783          	lw	a5,-20(s0)
80012f64:	04e7ae23          	sw	a4,92(a5)
80012f68:	fec42783          	lw	a5,-20(s0)
80012f6c:	05c7a703          	lw	a4,92(a5)
80012f70:	fec42783          	lw	a5,-20(s0)
80012f74:	04e7ac23          	sw	a4,88(a5)
80012f78:	fec42783          	lw	a5,-20(s0)
80012f7c:	04300713          	li	a4,67
80012f80:	08e78023          	sb	a4,128(a5)
80012f84:	fec42783          	lw	a5,-20(s0)
80012f88:	00100713          	li	a4,1
80012f8c:	08e780a3          	sb	a4,129(a5)
80012f90:	fec42783          	lw	a5,-20(s0)
80012f94:	00100713          	li	a4,1
80012f98:	08e78123          	sb	a4,130(a5)
80012f9c:	fec42783          	lw	a5,-20(s0)
80012fa0:	00100713          	li	a4,1
80012fa4:	08e781a3          	sb	a4,131(a5)
80012fa8:	fec42783          	lw	a5,-20(s0)
80012fac:	00100713          	li	a4,1
80012fb0:	08e78223          	sb	a4,132(a5)
80012fb4:	fec42783          	lw	a5,-20(s0)
80012fb8:	00100713          	li	a4,1
80012fbc:	08e782a3          	sb	a4,133(a5)
80012fc0:	fec42783          	lw	a5,-20(s0)
80012fc4:	00100713          	li	a4,1
80012fc8:	08e78323          	sb	a4,134(a5)
80012fcc:	fec42783          	lw	a5,-20(s0)
80012fd0:	00800713          	li	a4,8
80012fd4:	08e783a3          	sb	a4,135(a5)
80012fd8:	fec42783          	lw	a5,-20(s0)
80012fdc:	07f00713          	li	a4,127
80012fe0:	08e78423          	sb	a4,136(a5)
80012fe4:	fec42783          	lw	a5,-20(s0)
80012fe8:	00100713          	li	a4,1
80012fec:	08e784a3          	sb	a4,137(a5)
80012ff0:	fec42783          	lw	a5,-20(s0)
80012ff4:	00400713          	li	a4,4
80012ff8:	08e78523          	sb	a4,138(a5)
80012ffc:	fec42783          	lw	a5,-20(s0)
80013000:	00100713          	li	a4,1
80013004:	08e785a3          	sb	a4,139(a5)
80013008:	fec42783          	lw	a5,-20(s0)
8001300c:	01500713          	li	a4,21
80013010:	08e78623          	sb	a4,140(a5)
80013014:	fec42783          	lw	a5,-20(s0)
80013018:	0807a823          	sw	zero,144(a5)
8001301c:	fec42783          	lw	a5,-20(s0)
80013020:	00100713          	li	a4,1
80013024:	08e78a23          	sb	a4,148(a5)
80013028:	fec42783          	lw	a5,-20(s0)
8001302c:	08078aa3          	sb	zero,149(a5)
80013030:	fec42783          	lw	a5,-20(s0)
80013034:	01300713          	li	a4,19
80013038:	08e78b23          	sb	a4,150(a5)
8001303c:	fec42783          	lw	a5,-20(s0)
80013040:	01100713          	li	a4,17
80013044:	08e78ba3          	sb	a4,151(a5)
80013048:	fec42783          	lw	a5,-20(s0)
8001304c:	00100713          	li	a4,1
80013050:	08e78c23          	sb	a4,152(a5)
80013054:	fec42783          	lw	a5,-20(s0)
80013058:	00700713          	li	a4,7
8001305c:	08e78ca3          	sb	a4,153(a5)
80013060:	00100793          	li	a5,1
80013064:	00078513          	mv	a0,a5
80013068:	02c12083          	lw	ra,44(sp)
8001306c:	02812403          	lw	s0,40(sp)
80013070:	03010113          	addi	sp,sp,48
80013074:	00008067          	ret

80013078 <context_irq_enable>:
80013078:	fe010113          	addi	sp,sp,-32
8001307c:	00812e23          	sw	s0,28(sp)
80013080:	02010413          	addi	s0,sp,32
80013084:	fea42623          	sw	a0,-20(s0)
80013088:	feb42423          	sw	a1,-24(s0)
8001308c:	fec42783          	lw	a5,-20(s0)
80013090:	0047a783          	lw	a5,4(a5)
80013094:	f7f7f713          	andi	a4,a5,-129
80013098:	fec42783          	lw	a5,-20(s0)
8001309c:	00e7a223          	sw	a4,4(a5)
800130a0:	fec42783          	lw	a5,-20(s0)
800130a4:	0047a703          	lw	a4,4(a5)
800130a8:	fe842783          	lw	a5,-24(s0)
800130ac:	00078663          	beqz	a5,800130b8 <context_irq_enable+0x40>
800130b0:	08000793          	li	a5,128
800130b4:	0080006f          	j	800130bc <context_irq_enable+0x44>
800130b8:	00000793          	li	a5,0
800130bc:	00e7e733          	or	a4,a5,a4
800130c0:	fec42783          	lw	a5,-20(s0)
800130c4:	00e7a223          	sw	a4,4(a5)
800130c8:	00000013          	nop
800130cc:	01c12403          	lw	s0,28(sp)
800130d0:	02010113          	addi	sp,sp,32
800130d4:	00008067          	ret

800130d8 <timer_diff>:
800130d8:	fe010113          	addi	sp,sp,-32
800130dc:	00812e23          	sw	s0,28(sp)
800130e0:	02010413          	addi	s0,sp,32
800130e4:	fea42623          	sw	a0,-20(s0)
800130e8:	feb42423          	sw	a1,-24(s0)
800130ec:	fec42703          	lw	a4,-20(s0)
800130f0:	fe842783          	lw	a5,-24(s0)
800130f4:	40f707b3          	sub	a5,a4,a5
800130f8:	00078513          	mv	a0,a5
800130fc:	01c12403          	lw	s0,28(sp)
80013100:	02010113          	addi	sp,sp,32
80013104:	00008067          	ret

80013108 <ttykickout>:
80013108:	ff010113          	addi	sp,sp,-16
8001310c:	00112623          	sw	ra,12(sp)
80013110:	00812423          	sw	s0,8(sp)
80013114:	01010413          	addi	s0,sp,16
80013118:	974ed0ef          	jal	8000028c <disable>
8001311c:	00100613          	li	a2,1
80013120:	05800593          	li	a1,88
80013124:	00100513          	li	a0,1
80013128:	c81ff0ef          	jal	80012da8 <ttyhandler>
8001312c:	958ed0ef          	jal	80000284 <enable>
80013130:	00000013          	nop
80013134:	00c12083          	lw	ra,12(sp)
80013138:	00812403          	lw	s0,8(sp)
8001313c:	01010113          	addi	sp,sp,16
80013140:	00008067          	ret

80013144 <context_irq_enable>:
80013144:	fe010113          	addi	sp,sp,-32
80013148:	00812e23          	sw	s0,28(sp)
8001314c:	02010413          	addi	s0,sp,32
80013150:	fea42623          	sw	a0,-20(s0)
80013154:	feb42423          	sw	a1,-24(s0)
80013158:	fec42783          	lw	a5,-20(s0)
8001315c:	0047a783          	lw	a5,4(a5)
80013160:	f7f7f713          	andi	a4,a5,-129
80013164:	fec42783          	lw	a5,-20(s0)
80013168:	00e7a223          	sw	a4,4(a5)
8001316c:	fec42783          	lw	a5,-20(s0)
80013170:	0047a703          	lw	a4,4(a5)
80013174:	fe842783          	lw	a5,-24(s0)
80013178:	00078663          	beqz	a5,80013184 <context_irq_enable+0x40>
8001317c:	08000793          	li	a5,128
80013180:	0080006f          	j	80013188 <context_irq_enable+0x44>
80013184:	00000793          	li	a5,0
80013188:	00e7e733          	or	a4,a5,a4
8001318c:	fec42783          	lw	a5,-20(s0)
80013190:	00e7a223          	sw	a4,4(a5)
80013194:	00000013          	nop
80013198:	01c12403          	lw	s0,28(sp)
8001319c:	02010113          	addi	sp,sp,32
800131a0:	00008067          	ret

800131a4 <timer_diff>:
800131a4:	fe010113          	addi	sp,sp,-32
800131a8:	00812e23          	sw	s0,28(sp)
800131ac:	02010413          	addi	s0,sp,32
800131b0:	fea42623          	sw	a0,-20(s0)
800131b4:	feb42423          	sw	a1,-24(s0)
800131b8:	fec42703          	lw	a4,-20(s0)
800131bc:	fe842783          	lw	a5,-24(s0)
800131c0:	40f707b3          	sub	a5,a4,a5
800131c4:	00078513          	mv	a0,a5
800131c8:	01c12403          	lw	s0,28(sp)
800131cc:	02010113          	addi	sp,sp,32
800131d0:	00008067          	ret

800131d4 <ttyputc>:
800131d4:	fd010113          	addi	sp,sp,-48
800131d8:	02112623          	sw	ra,44(sp)
800131dc:	02812423          	sw	s0,40(sp)
800131e0:	03010413          	addi	s0,sp,48
800131e4:	fca42e23          	sw	a0,-36(s0)
800131e8:	00058793          	mv	a5,a1
800131ec:	fcf40da3          	sb	a5,-37(s0)
800131f0:	fdc42783          	lw	a5,-36(s0)
800131f4:	0047a703          	lw	a4,4(a5)
800131f8:	09c00793          	li	a5,156
800131fc:	02f70733          	mul	a4,a4,a5
80013200:	800177b7          	lui	a5,0x80017
80013204:	12878793          	addi	a5,a5,296 # 80017128 <ttytab>
80013208:	00f707b3          	add	a5,a4,a5
8001320c:	fef42623          	sw	a5,-20(s0)
80013210:	fdb44703          	lbu	a4,-37(s0)
80013214:	00a00793          	li	a5,10
80013218:	00f71e63          	bne	a4,a5,80013234 <ttyputc+0x60>
8001321c:	fec42783          	lw	a5,-20(s0)
80013220:	0987c783          	lbu	a5,152(a5)
80013224:	00078863          	beqz	a5,80013234 <ttyputc+0x60>
80013228:	00d00593          	li	a1,13
8001322c:	fdc42503          	lw	a0,-36(s0)
80013230:	fa5ff0ef          	jal	800131d4 <ttyputc>
80013234:	fec42783          	lw	a5,-20(s0)
80013238:	0547a783          	lw	a5,84(a5)
8001323c:	00078513          	mv	a0,a5
80013240:	ab8f80ef          	jal	8000b4f8 <wait>
80013244:	fec42783          	lw	a5,-20(s0)
80013248:	0307a783          	lw	a5,48(a5)
8001324c:	00178693          	addi	a3,a5,1
80013250:	fec42703          	lw	a4,-20(s0)
80013254:	02d72823          	sw	a3,48(a4)
80013258:	fdb44703          	lbu	a4,-37(s0)
8001325c:	00e78023          	sb	a4,0(a5)
80013260:	fec42783          	lw	a5,-20(s0)
80013264:	0307a703          	lw	a4,48(a5)
80013268:	fec42783          	lw	a5,-20(s0)
8001326c:	05478793          	addi	a5,a5,84
80013270:	00f76a63          	bltu	a4,a5,80013284 <ttyputc+0xb0>
80013274:	fec42783          	lw	a5,-20(s0)
80013278:	03478713          	addi	a4,a5,52
8001327c:	fec42783          	lw	a5,-20(s0)
80013280:	02e7a823          	sw	a4,48(a5)
80013284:	e85ff0ef          	jal	80013108 <ttykickout>
80013288:	00100793          	li	a5,1
8001328c:	00078513          	mv	a0,a5
80013290:	02c12083          	lw	ra,44(sp)
80013294:	02812403          	lw	s0,40(sp)
80013298:	03010113          	addi	sp,sp,48
8001329c:	00008067          	ret

800132a0 <context_irq_enable>:
800132a0:	fe010113          	addi	sp,sp,-32
800132a4:	00812e23          	sw	s0,28(sp)
800132a8:	02010413          	addi	s0,sp,32
800132ac:	fea42623          	sw	a0,-20(s0)
800132b0:	feb42423          	sw	a1,-24(s0)
800132b4:	fec42783          	lw	a5,-20(s0)
800132b8:	0047a783          	lw	a5,4(a5)
800132bc:	f7f7f713          	andi	a4,a5,-129
800132c0:	fec42783          	lw	a5,-20(s0)
800132c4:	00e7a223          	sw	a4,4(a5)
800132c8:	fec42783          	lw	a5,-20(s0)
800132cc:	0047a703          	lw	a4,4(a5)
800132d0:	fe842783          	lw	a5,-24(s0)
800132d4:	00078663          	beqz	a5,800132e0 <context_irq_enable+0x40>
800132d8:	08000793          	li	a5,128
800132dc:	0080006f          	j	800132e4 <context_irq_enable+0x44>
800132e0:	00000793          	li	a5,0
800132e4:	00e7e733          	or	a4,a5,a4
800132e8:	fec42783          	lw	a5,-20(s0)
800132ec:	00e7a223          	sw	a4,4(a5)
800132f0:	00000013          	nop
800132f4:	01c12403          	lw	s0,28(sp)
800132f8:	02010113          	addi	sp,sp,32
800132fc:	00008067          	ret

80013300 <timer_diff>:
80013300:	fe010113          	addi	sp,sp,-32
80013304:	00812e23          	sw	s0,28(sp)
80013308:	02010413          	addi	s0,sp,32
8001330c:	fea42623          	sw	a0,-20(s0)
80013310:	feb42423          	sw	a1,-24(s0)
80013314:	fec42703          	lw	a4,-20(s0)
80013318:	fe842783          	lw	a5,-24(s0)
8001331c:	40f707b3          	sub	a5,a4,a5
80013320:	00078513          	mv	a0,a5
80013324:	01c12403          	lw	s0,28(sp)
80013328:	02010113          	addi	sp,sp,32
8001332c:	00008067          	ret

80013330 <ttyread>:
80013330:	fc010113          	addi	sp,sp,-64
80013334:	02112e23          	sw	ra,60(sp)
80013338:	02812c23          	sw	s0,56(sp)
8001333c:	04010413          	addi	s0,sp,64
80013340:	fca42623          	sw	a0,-52(s0)
80013344:	fcb42423          	sw	a1,-56(s0)
80013348:	fcc42223          	sw	a2,-60(s0)
8001334c:	fc442783          	lw	a5,-60(s0)
80013350:	0007d663          	bgez	a5,8001335c <ttyread+0x2c>
80013354:	fff00793          	li	a5,-1
80013358:	1500006f          	j	800134a8 <ttyread+0x178>
8001335c:	fcc42783          	lw	a5,-52(s0)
80013360:	0047a703          	lw	a4,4(a5)
80013364:	09c00793          	li	a5,156
80013368:	02f70733          	mul	a4,a4,a5
8001336c:	800177b7          	lui	a5,0x80017
80013370:	12878793          	addi	a5,a5,296 # 80017128 <ttytab>
80013374:	00f707b3          	add	a5,a4,a5
80013378:	fef42223          	sw	a5,-28(s0)
8001337c:	fe442783          	lw	a5,-28(s0)
80013380:	0807c703          	lbu	a4,128(a5)
80013384:	04300793          	li	a5,67
80013388:	08f70063          	beq	a4,a5,80013408 <ttyread+0xd8>
8001338c:	fc442783          	lw	a5,-60(s0)
80013390:	02079863          	bnez	a5,800133c0 <ttyread+0x90>
80013394:	fe442783          	lw	a5,-28(s0)
80013398:	0287a783          	lw	a5,40(a5)
8001339c:	00078513          	mv	a0,a5
800133a0:	d18fa0ef          	jal	8000d8b8 <semcount>
800133a4:	fca42e23          	sw	a0,-36(s0)
800133a8:	fdc42783          	lw	a5,-36(s0)
800133ac:	00079663          	bnez	a5,800133b8 <ttyread+0x88>
800133b0:	00000793          	li	a5,0
800133b4:	0f40006f          	j	800134a8 <ttyread+0x178>
800133b8:	fdc42783          	lw	a5,-36(s0)
800133bc:	fcf42223          	sw	a5,-60(s0)
800133c0:	fe042623          	sw	zero,-20(s0)
800133c4:	0300006f          	j	800133f4 <ttyread+0xc4>
800133c8:	fcc42503          	lw	a0,-52(s0)
800133cc:	ee1fe0ef          	jal	800122ac <ttygetc>
800133d0:	00050693          	mv	a3,a0
800133d4:	fc842783          	lw	a5,-56(s0)
800133d8:	00178713          	addi	a4,a5,1
800133dc:	fce42423          	sw	a4,-56(s0)
800133e0:	0ff6f713          	zext.b	a4,a3
800133e4:	00e78023          	sb	a4,0(a5)
800133e8:	fec42783          	lw	a5,-20(s0)
800133ec:	00178793          	addi	a5,a5,1
800133f0:	fef42623          	sw	a5,-20(s0)
800133f4:	fec42703          	lw	a4,-20(s0)
800133f8:	fc442783          	lw	a5,-60(s0)
800133fc:	fcf746e3          	blt	a4,a5,800133c8 <ttyread+0x98>
80013400:	fec42783          	lw	a5,-20(s0)
80013404:	0a40006f          	j	800134a8 <ttyread+0x178>
80013408:	fcc42503          	lw	a0,-52(s0)
8001340c:	ea1fe0ef          	jal	800122ac <ttygetc>
80013410:	fea42023          	sw	a0,-32(s0)
80013414:	fe042703          	lw	a4,-32(s0)
80013418:	ffe00793          	li	a5,-2
8001341c:	00f71663          	bne	a4,a5,80013428 <ttyread+0xf8>
80013420:	ffe00793          	li	a5,-2
80013424:	0840006f          	j	800134a8 <ttyread+0x178>
80013428:	fe042783          	lw	a5,-32(s0)
8001342c:	fef405a3          	sb	a5,-21(s0)
80013430:	fc842783          	lw	a5,-56(s0)
80013434:	00178713          	addi	a4,a5,1
80013438:	fce42423          	sw	a4,-56(s0)
8001343c:	feb44703          	lbu	a4,-21(s0)
80013440:	00e78023          	sb	a4,0(a5)
80013444:	00100793          	li	a5,1
80013448:	fef42623          	sw	a5,-20(s0)
8001344c:	0340006f          	j	80013480 <ttyread+0x150>
80013450:	fcc42503          	lw	a0,-52(s0)
80013454:	e59fe0ef          	jal	800122ac <ttygetc>
80013458:	00050793          	mv	a5,a0
8001345c:	fef405a3          	sb	a5,-21(s0)
80013460:	fc842783          	lw	a5,-56(s0)
80013464:	00178713          	addi	a4,a5,1
80013468:	fce42423          	sw	a4,-56(s0)
8001346c:	feb44703          	lbu	a4,-21(s0)
80013470:	00e78023          	sb	a4,0(a5)
80013474:	fec42783          	lw	a5,-20(s0)
80013478:	00178793          	addi	a5,a5,1
8001347c:	fef42623          	sw	a5,-20(s0)
80013480:	fec42703          	lw	a4,-20(s0)
80013484:	fc442783          	lw	a5,-60(s0)
80013488:	00f75e63          	bge	a4,a5,800134a4 <ttyread+0x174>
8001348c:	feb44703          	lbu	a4,-21(s0)
80013490:	00a00793          	li	a5,10
80013494:	00f70863          	beq	a4,a5,800134a4 <ttyread+0x174>
80013498:	feb44703          	lbu	a4,-21(s0)
8001349c:	00d00793          	li	a5,13
800134a0:	faf718e3          	bne	a4,a5,80013450 <ttyread+0x120>
800134a4:	fec42783          	lw	a5,-20(s0)
800134a8:	00078513          	mv	a0,a5
800134ac:	03c12083          	lw	ra,60(sp)
800134b0:	03812403          	lw	s0,56(sp)
800134b4:	04010113          	addi	sp,sp,64
800134b8:	00008067          	ret

800134bc <context_irq_enable>:
800134bc:	fe010113          	addi	sp,sp,-32
800134c0:	00812e23          	sw	s0,28(sp)
800134c4:	02010413          	addi	s0,sp,32
800134c8:	fea42623          	sw	a0,-20(s0)
800134cc:	feb42423          	sw	a1,-24(s0)
800134d0:	fec42783          	lw	a5,-20(s0)
800134d4:	0047a783          	lw	a5,4(a5)
800134d8:	f7f7f713          	andi	a4,a5,-129
800134dc:	fec42783          	lw	a5,-20(s0)
800134e0:	00e7a223          	sw	a4,4(a5)
800134e4:	fec42783          	lw	a5,-20(s0)
800134e8:	0047a703          	lw	a4,4(a5)
800134ec:	fe842783          	lw	a5,-24(s0)
800134f0:	00078663          	beqz	a5,800134fc <context_irq_enable+0x40>
800134f4:	08000793          	li	a5,128
800134f8:	0080006f          	j	80013500 <context_irq_enable+0x44>
800134fc:	00000793          	li	a5,0
80013500:	00e7e733          	or	a4,a5,a4
80013504:	fec42783          	lw	a5,-20(s0)
80013508:	00e7a223          	sw	a4,4(a5)
8001350c:	00000013          	nop
80013510:	01c12403          	lw	s0,28(sp)
80013514:	02010113          	addi	sp,sp,32
80013518:	00008067          	ret

8001351c <timer_diff>:
8001351c:	fe010113          	addi	sp,sp,-32
80013520:	00812e23          	sw	s0,28(sp)
80013524:	02010413          	addi	s0,sp,32
80013528:	fea42623          	sw	a0,-20(s0)
8001352c:	feb42423          	sw	a1,-24(s0)
80013530:	fec42703          	lw	a4,-20(s0)
80013534:	fe842783          	lw	a5,-24(s0)
80013538:	40f707b3          	sub	a5,a4,a5
8001353c:	00078513          	mv	a0,a5
80013540:	01c12403          	lw	s0,28(sp)
80013544:	02010113          	addi	sp,sp,32
80013548:	00008067          	ret

8001354c <ttywrite>:
8001354c:	fe010113          	addi	sp,sp,-32
80013550:	00112e23          	sw	ra,28(sp)
80013554:	00812c23          	sw	s0,24(sp)
80013558:	02010413          	addi	s0,sp,32
8001355c:	fea42623          	sw	a0,-20(s0)
80013560:	feb42423          	sw	a1,-24(s0)
80013564:	fec42223          	sw	a2,-28(s0)
80013568:	fe442783          	lw	a5,-28(s0)
8001356c:	0007d663          	bgez	a5,80013578 <ttywrite+0x2c>
80013570:	fff00793          	li	a5,-1
80013574:	0480006f          	j	800135bc <ttywrite+0x70>
80013578:	fe442783          	lw	a5,-28(s0)
8001357c:	02079a63          	bnez	a5,800135b0 <ttywrite+0x64>
80013580:	00100793          	li	a5,1
80013584:	0380006f          	j	800135bc <ttywrite+0x70>
80013588:	fe842783          	lw	a5,-24(s0)
8001358c:	00178713          	addi	a4,a5,1
80013590:	fee42423          	sw	a4,-24(s0)
80013594:	0007c783          	lbu	a5,0(a5)
80013598:	00078593          	mv	a1,a5
8001359c:	fec42503          	lw	a0,-20(s0)
800135a0:	c35ff0ef          	jal	800131d4 <ttyputc>
800135a4:	fe442783          	lw	a5,-28(s0)
800135a8:	fff78793          	addi	a5,a5,-1
800135ac:	fef42223          	sw	a5,-28(s0)
800135b0:	fe442783          	lw	a5,-28(s0)
800135b4:	fcf04ae3          	bgtz	a5,80013588 <ttywrite+0x3c>
800135b8:	00100793          	li	a5,1
800135bc:	00078513          	mv	a0,a5
800135c0:	01c12083          	lw	ra,28(sp)
800135c4:	01812403          	lw	s0,24(sp)
800135c8:	02010113          	addi	sp,sp,32
800135cc:	00008067          	ret

800135d0 <context_irq_enable>:
800135d0:	fe010113          	addi	sp,sp,-32
800135d4:	00812e23          	sw	s0,28(sp)
800135d8:	02010413          	addi	s0,sp,32
800135dc:	fea42623          	sw	a0,-20(s0)
800135e0:	feb42423          	sw	a1,-24(s0)
800135e4:	fec42783          	lw	a5,-20(s0)
800135e8:	0047a783          	lw	a5,4(a5)
800135ec:	f7f7f713          	andi	a4,a5,-129
800135f0:	fec42783          	lw	a5,-20(s0)
800135f4:	00e7a223          	sw	a4,4(a5)
800135f8:	fec42783          	lw	a5,-20(s0)
800135fc:	0047a703          	lw	a4,4(a5)
80013600:	fe842783          	lw	a5,-24(s0)
80013604:	00078663          	beqz	a5,80013610 <context_irq_enable+0x40>
80013608:	08000793          	li	a5,128
8001360c:	0080006f          	j	80013614 <context_irq_enable+0x44>
80013610:	00000793          	li	a5,0
80013614:	00e7e733          	or	a4,a5,a4
80013618:	fec42783          	lw	a5,-20(s0)
8001361c:	00e7a223          	sw	a4,4(a5)
80013620:	00000013          	nop
80013624:	01c12403          	lw	s0,28(sp)
80013628:	02010113          	addi	sp,sp,32
8001362c:	00008067          	ret

80013630 <timer_diff>:
80013630:	fe010113          	addi	sp,sp,-32
80013634:	00812e23          	sw	s0,28(sp)
80013638:	02010413          	addi	s0,sp,32
8001363c:	fea42623          	sw	a0,-20(s0)
80013640:	feb42423          	sw	a1,-24(s0)
80013644:	fec42703          	lw	a4,-20(s0)
80013648:	fe842783          	lw	a5,-24(s0)
8001364c:	40f707b3          	sub	a5,a4,a5
80013650:	00078513          	mv	a0,a5
80013654:	01c12403          	lw	s0,28(sp)
80013658:	02010113          	addi	sp,sp,32
8001365c:	00008067          	ret

80013660 <console_init>:
80013660:	ff010113          	addi	sp,sp,-16
80013664:	00812623          	sw	s0,12(sp)
80013668:	01010413          	addi	s0,sp,16
8001366c:	00000013          	nop
80013670:	00c12403          	lw	s0,12(sp)
80013674:	01010113          	addi	sp,sp,16
80013678:	00008067          	ret

8001367c <console_putchar>:
8001367c:	fe010113          	addi	sp,sp,-32
80013680:	00812e23          	sw	s0,28(sp)
80013684:	02010413          	addi	s0,sp,32
80013688:	fea42623          	sw	a0,-20(s0)
8001368c:	fec42783          	lw	a5,-20(s0)
80013690:	40279073          	csrw	0x402,a5
80013694:	00000013          	nop
80013698:	01c12403          	lw	s0,28(sp)
8001369c:	02010113          	addi	sp,sp,32
800136a0:	00008067          	ret

800136a4 <console_getchar>:
800136a4:	ff010113          	addi	sp,sp,-16
800136a8:	00812623          	sw	s0,12(sp)
800136ac:	01010413          	addi	s0,sp,16
800136b0:	fff00793          	li	a5,-1
800136b4:	00078513          	mv	a0,a5
800136b8:	00c12403          	lw	s0,12(sp)
800136bc:	01010113          	addi	sp,sp,16
800136c0:	00008067          	ret

800136c4 <console_putstr>:
800136c4:	fe010113          	addi	sp,sp,-32
800136c8:	00112e23          	sw	ra,28(sp)
800136cc:	00812c23          	sw	s0,24(sp)
800136d0:	02010413          	addi	s0,sp,32
800136d4:	fea42623          	sw	a0,-20(s0)
800136d8:	01c0006f          	j	800136f4 <console_putstr+0x30>
800136dc:	fec42783          	lw	a5,-20(s0)
800136e0:	00178713          	addi	a4,a5,1
800136e4:	fee42623          	sw	a4,-20(s0)
800136e8:	0007c783          	lbu	a5,0(a5)
800136ec:	00078513          	mv	a0,a5
800136f0:	f8dff0ef          	jal	8001367c <console_putchar>
800136f4:	fec42783          	lw	a5,-20(s0)
800136f8:	0007c783          	lbu	a5,0(a5)
800136fc:	fe0790e3          	bnez	a5,800136dc <console_putstr+0x18>
80013700:	00000013          	nop
80013704:	00000013          	nop
80013708:	01c12083          	lw	ra,28(sp)
8001370c:	01812403          	lw	s0,24(sp)
80013710:	02010113          	addi	sp,sp,32
80013714:	00008067          	ret

80013718 <kputc>:
80013718:	fe010113          	addi	sp,sp,-32
8001371c:	00812e23          	sw	s0,28(sp)
80013720:	02010413          	addi	s0,sp,32
80013724:	fea42623          	sw	a0,-20(s0)
80013728:	fec42783          	lw	a5,-20(s0)
8001372c:	40279073          	csrw	0x402,a5
80013730:	00000793          	li	a5,0
80013734:	00078513          	mv	a0,a5
80013738:	01c12403          	lw	s0,28(sp)
8001373c:	02010113          	addi	sp,sp,32
80013740:	00008067          	ret

80013744 <kprintf>:
80013744:	fb010113          	addi	sp,sp,-80
80013748:	02112623          	sw	ra,44(sp)
8001374c:	02812423          	sw	s0,40(sp)
80013750:	03010413          	addi	s0,sp,48
80013754:	fca42e23          	sw	a0,-36(s0)
80013758:	00b42223          	sw	a1,4(s0)
8001375c:	00c42423          	sw	a2,8(s0)
80013760:	00d42623          	sw	a3,12(s0)
80013764:	00e42823          	sw	a4,16(s0)
80013768:	00f42a23          	sw	a5,20(s0)
8001376c:	01042c23          	sw	a6,24(s0)
80013770:	01142e23          	sw	a7,28(s0)
80013774:	02040793          	addi	a5,s0,32
80013778:	fcf42c23          	sw	a5,-40(s0)
8001377c:	fd842783          	lw	a5,-40(s0)
80013780:	fe478793          	addi	a5,a5,-28
80013784:	fef42623          	sw	a5,-20(s0)
80013788:	fec42703          	lw	a4,-20(s0)
8001378c:	800137b7          	lui	a5,0x80013
80013790:	71878613          	addi	a2,a5,1816 # 80013718 <kputc>
80013794:	00070593          	mv	a1,a4
80013798:	fdc42503          	lw	a0,-36(s0)
8001379c:	ad5ee0ef          	jal	80002270 <_doprnt>
800137a0:	00000013          	nop
800137a4:	02c12083          	lw	ra,44(sp)
800137a8:	02812403          	lw	s0,40(sp)
800137ac:	05010113          	addi	sp,sp,80
800137b0:	00008067          	ret

800137b4 <main>:
800137b4:	fd010113          	addi	sp,sp,-48
800137b8:	02112623          	sw	ra,44(sp)
800137bc:	02812423          	sw	s0,40(sp)
800137c0:	03010413          	addi	s0,sp,48
800137c4:	fca42e23          	sw	a0,-36(s0)
800137c8:	fcb42c23          	sw	a1,-40(s0)
800137cc:	800157b7          	lui	a5,0x80015
800137d0:	ea078513          	addi	a0,a5,-352 # 80014ea0 <cmdtab+0xbb8>
800137d4:	f71ff0ef          	jal	80013744 <kprintf>
800137d8:	00a00093          	li	ra,10
800137dc:	0280006f          	j	80013804 <main+0x50>
800137e0:	7d000793          	li	a5,2000
800137e4:	fef42623          	sw	a5,-20(s0)
800137e8:	0100006f          	j	800137f8 <main+0x44>
800137ec:	fec42783          	lw	a5,-20(s0)
800137f0:	fff78793          	addi	a5,a5,-1
800137f4:	fef42623          	sw	a5,-20(s0)
800137f8:	fec42783          	lw	a5,-20(s0)
800137fc:	fef048e3          	bgtz	a5,800137ec <main+0x38>
80013800:	fff08093          	addi	ra,ra,-1
80013804:	fc104ee3          	bgtz	ra,800137e0 <main+0x2c>
80013808:	fc5ff06f          	j	800137cc <main+0x18>

8001380c <context_irq_enable>:
8001380c:	fe010113          	addi	sp,sp,-32
80013810:	00812e23          	sw	s0,28(sp)
80013814:	02010413          	addi	s0,sp,32
80013818:	fea42623          	sw	a0,-20(s0)
8001381c:	feb42423          	sw	a1,-24(s0)
80013820:	fec42783          	lw	a5,-20(s0)
80013824:	0047a783          	lw	a5,4(a5)
80013828:	f7f7f713          	andi	a4,a5,-129
8001382c:	fec42783          	lw	a5,-20(s0)
80013830:	00e7a223          	sw	a4,4(a5)
80013834:	fec42783          	lw	a5,-20(s0)
80013838:	0047a703          	lw	a4,4(a5)
8001383c:	fe842783          	lw	a5,-24(s0)
80013840:	00078663          	beqz	a5,8001384c <context_irq_enable+0x40>
80013844:	08000793          	li	a5,128
80013848:	0080006f          	j	80013850 <context_irq_enable+0x44>
8001384c:	00000793          	li	a5,0
80013850:	00e7e733          	or	a4,a5,a4
80013854:	fec42783          	lw	a5,-20(s0)
80013858:	00e7a223          	sw	a4,4(a5)
8001385c:	00000013          	nop
80013860:	01c12403          	lw	s0,28(sp)
80013864:	02010113          	addi	sp,sp,32
80013868:	00008067          	ret

8001386c <timer_diff>:
8001386c:	fe010113          	addi	sp,sp,-32
80013870:	00812e23          	sw	s0,28(sp)
80013874:	02010413          	addi	s0,sp,32
80013878:	fea42623          	sw	a0,-20(s0)
8001387c:	feb42423          	sw	a1,-24(s0)
80013880:	fec42703          	lw	a4,-20(s0)
80013884:	fe842783          	lw	a5,-24(s0)
80013888:	40f707b3          	sub	a5,a4,a5
8001388c:	00078513          	mv	a0,a5
80013890:	01c12403          	lw	s0,28(sp)
80013894:	02010113          	addi	sp,sp,32
80013898:	00008067          	ret

8001389c <start>:
8001389c:	fe010113          	addi	sp,sp,-32
800138a0:	00112e23          	sw	ra,28(sp)
800138a4:	00812c23          	sw	s0,24(sp)
800138a8:	02010413          	addi	s0,sp,32
800138ac:	db5ff0ef          	jal	80013660 <console_init>
800138b0:	800157b7          	lui	a5,0x80015
800138b4:	ea878513          	addi	a0,a5,-344 # 80014ea8 <cmdtab+0xbc0>
800138b8:	e0dff0ef          	jal	800136c4 <console_putstr>
800138bc:	800177b7          	lui	a5,0x80017
800138c0:	20078513          	addi	a0,a5,512 # 80017200 <_end>
800138c4:	a74f10ef          	jal	80004b38 <heap_init>
800138c8:	b0cf10ef          	jal	80004bd4 <heap_free>
800138cc:	fea42623          	sw	a0,-20(s0)
800138d0:	8001d7b7          	lui	a5,0x8001d
800138d4:	4c078593          	addi	a1,a5,1216 # 8001d4c0 <minheap>
800138d8:	800157b7          	lui	a5,0x80015
800138dc:	eb478513          	addi	a0,a5,-332 # 80014eb4 <cmdtab+0xbcc>
800138e0:	e65ff0ef          	jal	80013744 <kprintf>
800138e4:	fec42583          	lw	a1,-20(s0)
800138e8:	800157b7          	lui	a5,0x80015
800138ec:	ec478513          	addi	a0,a5,-316 # 80014ec4 <cmdtab+0xbdc>
800138f0:	e55ff0ef          	jal	80013744 <kprintf>
800138f4:	800157b7          	lui	a5,0x80015
800138f8:	f4c78713          	addi	a4,a5,-180 # 80014f4c <_etext>
800138fc:	800007b7          	lui	a5,0x80000
80013900:	00078793          	mv	a5,a5
80013904:	40f707b3          	sub	a5,a4,a5
80013908:	00078593          	mv	a1,a5
8001390c:	800157b7          	lui	a5,0x80015
80013910:	ed878513          	addi	a0,a5,-296 # 80014ed8 <cmdtab+0xbf0>
80013914:	e31ff0ef          	jal	80013744 <kprintf>
80013918:	800007b7          	lui	a5,0x80000
8001391c:	00078713          	mv	a4,a5
80013920:	800157b7          	lui	a5,0x80015
80013924:	f4c78793          	addi	a5,a5,-180 # 80014f4c <_etext>
80013928:	fff78793          	addi	a5,a5,-1
8001392c:	00078613          	mv	a2,a5
80013930:	00070593          	mv	a1,a4
80013934:	800157b7          	lui	a5,0x80015
80013938:	ef478513          	addi	a0,a5,-268 # 80014ef4 <cmdtab+0xc0c>
8001393c:	e09ff0ef          	jal	80013744 <kprintf>
80013940:	800177b7          	lui	a5,0x80017
80013944:	1c478713          	addi	a4,a5,452 # 800171c4 <_ebss>
80013948:	800157b7          	lui	a5,0x80015
8001394c:	00078793          	mv	a5,a5
80013950:	40f707b3          	sub	a5,a4,a5
80013954:	00078593          	mv	a1,a5
80013958:	800157b7          	lui	a5,0x80015
8001395c:	f1478513          	addi	a0,a5,-236 # 80014f14 <cmdtab+0xc2c>
80013960:	de5ff0ef          	jal	80013744 <kprintf>
80013964:	800157b7          	lui	a5,0x80015
80013968:	00078713          	mv	a4,a5
8001396c:	800177b7          	lui	a5,0x80017
80013970:	1c478793          	addi	a5,a5,452 # 800171c4 <_ebss>
80013974:	fff78793          	addi	a5,a5,-1
80013978:	00078613          	mv	a2,a5
8001397c:	00070593          	mv	a1,a4
80013980:	800157b7          	lui	a5,0x80015
80013984:	f2c78513          	addi	a0,a5,-212 # 80014f2c <cmdtab+0xc44>
80013988:	dbdff0ef          	jal	80013744 <kprintf>
8001398c:	901ec0ef          	jal	8000028c <disable>
80013990:	830ed0ef          	jal	800009c0 <timer_init>
80013994:	d95f80ef          	jal	8000c728 <nulluser>
80013998:	00000013          	nop
8001399c:	01c12083          	lw	ra,28(sp)
800139a0:	01812403          	lw	s0,24(sp)
800139a4:	02010113          	addi	sp,sp,32
800139a8:	00008067          	ret
800139ac:	6e55                	.insn	2, 0x6e55
800139ae:	6168                	.insn	2, 0x6168
800139b0:	646e                	.insn	2, 0x646e
800139b2:	656c                	.insn	2, 0x656c
800139b4:	2064                	.insn	2, 0x2064
800139b6:	5249                	.insn	2, 0x5249
800139b8:	2151                	.insn	2, 0x2151
800139ba:	000a                	.insn	2, 0x000a
800139bc:	5245                	.insn	2, 0x5245
800139be:	4f52                	.insn	2, 0x4f52
800139c0:	3a52                	.insn	2, 0x3a52
800139c2:	4c20                	.insn	2, 0x4c20
800139c4:	2064616f          	jal	sp,80059bca <nnames+0x3c6ce>
800139c8:	6166                	.insn	2, 0x6166
800139ca:	6c75                	.insn	2, 0x6c75
800139cc:	2074                	.insn	2, 0x2074
800139ce:	6f66                	.insn	2, 0x6f66
800139d0:	2072                	.insn	2, 0x2072
800139d2:	6361                	.insn	2, 0x6361
800139d4:	73736563          	bltu	t1,s7,800140fe <r+0x1da>
800139d8:	7420                	.insn	2, 0x7420
800139da:	6461206f          	j	80026020 <nnames+0x8b24>
800139de:	7264                	.insn	2, 0x7264
800139e0:	3020                	.insn	2, 0x3020
800139e2:	2578                	.insn	2, 0x2578
800139e4:	3830                	.insn	2, 0x3830
800139e6:	0a78                	.insn	2, 0x0a78
800139e8:	0000                	.insn	2, 0x
800139ea:	0000                	.insn	2, 0x
800139ec:	5245                	.insn	2, 0x5245
800139ee:	4f52                	.insn	2, 0x4f52
800139f0:	3a52                	.insn	2, 0x3a52
800139f2:	5320                	.insn	2, 0x5320
800139f4:	6f74                	.insn	2, 0x6f74
800139f6:	6572                	.insn	2, 0x6572
800139f8:	6620                	.insn	2, 0x6620
800139fa:	7561                	.insn	2, 0x7561
800139fc:	746c                	.insn	2, 0x746c
800139fe:	6620                	.insn	2, 0x6620
80013a00:	6120726f          	jal	tp,8001b012 <__global_pointer$+0x1e6e>
80013a04:	73656363          	bltu	a0,s6,8001412a <r+0x206>
80013a08:	6f742073          	.insn	4, 0x6f742073
80013a0c:	6120                	.insn	2, 0x6120
80013a0e:	6464                	.insn	2, 0x6464
80013a10:	2072                	.insn	2, 0x2072
80013a12:	7830                	.insn	2, 0x7830
80013a14:	3025                	.insn	2, 0x3025
80013a16:	7838                	.insn	2, 0x7838
80013a18:	000a                	.insn	2, 0x000a
80013a1a:	0000                	.insn	2, 0x
80013a1c:	5245                	.insn	2, 0x5245
80013a1e:	4f52                	.insn	2, 0x4f52
80013a20:	3a52                	.insn	2, 0x3a52
80013a22:	4d20                	.insn	2, 0x4d20
80013a24:	7369                	.insn	2, 0x7369
80013a26:	6c61                	.insn	2, 0x6c61
80013a28:	6769                	.insn	2, 0x6769
80013a2a:	656e                	.insn	2, 0x656e
80013a2c:	2064                	.insn	2, 0x2064
80013a2e:	6f6c                	.insn	2, 0x6f6c
80013a30:	6461                	.insn	2, 0x6461
80013a32:	6620                	.insn	2, 0x6620
80013a34:	6120726f          	jal	tp,8001b046 <__global_pointer$+0x1ea2>
80013a38:	73656363          	bltu	a0,s6,8001415e <r+0x23a>
80013a3c:	6f742073          	.insn	4, 0x6f742073
80013a40:	6120                	.insn	2, 0x6120
80013a42:	6464                	.insn	2, 0x6464
80013a44:	2072                	.insn	2, 0x2072
80013a46:	7830                	.insn	2, 0x7830
80013a48:	3025                	.insn	2, 0x3025
80013a4a:	7838                	.insn	2, 0x7838
80013a4c:	000a                	.insn	2, 0x000a
80013a4e:	0000                	.insn	2, 0x
80013a50:	5245                	.insn	2, 0x5245
80013a52:	4f52                	.insn	2, 0x4f52
80013a54:	3a52                	.insn	2, 0x3a52
80013a56:	4d20                	.insn	2, 0x4d20
80013a58:	7369                	.insn	2, 0x7369
80013a5a:	6c61                	.insn	2, 0x6c61
80013a5c:	6769                	.insn	2, 0x6769
80013a5e:	656e                	.insn	2, 0x656e
80013a60:	2064                	.insn	2, 0x2064
80013a62:	726f7473          	.insn	4, 0x726f7473
80013a66:	2065                	.insn	2, 0x2065
80013a68:	6f66                	.insn	2, 0x6f66
80013a6a:	2072                	.insn	2, 0x2072
80013a6c:	6361                	.insn	2, 0x6361
80013a6e:	73736563          	bltu	t1,s7,80014198 <r+0x274>
80013a72:	7420                	.insn	2, 0x7420
80013a74:	6461206f          	j	800260ba <nnames+0x8bbe>
80013a78:	7264                	.insn	2, 0x7264
80013a7a:	3020                	.insn	2, 0x3020
80013a7c:	2578                	.insn	2, 0x2578
80013a7e:	3830                	.insn	2, 0x3830
80013a80:	0a78                	.insn	2, 0x0a78
80013a82:	0000                	.insn	2, 0x
80013a84:	5245                	.insn	2, 0x5245
80013a86:	4f52                	.insn	2, 0x4f52
80013a88:	3a52                	.insn	2, 0x3a52
80013a8a:	6620                	.insn	2, 0x6620
80013a8c:	7561                	.insn	2, 0x7561
80013a8e:	746c                	.insn	2, 0x746c
80013a90:	6620                	.insn	2, 0x6620
80013a92:	7465                	.insn	2, 0x7465
80013a94:	61206863          	bltu	zero,s2,800140a4 <r+0x180>
80013a98:	73656363          	bltu	a0,s6,800141be <r+0x29a>
80013a9c:	6f742073          	.insn	4, 0x6f742073
80013aa0:	6120                	.insn	2, 0x6120
80013aa2:	6464                	.insn	2, 0x6464
80013aa4:	2072                	.insn	2, 0x2072
80013aa6:	7830                	.insn	2, 0x7830
80013aa8:	3025                	.insn	2, 0x3025
80013aaa:	7838                	.insn	2, 0x7838
80013aac:	000a                	.insn	2, 0x000a
80013aae:	0000                	.insn	2, 0x
80013ab0:	5245                	.insn	2, 0x5245
80013ab2:	4f52                	.insn	2, 0x4f52
80013ab4:	3a52                	.insn	2, 0x3a52
80013ab6:	6920                	.insn	2, 0x6920
80013ab8:	656c                	.insn	2, 0x656c
80013aba:	206c6167          	.insn	4, 0x206c6167
80013abe:	6e69                	.insn	2, 0x6e69
80013ac0:	75727473          	.insn	4, 0x75727473
80013ac4:	6f697463          	bgeu	s2,s6,800141ac <r+0x288>
80013ac8:	206e                	.insn	2, 0x206e
80013aca:	6361                	.insn	2, 0x6361
80013acc:	73736563          	bltu	t1,s7,800141f6 <r+0x2d2>
80013ad0:	7420                	.insn	2, 0x7420
80013ad2:	6461206f          	j	80026118 <nnames+0x8c1c>
80013ad6:	7264                	.insn	2, 0x7264
80013ad8:	3020                	.insn	2, 0x3020
80013ada:	2578                	.insn	2, 0x2578
80013adc:	3830                	.insn	2, 0x3830
80013ade:	0a78                	.insn	2, 0x0a78
80013ae0:	0000                	.insn	2, 0x
80013ae2:	0000                	.insn	2, 0x
80013ae4:	5245                	.insn	2, 0x5245
80013ae6:	4f52                	.insn	2, 0x4f52
80013ae8:	3a52                	.insn	2, 0x3a52
80013aea:	4d20                	.insn	2, 0x4d20
80013aec:	7369                	.insn	2, 0x7369
80013aee:	6c61                	.insn	2, 0x6c61
80013af0:	6769                	.insn	2, 0x6769
80013af2:	656e                	.insn	2, 0x656e
80013af4:	2064                	.insn	2, 0x2064
80013af6:	6620                	.insn	2, 0x6620
80013af8:	7465                	.insn	2, 0x7465
80013afa:	61206863          	bltu	zero,s2,8001410a <r+0x1e6>
80013afe:	73656363          	bltu	a0,s6,80014224 <r+0x300>
80013b02:	6f742073          	.insn	4, 0x6f742073
80013b06:	6120                	.insn	2, 0x6120
80013b08:	6464                	.insn	2, 0x6464
80013b0a:	2072                	.insn	2, 0x2072
80013b0c:	7830                	.insn	2, 0x7830
80013b0e:	3025                	.insn	2, 0x3025
80013b10:	7838                	.insn	2, 0x7838
80013b12:	000a                	.insn	2, 0x000a
80013b14:	6e55                	.insn	2, 0x6e55
80013b16:	6168                	.insn	2, 0x6168
80013b18:	646e                	.insn	2, 0x646e
80013b1a:	656c                	.insn	2, 0x656c
80013b1c:	2064                	.insn	2, 0x2064
80013b1e:	7865                	.insn	2, 0x7865
80013b20:	74706563          	bltu	zero,t2,8001426a <r+0x346>
80013b24:	6f69                	.insn	2, 0x6f69
80013b26:	3a6e                	.insn	2, 0x3a6e
80013b28:	5020                	.insn	2, 0x5020
80013b2a:	78302043          	.insn	4, 0x78302043
80013b2e:	3025                	.insn	2, 0x3025
80013b30:	7838                	.insn	2, 0x7838
80013b32:	4320                	.insn	2, 0x4320
80013b34:	7561                	.insn	2, 0x7561
80013b36:	25206573          	.insn	4, 0x25206573
80013b3a:	2164                	.insn	2, 0x2164
80013b3c:	000a                	.insn	2, 0x000a
80013b3e:	0000                	.insn	2, 0x
80013b40:	05e8                	.insn	2, 0x05e8
80013b42:	8000                	.insn	2, 0x8000
80013b44:	05c0                	.insn	2, 0x05c0
80013b46:	8000                	.insn	2, 0x8000
80013b48:	05d4                	.insn	2, 0x05d4
80013b4a:	8000                	.insn	2, 0x8000
80013b4c:	05fc                	.insn	2, 0x05fc
80013b4e:	8000                	.insn	2, 0x8000
80013b50:	0598                	.insn	2, 0x0598
80013b52:	8000                	.insn	2, 0x8000
80013b54:	0570                	.insn	2, 0x0570
80013b56:	8000                	.insn	2, 0x8000
80013b58:	05ac                	.insn	2, 0x05ac
80013b5a:	8000                	.insn	2, 0x8000
80013b5c:	0584                	.insn	2, 0x0584
80013b5e:	8000                	.insn	2, 0x8000
80013b60:	7845                	.insn	2, 0x7845
80013b62:	74706563          	bltu	zero,t2,800142ac <r+0x388>
80013b66:	6f69                	.insn	2, 0x6f69
80013b68:	3a6e                	.insn	2, 0x3a6e
80013b6a:	5020                	.insn	2, 0x5020
80013b6c:	30253d43          	.insn	4, 0x30253d43
80013b70:	7838                	.insn	2, 0x7838
80013b72:	4320                	.insn	2, 0x4320
80013b74:	7561                	.insn	2, 0x7561
80013b76:	253d6573          	.insn	4, 0x253d6573
80013b7a:	2078                	.insn	2, 0x2078
80013b7c:	74617453          	.insn	4, 0x74617453
80013b80:	7375                	.insn	2, 0x7375
80013b82:	253d                	.insn	2, 0x253d
80013b84:	3830                	.insn	2, 0x3830
80013b86:	0a78                	.insn	2, 0x0a78
80013b88:	0000                	.insn	2, 0x
80013b8a:	0000                	.insn	2, 0x
80013b8c:	4552                	.insn	2, 0x4552
80013b8e:	2e252047          	.insn	4, 0x2e252047
80013b92:	6432                	.insn	2, 0x6432
80013b94:	203a                	.insn	2, 0x203a
80013b96:	3025                	.insn	2, 0x3025
80013b98:	7838                	.insn	2, 0x7838
80013b9a:	000a                	.insn	2, 0x000a
80013b9c:	7865                	.insn	2, 0x7865
80013b9e:	6574                	.insn	2, 0x6574
80013ba0:	6e72                	.insn	2, 0x6e72
80013ba2:	6c61                	.insn	2, 0x6c61
80013ba4:	6920                	.insn	2, 0x6920
80013ba6:	746e                	.insn	2, 0x746e
80013ba8:	7265                	.insn	2, 0x7265
80013baa:	7572                	.insn	2, 0x7572
80013bac:	7470                	.insn	2, 0x7470
80013bae:	6f69                	.insn	2, 0x6f69
80013bb0:	216e                	.insn	2, 0x216e
80013bb2:	000a                	.insn	2, 0x000a
80013bb4:	6e75                	.insn	2, 0x6e75
80013bb6:	776f6e6b          	.insn	4, 0x776f6e6b
80013bba:	206e                	.insn	2, 0x206e
80013bbc:	7361                	.insn	2, 0x7361
80013bbe:	6e79                	.insn	2, 0x6e79
80013bc0:	78652063          	.insn	4, 0x78652063
80013bc4:	74706563          	bltu	zero,t2,8001430e <cmdtab+0x26>
80013bc8:	6f69                	.insn	2, 0x6f69
80013bca:	216e                	.insn	2, 0x216e
80013bcc:	000a                	.insn	2, 0x000a
	...

80013bd0 <_ctype_>:
80013bd0:	2000 2020 2020 2020 2020 0808 0808 2008     .         ..... 
80013be0:	2020 2020 2020 2020 2020 2020 2020 2020                     
80013bf0:	0820 1010 1010 1010 1010 1010 1010 1010      ...............
80013c00:	0410 0404 0404 0404 0404 1004 1010 1010     ................
80013c10:	1010 4141 4141 4141 0101 0101 0101 0101     ..AAAAAA........
80013c20:	0101 0101 0101 0101 0101 0101 1010 1010     ................
80013c30:	1010 4242 4242 4242 0202 0202 0202 0202     ..BBBBBB........
80013c40:	0202 0202 0202 0202 0202 0202 1010 1010     ................
80013c50:	0020 0000 6e28 6c75 296c 0000 2664 8000      ...(null)..d&..
80013c60:	272c 8000 272c 8000 272c 8000 272c 8000     ,'..,'..,'..,'..
80013c70:	272c 8000 272c 8000 272c 8000 272c 8000     ,'..,'..,'..,'..
80013c80:	272c 8000 272c 8000 272c 8000 272c 8000     ,'..,'..,'..,'..
80013c90:	272c 8000 272c 8000 272c 8000 2614 8000     ,'..,'..,'...&..
80013ca0:	272c 8000 272c 8000 272c 8000 272c 8000     ,'..,'..,'..,'..
80013cb0:	272c 8000 272c 8000 272c 8000 272c 8000     ,'..,'..,'..,'..
80013cc0:	272c 8000 2704 8000 24e4 8000 2544 8000     ,'...'...$..D%..
80013cd0:	272c 8000 273c 8000 272c 8000 26b4 8000     ,'..<'..,'...&..
80013ce0:	272c 8000 272c 8000 272c 8000 272c 8000     ,'..,'..,'..,'..
80013cf0:	272c 8000 272c 8000 25ec 8000 272c 8000     ,'..,'...%..,'..
80013d00:	272c 8000 272c 8000 2510 8000 272c 8000     ,'..,'...%..,'..
80013d10:	2578 8000 272c 8000 272c 8000 263c 8000     x%..,'..,'..<&..
80013d20:	3130 3332 3534 3736 3938 6261 6463 6665     0123456789abcdef
80013d30:	0000 0000 3130 3332 3534 3736 3938 4241     ....0123456789AB
80013d40:	4443 4645 0000 0000 6e28 6c75 296c 0000     CDEF....(null)..
80013d50:	3c78 8000 3cf0 8000 3cf0 8000 3cf0 8000     x<...<...<...<..
80013d60:	3cf0 8000 3cf0 8000 3cf0 8000 3cf0 8000     .<...<...<...<..
80013d70:	3cf0 8000 3cf0 8000 3cc8 8000 3b3c 8000     .<...<...<..<;..
80013d80:	3b9c 8000 3cf0 8000 3cf0 8000 3cf0 8000     .;...<...<...<..
80013d90:	3cf0 8000 3cf0 8000 3cf0 8000 3cf0 8000     .<...<...<...<..
80013da0:	3cf0 8000 3cf0 8000 3cf0 8000 3c50 8000     .<...<...<..P<..
80013db0:	3cf0 8000 3cf0 8000 3cf0 8000 3b68 8000     .<...<...<..h;..
80013dc0:	3cf0 8000 3bdc 8000 3cf0 8000 3cf0 8000     .<...;...<...<..
80013dd0:	3ca0 8000 42c0 8000 4338 8000 4338 8000     .<...B..8C..8C..
80013de0:	4338 8000 4338 8000 4338 8000 4338 8000     8C..8C..8C..8C..
80013df0:	4338 8000 4338 8000 4338 8000 4310 8000     8C..8C..8C...C..
80013e00:	4184 8000 41e4 8000 4338 8000 4338 8000     .A...A..8C..8C..
80013e10:	4338 8000 4338 8000 4338 8000 4338 8000     8C..8C..8C..8C..
80013e20:	4338 8000 4338 8000 4338 8000 4338 8000     8C..8C..8C..8C..
80013e30:	4298 8000 4338 8000 4338 8000 4338 8000     .B..8C..8C..8C..
80013e40:	41b0 8000 4338 8000 4224 8000 4338 8000     .A..8C..$B..8C..
80013e50:	4338 8000 42e8 8000 3130 3332 3534 3736     8C...B..01234567
80013e60:	3938 6261 6463 6665 0000 0000 3130 3332     89abcdef....0123
80013e70:	3534 3736 3938 4241 4443 4645 0000 0000     456789ABCDEF....

80013e80 <a>:
80013e80:	0000 0000 0a92 3f06 0fdb 3fc9 0a92 3f86     .......?...?...?
80013e90:	d000 4f7f 0fdb 3fc9 0000 3f80 b3d7 3fdd     ...O...?...?...?
80013ea0:	0000 4000 0000 3f00 04f3 b935 04f3 3935     ...@...?..5...59
80013eb0:	8691 bd50 10f6 bef1 ccd3 3fb4 0fdb 4049     ..P........?..I@
80013ec0:	0000 ceff d000 4f7f 0000 4eff 0000 3f00     .......O...N...?
80013ed0:	04f3 3f35 7e3d bf0d 0000 3f80 3f3a c0d4     ..5?=~.....?:?..
80013ee0:	be8e 35bf 7200 3f31 5bd9 3ede 0000 bf80     ...5.r1?.[.>....
80013ef0:	7218 4431 4887 c43a fe00 46ff 04f3 b935     .r1D.H:....F..5.
80013f00:	04f3 3935 aa3b 3fb8 7218 3f31 5308 3b88     ..59;..?.r1?.S.;
80013f10:	0000 3e80 bf5b 3d4c 14ba 3f17 a9a8 3ed5     ...>[.L=...?...>
80013f20:	0000 3f80                                   ...?

80013f24 <r>:
80013f24:	aaa4 be2a 873e 3c08 b222 b94f 9c5b 362e     ..*.>..<".O.[..6
80013f34:	0fdb 4d49 d000 4f7f 0fdb 3fc9 f983 3ea2     ..IM...O...?...>
80013f44:	0000 3f00 0fdb 4049 04f3 b935 04f3 3935     ...?..I@..5...59
80013f54:	9c5b 362e b222 b94f 873e 3c08 aaa4 be2a     [..6".O.>..<..*.
80013f64:	0000 4eff 0000 3f80 0000 4000 0000 c000     ...N...?...@....
80013f74:	2065 bf01 166b 3f6f 8d0b c0b1 50f0 40b3     e ..k.o?.....P.@
80013f84:	d000 4f7f 0fdb 4cc9 f983 3f22 0000 3f00     ...O...L.."?...?
80013f94:	0fdb 3fc9 04f3 b935 04f3 3935 0000 3f80     ...?..5...59...?
80013fa4:	33b8 bdc4 3375 3c1f b7af bedb 2020 7325     .3..u3.<....  %s
80013fb4:	000a 0000 2020 3025 7834 0020 2520 3230     ....  %04x . %02
80013fc4:	0078 0000 2020 0020 0920 0a0d 0000 0000     x...   . .......
80013fd4:	3130 3332 3534 3736 3938 4241 4443 4645     0123456789ABCDEF
80013fe4:	4847 4a49 4c4b 4e4d 504f 5251 5453 5655     GHIJKLMNOPQRSTUV
80013ff4:	5857 0059 4f43 534e 4c4f 0045 554e 4c4c     WXY.CONSOLE.NULL
80014004:	4544 0056 414e 454d 5053 4341 0045 0000     DEV.NAMESPACE...
80014014:	7263 6165 6574 6520 7272 726f 2520 0a73     create error %s.
80014024:	0000 0000 7265 6f72 2072 6874 6e72 7765     ....error thrnew
80014034:	2520 0a73 0000 0000 666f 7366 7465 203a      %s.....offset: 
80014044:	3025 7838 000a 0000 b3e8 8000 b374 8000     %08x........t...
80014054:	b3e0 8000 b3e8 8000 b380 8000 b3e8 8000     ................
80014064:	b394 8000 b380 8000 6c69 6564 0032 0000     ........ilde2...
80014074:	6873 6c65 006c 0000 3032 313a 3a38 3835     shell...20:18:58
80014084:	0000 0000 634f 2074 3520 3220 3230 0034     ....Oct  5 2024.
80014094:	7542 6c69 2064 6164 6574 203a 7325 2520     Build date: %s %
800140a4:	0a73 000a 6c69 6564 0000 0000 7473 7261     s...ilde....star
800140b4:	2074 7270 636f 7365 0073 0000 000a 0000     t process.......
800140c4:	0a0a 700d 6e61 6369 203a 7325 0a0a 0000     ...panic: %s....
800140d4:	6f68 616c 0000 0000 6164 696e 6c65 0000     hola....daniel..
800140e4:	7973 6373 6c61 206c 6f6e 6920 706d 656c     syscall no imple
800140f4:	656d 746e 2520 2c78 2520 0a64 0000 0000     ment %x, %d.....
80014104:	e684 8000 e684 8000 e684 8000 e684 8000     ................
80014114:	e684 8000 e684 8000 e684 8000 e684 8000     ................
80014124:	e684 8000 e490 8000 e478 8000 e4a8 8000     ........x.......
80014134:	e430 8000 e448 8000 e460 8000 e658 8000     0...H...`...X...
80014144:	e684 8000 e684 8000 e684 8000 e658 8000     ............X...
80014154:	e658 8000 e658 8000 e320 8000 e658 8000     X...X... ...X...
80014164:	e404 8000 e658 8000 e658 8000 e658 8000     ....X...X...X...
80014174:	e4c0 8000 e4d8 8000 e508 8000 e520 8000     ............ ...
80014184:	e538 8000 e550 8000 e658 8000 e658 8000     8...P...X...X...
80014194:	e368 8000 e4f0 8000 e5c8 8000 e684 8000     h...............
800141a4:	e580 8000 e598 8000 e568 8000 e5e0 8000     ........h.......
800141b4:	e5f8 8000 e610 8000 e628 8000 e640 8000     ........(...@...
800141c4:	e5b0 8000 e658 8000 e684 8000 e684 8000     ....X...........
800141d4:	e684 8000 e684 8000 e684 8000 e684 8000     ................
800141e4:	e684 8000 e684 8000 e398 8000 e338 8000     ............8...
800141f4:	e658 8000 e41c 8000 e3ec 8000 e3d4 8000     X...............
80014204:	e380 8000 e350 8000 e684 8000 0a0a 6c41     ....P.........Al
80014214:	206c 7375 7265 7020 6f72 6563 7373 7365     l user processes
80014224:	6820 7661 2065 6f63 706d 656c 6574 2e64      have completed.
80014234:	0a0a 0000 2f2e 0000 2e2e 002f 6572 6f62     ...../..../.rebo
80014244:	746f 0000 6564 6476 6d75 0070 6365 6f68     ot..devdump.echo
80014254:	0000 0000 7865 7469 0000 0000 6568 706c     ....exit....help
80014264:	0000 0000 696b 6c6c 0000 0000 656d 646d     ....kill....memd
80014274:	6d75 0070 656d 736d 6174 0074 7370 0000     ump.memstat.ps..
80014284:	003f 0000 6c62 6e69 006b 0000 7474 0000     ?...blink...tt..
80014294:	6463 0000 736c 0000 6163 0074 7564 706d     cd..ls..cat.dump
800142a4:	0000 0000 6b6d 6964 0072 0000 7770 0064     ....mkdir...pwd.
800142b4:	6d72 0000 6f74 6375 0068 0000 7572 006e     rm..touch...run.
800142c4:	6f66 6d72 7461 0000 6574 7473 0000 0000     format..test....
800142d4:	6561 0073 7266 7165 0000 0000 6574 7473     aes.freq....test
800142e4:	0032 0000                                   2...

800142e8 <cmdtab>:
800142e8:	4240 8001 0000 0000 0d18 8001 4248 8001     @B..........HB..
800142f8:	0000 0000 f6bc 8000 4250 8001 0001 0000     ........PB......
80014308:	f8cc 8000 4258 8001 0001 0000 fa08 8000     ....XB..........
80014318:	4260 8001 0000 0000 fd08 8000 4268 8001     `B..........hB..
80014328:	0001 0000 01cc 8001 4270 8001 0000 0000     ........pB......
80014338:	0534 8001 4278 8001 0001 0000 0664 8001     4...xB......d...
80014348:	4280 8001 0001 0000 0970 8001 4284 8001     .B......p....B..
80014358:	0000 0000 fd08 8000 4288 8001 0000 0000     .........B......
80014368:	f494 8000 4290 8001 0000 0000 15c0 8001     .....B..........
80014378:	4294 8001 0001 0000 f604 8000 4298 8001     .B...........B..
80014388:	0001 0000 047c 8001 429c 8001 0000 0000     ....|....B......
80014398:	f54c 8000 42a0 8001 0000 0000 f814 8000     L....B..........
800143a8:	42a8 8001 0001 0000 08b8 8001 42b0 8001     .B...........B..
800143b8:	0001 0000 0c60 8001 42b4 8001 0001 0000     ....`....B......
800143c8:	0de8 8001 42b8 8001 0001 0000 1508 8001     .....B..........
800143d8:	42c0 8001 0000 0000 0ea0 8001 42c4 8001     .B...........B..
800143e8:	0000 0000 fac0 8000 42cc 8001 0000 0000     .........B......
800143f8:	12a4 8001 42d4 8001 0000 0000 f3dc 8000     .....B..........
80014408:	42d8 8001 0000 0000 fbe4 8000 42e0 8001     .B...........B..
80014418:	0000 0000 1164 8001 002f 0000 2020 2020     ....d.../...    
80014428:	202f 5c2f 5c20 2020 2020 7c5f 7c20 205f     / /\ \    _| |_ 
80014438:	2020 207c 205c 2020 207c 7c20 7c20 2020       | \   |  | |  
80014448:	207c 207c 2020 0000 2020 2020 205c 2f5c     | |   ..    \ \/
80014458:	2f20 2020 2020 7c20 7c20 2020 2020 207c      /     | |    | 
80014468:	5c20 207c 207c 7c20 7c20 2020 207c 207c      \| |  | |  | | 
80014478:	2020 0000 2020 5c20 5c20 2020 202f 202f       ..   \ \  / / 
80014488:	7c20 5f5f 5f20 7c5f 2020 207c 205c 207c      |__ __|  | \ | 
80014498:	207c 7c20 7c20 2020 207c 207c 2020 0000     |  | |  | |   ..
800144a8:	2020 5f20 205f 2020 5f20 205f 2020 5f5f        __    __   __
800144b8:	5f5f 205f 2020 5f20 2020 5f20 2020 2020     ___    _   _    
800144c8:	205f 2020 5f20 2020 2020 0000 2d2d 2d2d     _    _    ..----
800144d8:	2d2d 2d2d 2d2d 2d2d 2d2d 2d2d 2d2d 2d2d     ----------------
800144e8:	2d2d 2d2d 2d2d 2d2d 2d2d 2d2d 2d2d 2d2d     ----------------
800144f8:	2d2d 2d2d 2d2d 0000 5b1b 3133 313b 006d     ------...[31;1m.
80014508:	0a0a 7325 7325 250a 0a73 7325 250a 0a73     ..%s%s.%s.%s.%s.
80014518:	7325 250a 0a73 7325 250a 0a73 7325 250a     %s.%s.%s.%s.%s.%
80014528:	0a73 0000 5b1b 6d30 000a 0000 2020 2020     s....[0m....    
80014538:	2020 5220 5349 5643 3233 4d49 4341 5620        RISCV32IMAC V
80014548:	7265 6973 6e6f 6220 2079 6144 696e 6c65     ersion by Daniel
80014558:	5120 6975 746e 7265 096f 2020 0020 0000      Quintero.   ...
80014568:	2020 2d20 202d 2020 2d20 202d 2020 2d2d        --    --   --
80014578:	2d2d 202d 2020 2d20 2020 2d20 2020 2020     ---    -   -    
80014588:	2d20 2d2d 202d 2020 2020 0000 2020 2f20      ----     ..   /
80014598:	2f20 2020 205c 205c 7c20 2020 2020 7c20      /  \ \  |     |
800145a8:	2020 207c 207c 205c 207c 5c20 2020 2d2d       | | \ |  \  --
800145b8:	2020 202f 2020 0000 6557 636c 6d6f 2065       /   ..Welcome 
800145c8:	6f74 5820 6e69 2175 000a 0000 7325 0a0a     to Xinu!....%s..
800145d8:	0000 0000 7378 2068 2024 0000 7953 746e     ....xsh $ ..Synt
800145e8:	7861 6520 7272 726f 000a 0000 7325 000a     ax error....%s..
800145f8:	000a 0000 6f63 6d6d 6e61 2064 7325 6e20     ....command %s n
80014608:	746f 6620 756f 646e 000a 0000 6143 6e6e     ot found....Cann
80014618:	746f 7220 6465 7269 6365 2074 2f49 204f     ot redirect I/O 
80014628:	726f 6220 6361 676b 6f72 6e75 2064 2061     or background a 
80014638:	7562 6c69 6974 0a6e 0000 0000 6143 6e6e     builtin.....Cann
80014648:	746f 6320 6572 7461 2065 7270 636f 7365     ot create proces
80014658:	0a73 0000 6853 6c65 206c 6c63 736f 6465     s...Shell closed
80014668:	000a 0000 6544 6976 6563 2020 2020 4e20     ....Device     N
80014678:	6d61 2065 2020 2020 694d 6f6e 0a72 0000     ame     Minor...
80014688:	2d2d 2d2d 2d2d 2d20 2d2d 2d2d 2d2d 2d2d     ------ ---------
80014698:	2d2d 202d 2d2d 2d2d 0a2d 0000 3425 2064     --- -----...%4d 
800146a8:	2020 2d25 3231 2073 3325 0a64 0000 0000       %-12s %3d.....
800146b8:	7325 0000 2520 0073 000a 0000 6425 6d20     %s.. %s.....%d m
800146c8:	7a68 000a 2d2d 6568 706c 0000 7355 3a65     hz..--help..Use:
800146d8:	000a 0000 2509 2073 635b 6d6f 616d 646e     .....%s [command
800146e8:	0a5d 0000 6544 6373 6972 7470 6f69 3a6e     ]...Description:
800146f8:	000a 0000 5009 6f72 6976 6564 2073 2061     .....Provides a 
80014708:	696c 7473 6f20 2066 6873 6c65 206c 6f63     list of shell co
80014718:	6d6d 6e61 7364 6f20 0a72 0000 6809 6c65     mmands or....hel
80014728:	2070 6e69 6f66 6d72 7461 6f69 206e 6f66     p information fo
80014738:	2072 2061 7073 6365 6669 6369 6320 6d6f     r a specific com
80014748:	616d 646e 000a 0000 704f 6974 6e6f 3a73     mand....Options:
80014758:	000a 0000 6309 6d6f 616d 646e 7309 6570     .....command.spe
80014768:	6963 6966 2063 6f63 6d6d 6e61 2064 6f66     cific command fo
80014778:	2072 6877 6369 2068 6f74 000a 0909 6964     r which to....di
80014788:	7073 616c 2079 6568 706c 6920 666e 726f     splay help infor
80014798:	616d 6974 6e6f 000a 2d09 682d 6c65 0970     mation...--help.
800147a8:	6964 7073 616c 2079 6874 7369 6820 6c65     display this hel
800147b8:	2070 6e61 2064 7865 7469 000a 7325 203a     p and exit..%s: 
800147c8:	6f74 206f 616d 796e 6120 6772 6d75 6e65     too many argumen
800147d8:	7374 000a 7254 2079 2527 2073 2d2d 6568     ts..Try '%s --he
800147e8:	706c 2027 6f66 2072 6f6d 6572 6920 666e     lp' for more inf
800147f8:	726f 616d 6974 6e6f 000a 0000 7325 203a     ormation....%s: 
80014808:	6f6e 7320 6375 2068 6f63 6d6d 6e61 2064     no such command 
80014818:	7361 2720 7325 0a27 0000 0000 730a 6568     as '%s'......she
80014828:	6c6c 6320 6d6f 616d 646e 2073 7261 3a65     ll commands are:
80014838:	0a0a 0000 7325 0000 0020 0000 000a 0000     ....%s.. .......
80014848:	2d2d 6568 706c 0000 7355 6761 3a65 2520     --help..Usage: %
80014858:	2073 4950 0a44 000a 6544 6373 6972 7470     s PID...Descript
80014868:	6f69 3a6e 000a 0000 7409 7265 696d 616e     ion:.....termina
80014878:	6574 2073 2061 7270 636f 7365 0a73 0000     tes a process...
80014888:	704f 6974 6e6f 3a73 000a 0000 5009 4449     Options:.....PID
80014898:	0920 6874 2065 4449 6f20 2066 2061 7270      .the ID of a pr
800148a8:	636f 7365 2073 6f74 7420 7265 696d 616e     ocess to termina
800148b8:	6574 000a 2d09 682d 6c65 0970 6964 7073     te...--help.disp
800148c8:	616c 2079 6874 7369 6820 6c65 2070 6e61     lay this help an
800148d8:	2064 7865 7469 000a 7325 203a 6e69 6f63     d exit..%s: inco
800148e8:	7272 6365 2074 7261 7567 656d 746e 000a     rrect argument..
800148f8:	7254 2079 2527 2073 2d2d 6568 706c 2027     Try '%s --help' 
80014908:	6f66 2072 6f6d 6572 6920 666e 726f 616d     for more informa
80014918:	6974 6e6f 000a 0000 7325 203a 6f6e 2d6e     tion....%s: non-
80014928:	6964 6967 2074 6e69 7020 6f72 6563 7373     digit in process
80014938:	4920 0a44 0000 0000 7325 203a 6163 6e6e      ID.....%s: cann
80014948:	746f 6b20 6c69 206c 6874 2065 756e 6c6c     ot kill the null
80014958:	7020 6f72 6563 7373 000a 0000 7325 203a      process....%s: 
80014968:	6163 6e6e 746f 6b20 6c69 206c 7270 636f     cannot kill proc
80014978:	7365 2073 6425 000a 2d2d 6568 706c 0000     ess %d..--help..
80014988:	7355 6761 3a65 2520 2073 656d 646d 6d75     Usage: %s memdum
80014998:	2070 745b 7865 2c74 6164 6174 622c 7373     p [text,data,bss
800149a8:	0a5d 000a 6544 6373 6972 7470 6f69 3a6e     ]...Description:
800149b8:	000a 0000 7266 6565 6d20 6d65 726f 3a79     ....free memory:
800149c8:	2520 0a64 0000 0000 2d2d 6568 706c 0000      %d.....--help..
800149d8:	7375 3a65 2520 2073 0a0a 0000 6544 6373     use: %s ....Desc
800149e8:	6972 7470 6f69 3a6e 000a 0000 4409 7369     ription:.....Dis
800149f8:	6c70 7961 2073 6874 2065 7563 7272 6e65     plays the curren
80014a08:	2074 656d 6f6d 7972 7520 6573 6120 646e     t memory use and
80014a18:	7020 6972 746e 2073 6874 0a65 0000 0000      prints the.....
80014a28:	6609 6572 2065 696c 7473 0a2e 0000 0000     .free list......
80014a38:	704f 6974 6e6f 3a73 000a 0000 2d09 682d     Options:.....--h
80014a48:	6c65 0970 6409 7369 6c70 7961 7420 6968     elp..display thi
80014a58:	2073 6568 706c 6120 646e 6520 6978 0a74     s help and exit.
80014a68:	0000 0000 7325 203a 6f74 206f 616d 796e     ....%s: too many
80014a78:	6120 6772 6d75 6e65 7374 000a 7254 2079      arguments..Try 
80014a88:	2527 2073 2d2d 6568 706c 2027 6f66 2072     '%s --help' for 
80014a98:	6f6d 6572 6920 666e 726f 616d 6974 6e6f     more information
80014aa8:	000a 0000 7246 6565 4c20 7369 3a74 000a     ....Free List:..
80014ab8:	6c42 636f 206b 6461 7264 7365 2073 4c20     Block address  L
80014ac8:	6e65 7467 2068 6428 6365 2029 4c20 6e65     ength (dec)  Len
80014ad8:	7467 2068 6828 7865 0a29 0000 2d2d 2d2d     gth (hex)...----
80014ae8:	2d2d 2d2d 2d2d 2d2d 202d 2d20 2d2d 2d2d     ---------  -----
80014af8:	2d2d 2d2d 2d2d 202d 2d20 2d2d 2d2d 2d2d     -------  -------
80014b08:	2d2d 2d2d 0a2d 0000 2020 7830 3025 7838     -----...  0x%08x
80014b18:	2020 2020 3925 2064 2020 2020 7830 3025         %9d     0x%0
80014b28:	7838 000a 000a 0000 2d2d 6568 706c 0000     8x......--help..
80014b38:	7355 3a65 2520 0a73 000a 0000 6544 6373     Use: %s.....Desc
80014b48:	6972 7470 6f69 3a6e 000a 0000 4409 7369     ription:.....Dis
80014b58:	6c70 7961 2073 6e69 6f66 6d72 7461 6f69     plays informatio
80014b68:	206e 6261 756f 2074 7572 6e6e 6e69 2067     n about running 
80014b78:	7270 636f 7365 6573 0a73 0000 704f 6974     processes...Opti
80014b88:	6e6f 3a73 000a 0000 2d09 682d 6c65 0970     ons:.....--help.
80014b98:	6420 7369 6c70 7961 7420 6968 2073 6568      display this he
80014ba8:	706c 6120 646e 6520 6978 0a74 0000 0000     lp and exit.....
80014bb8:	7325 203a 6f74 206f 616d 796e 6120 6772     %s: too many arg
80014bc8:	6d75 6e65 7374 000a 7254 2079 2527 2073     uments..Try '%s 
80014bd8:	2d2d 6568 706c 2027 6f66 2072 6f6d 6572     --help' for more
80014be8:	6920 666e 726f 616d 6974 6e6f 000a 0000      information....
80014bf8:	7453 6361 206b 6953 657a 0000 7453 6361     Stack Size..Stac
80014c08:	206b 7450 0072 0000 7453 6361 206b 6142     k Ptr...Stack Ba
80014c18:	6573 0000 7453 7461 0065 0000 614e 656d     se..State...Name
80014c28:	0000 0000 6950 0064 3325 2073 2d25 3631     ....Pid.%3s %-16
80014c38:	2073 3525 2073 3125 7330 2520 312d 7330     s %5s %10s %-10s
80014c48:	2520 3031 0a73 0000 2d2d 2d2d 2d2d 2d2d      %10s...--------
80014c58:	2d2d 0000 2d2d 2d2d 002d 0000 2d2d 2d2d     --..-----...----
80014c68:	2d2d 2d2d 2d2d 2d2d 2d2d 2d2d 0000 0000     ------------....
80014c78:	2d2d 002d 3325 2064 2d25 3631 2073 7325     ---.%3d %-16s %s
80014c88:	3020 2578 3830 2058 7830 3025 5838 2520      0x%08X 0x%08X %
80014c98:	6438 000a 7266 6565 0020 0000 7563 7272     8d..free ...curr
80014ca8:	0020 0000 6572 6461 0079 0000 6572 7663      ...ready...recv
80014cb8:	0020 0000 6c73 6565 0070 0000 7573 7073      ...sleep...susp
80014cc8:	0020 0000 6177 7469 0020 0000 7472 6d69      ...wait ...rtim
80014cd8:	0065 0000 4c9c 8001 4ca4 8001 4cac 8001     e....L...L...L..
80014ce8:	4cb4 8001 4cbc 8001 4cc4 8001 4ccc 8001     .L...L...L...L..
80014cf8:	4cd4 8001 7325 203a 6425 000a 6166 7463     .L..%s: %d..fact
80014d08:	726f 6169 3a6c 2520 0a75 0000 5f5f 5f5f     orial: %u...____
80014d18:	5f5f 5f5f 5f5f 5f5f 5f5f 5f5f 5f5f 5f5f     ________________
80014d28:	5f5f 5f5f 5f5f 5f5f 5f5f 5f5f 5f5f 5f5f     ________________
80014d38:	5f5f 5f5f 5f5f 0a5f 0000 0000 7263 6165     _______.....crea
80014d48:	6f64 7420 7261 6165 0000 0000 7865 315f     do tarea....ex_1
80014d58:	0000 0000 6164 696e 6c65 0000 7865 305f     ....daniel..ex_0
80014d68:	0000 0000 2520 7832 2520 7832 2520 7832     .... %2x %2x %2x
80014d78:	2520 7832 000a 0000 000a 0000 5245 4f52      %2x........ERRO
80014d88:	2e52 000a 4b4f 0a2e 0000 0000 0201 0403     R...OK..........
80014d98:	0605 0807 1009 1211 1413 1615 0201 0403     ................
80014da8:	0605 0807 0a09 0c0b 0e0d 000f 1211 1413     ................
80014db8:	1615 1817 2019 2221 2423 2625 614c 7320     ..... !"#$%&La s
80014dc8:	6d75 2061 6564 6c20 736f 7020 6972 656d     uma de los prime
80014dd8:	6f72 2073 6425 6e20 bac3 656d 6f72 2073     ros %d n..meros 
80014de8:	7365 203a 6425 000a 6954 6d65 6f70 7420     es: %d..Tiempo t
80014df8:	6172 736e 7563 7272 6469 3a6f 2520 2064     ranscurrido: %d 
80014e08:	6573 7567 646e 736f 000a 0000 2020 7325     segundos....  %s
80014e18:	0909 6920 3a64 2520 0a64 0000 616e 656d     .. id: %d...name
80014e28:	7073 6361 3a65 6420 7665 6369 2065 616e     space: device na
80014e38:	656d 2520 2073 6f74 206f 6f6c 676e 0a0d     me %s too long..
	...
80014e50:	616e 656d 7073 6361 3a65 6320 6e61 6f6e     namespace: canno
80014e60:	2074 6f6d 6e75 2074 6564 6976 6563 2520     t mount device %
80014e70:	0d64 000a 642f 7665 6e2f 6c75 006c 0000     d.../dev/null...
80014e80:	2154 8001 218c 8001 21a0 8001 21b4 8001     T!...!...!...!..
80014e90:	2204 8001 21c8 8001 21e0 8001 21f4 8001     ."...!...!...!..
80014ea0:	616d 6e69 000a 0000 6f42 746f 6e69 2e67     main....Booting.
80014eb0:	2e2e 000a 616d 6178 6464 3a72 2520 0a78     ....maxaddr: %x.
80014ec0:	0000 0000 7266 6565 6d20 6d65 726f 3a79     ....free memory:
80014ed0:	2520 0a64 0000 0000 3125 6430 6220 7479      %d.....%10d byt
80014ee0:	7365 6f20 2066 6958 756e 6320 646f 2e65     es of Xinu code.
80014ef0:	000a 0000 2020 2020 2020 2020 2020 5b20     ....           [
80014f00:	7830 3025 5838 7420 206f 7830 3025 5838     0x%08X to 0x%08X
80014f10:	0a5d 0000 3125 6430 6220 7479 7365 6f20     ]...%10d bytes o
80014f20:	2066 6164 6174 0a2e 0000 0000 2020 2020     f data......    
80014f30:	2020 2020 2020 5b20 7830 3025 5838 7420            [0x%08X t
80014f40:	206f 7830 3025 5838 0a5d 000a               o 0x%08X]...
